
E:/MyCode/VSCode/WCH/CH32V307VCT6_CMake_RT_Thread_2024_11_27/build/CH32V307VCT6_CMake_RT_Thread_2024_11_27.elf:     file format elf32-littleriscv
E:/MyCode/VSCode/WCH/CH32V307VCT6_CMake_RT_Thread_2024_11_27/build/CH32V307VCT6_CMake_RT_Thread_2024_11_27.elf
architecture: riscv:rv32, flags 0x00000112:
EXEC_P, HAS_SYMS, D_PAGED
start address 0x00000000

Program Header:
    LOAD off    0x00001000 vaddr 0x00000000 paddr 0x00000000 align 2**12
         filesz 0x00007d84 memsz 0x00007d84 flags r-x
    LOAD off    0x00009000 vaddr 0x20000000 paddr 0x00007d84 align 2**12
         filesz 0x000001d8 memsz 0x00001778 flags rw-
    LOAD off    0x00009800 vaddr 0x2000f800 paddr 0x2000f800 align 2**12
         filesz 0x00000000 memsz 0x00000800 flags rw-

Sections:
Idx Name          Size      VMA       LMA       File off  Algn
  0 .init         00000004  00000000  00000000  00001000  2**1
                  CONTENTS, ALLOC, LOAD, READONLY, CODE
  1 .vector       000001bc  00000004  00000004  00001004  2**1
                  CONTENTS, ALLOC, LOAD, READONLY, CODE
  2 .text         00007bc4  000001c0  000001c0  000011c0  2**2
                  CONTENTS, ALLOC, LOAD, READONLY, CODE
  3 .fini         00000000  00007d84  00007d84  000091d8  2**0
                  CONTENTS, ALLOC, LOAD, CODE
  4 .dalign       00000000  20000000  20000000  000091d8  2**0
                  CONTENTS
  5 .dlalign      00000000  00007d84  00007d84  000091d8  2**0
                  CONTENTS
  6 .data         000001d8  20000000  00007d84  00009000  2**2
                  CONTENTS, ALLOC, LOAD, DATA
  7 .bss          000015a0  200001d8  00007f5c  000091d8  2**2
                  ALLOC
  8 .stack        00000800  2000f800  2000f800  00009800  2**0
                  ALLOC
  9 .debug_info   000234ad  00000000  00000000  000091d8  2**0
                  CONTENTS, READONLY, DEBUGGING
 10 .debug_abbrev 00006306  00000000  00000000  0002c685  2**0
                  CONTENTS, READONLY, DEBUGGING
 11 .debug_loc    0000b873  00000000  00000000  0003298b  2**0
                  CONTENTS, READONLY, DEBUGGING
 12 .debug_aranges 00001118  00000000  00000000  0003e200  2**3
                  CONTENTS, READONLY, DEBUGGING
 13 .debug_ranges 000012a0  00000000  00000000  0003f318  2**3
                  CONTENTS, READONLY, DEBUGGING
 14 .debug_line   0001a9c2  00000000  00000000  000405b8  2**0
                  CONTENTS, READONLY, DEBUGGING
 15 .debug_str    000055b9  00000000  00000000  0005af7a  2**0
                  CONTENTS, READONLY, DEBUGGING
 16 .comment      00000033  00000000  00000000  00060533  2**0
                  CONTENTS, READONLY
 17 .debug_frame  00003bc0  00000000  00000000  00060568  2**2
                  CONTENTS, READONLY, DEBUGGING
 18 .stab         00000084  00000000  00000000  00064128  2**2
                  CONTENTS, READONLY, DEBUGGING
 19 .stabstr      00000117  00000000  00000000  000641ac  2**0
                  CONTENTS, READONLY, DEBUGGING
SYMBOL TABLE:
00000000 l    d  .init	00000000 .init
00000004 l    d  .vector	00000000 .vector
000001c0 l    d  .text	00000000 .text
00007d84 l    d  .fini	00000000 .fini
20000000 l    d  .dalign	00000000 .dalign
00007d84 l    d  .dlalign	00000000 .dlalign
20000000 l    d  .data	00000000 .data
200001d8 l    d  .bss	00000000 .bss
2000f800 l    d  .stack	00000000 .stack
00000000 l    d  .debug_info	00000000 .debug_info
00000000 l    d  .debug_abbrev	00000000 .debug_abbrev
00000000 l    d  .debug_loc	00000000 .debug_loc
00000000 l    d  .debug_aranges	00000000 .debug_aranges
00000000 l    d  .debug_ranges	00000000 .debug_ranges
00000000 l    d  .debug_line	00000000 .debug_line
00000000 l    d  .debug_str	00000000 .debug_str
00000000 l    d  .comment	00000000 .comment
00000000 l    d  .debug_frame	00000000 .debug_frame
00000000 l    d  .stab	00000000 .stab
00000000 l    d  .stabstr	00000000 .stabstr
00000000 l    df *ABS*	00000000 CMakeFiles/CH32V307VCT6_CMake_RT_Thread_2024_11_27.elf.dir/Startup/startup_ch32v30x_D8C.S.obj
00000004 l       .vector	00000000 _vector_base
00000000 l    df *ABS*	00000000 led.c
00000000 l    df *ABS*	00000000 core_riscv.c
00000000 l    df *ABS*	00000000 debug.c
200001c0 l     O .data	00000004 curbrk.5280
00000000 l    df *ABS*	00000000 ch32v30x_dbgmcu.c
00000000 l    df *ABS*	00000000 ch32v30x_exti.c
00000000 l    df *ABS*	00000000 ch32v30x_gpio.c
00000000 l    df *ABS*	00000000 ch32v30x_rcc.c
20000000 l     O .data	00000010 APBAHBPrescTable
200001c4 l     O .data	00000004 ADCPrescTable
00000000 l    df *ABS*	00000000 ch32v30x_usart.c
00000000 l    df *ABS*	00000000 ch32v30x_it.c
00000000 l    df *ABS*	00000000 main.c
00000000 l    df *ABS*	00000000 system_ch32v30x.c
00000cc0 l     F .text	000000b8 SetSysClockTo96_HSE
00000d78 l     F .text	0000000c SetSysClock
00000000 l    df *ABS*	00000000 drv_gpio.c
00000f82 l     F .text	00000012 GPIOD_CLK_ENABLE
00000f94 l     F .text	00000010 GPIOB_CLK_ENABLE
00000fa4 l     F .text	00000010 GPIOA_CLK_ENABLE
00000fb4 l     F .text	00000010 GPIOC_CLK_ENABLE
00000fc4 l     F .text	00000012 GPIOE_CLK_ENABLE
000065c0 l     O .text	00000018 _ch32_pin_ops
000065d8 l     O .text	00000080 pin_irq_map
00006658 l     O .text	00000650 pins
00000000 l    df *ABS*	00000000 drv_usart.c
000018a8 l     F .text	00000036 uart_isr
000018de l     F .text	00000102 ch32_configure
00001ac6 l     F .text	0000002a ch32_getc
00001af0 l     F .text	0000002e ch32_putc
00001b1e l     F .text	00000068 ch32_control
00006cac l     O .text	00000014 ch32_uart_ops
00000000 l    df *ABS*	00000000 board.c
00001bf4 l     F .text	00000040 _SysTick_Config
200002f8 l     O .bss	00001000 rt_heap
00000000 l    df *ABS*	00000000 pin.c
00001cf8 l     F .text	00000036 _pin_read
00001d2e l     F .text	00000032 _pin_write
00001d60 l     F .text	00000022 _pin_control
200012f8 l     O .bss	00000048 _hw_pin
00000000 l    df *ABS*	00000000 serial.c
00001e32 l     F .text	00000022 rt_serial_init
00001e54 l     F .text	00000062 rt_serial_write
00001eb6 l     F .text	00000084 rt_serial_control
00001f3a l     F .text	000000cc rt_serial_read
00002006 l     F .text	0000004e rt_serial_close
00002054 l     F .text	000000e2 rt_serial_open
00000000 l    df *ABS*	00000000 cmd.c
00002286 l     F .text	00000042 show_wait_queue
000022c8 l     F .text	00000054 object_name_maxlen
0000231c l     F .text	00000118 _list_thread
00002448 l     F .text	000000da _list_sem
00002536 l     F .text	000000c8 _list_event
00002612 l     F .text	0000009a _list_mutex
000026c0 l     F .text	000000e4 _list_mailbox
000027b8 l     F .text	000000de _list_msgqueue
000028aa l     F .text	000000cc _list_device
0000298a l     F .text	000000ba _list_timer
00000000 l    df *ABS*	00000000 msh.c
00002ab2 l     F .text	0000001e str_common
00002ad0 l     F .text	00000102 msh_split
00002c3a l     F .text	00000066 msh_get_cmd
00002ca0 l     F .text	0000007e _msh_exec_cmd
00000000 l    df *ABS*	00000000 msh_cmd.c
00000000 l    df *ABS*	00000000 shell.c
00002e52 l     F .text	00000016 finsh_rx_ind
00002e68 l     F .text	00000038 finsh_getchar
00002ea0 l     F .text	0000011e shell_push_history
00003026 l     F .text	00000032 shell_handle_history
00003058 l     F .text	00000040 shell_auto_complete
20001340 l     O .bss	00000081 finsh_prompt.4329
00000000 l    df *ABS*	00000000 cpuport.c
00000000 l    df *ABS*	00000000 clock.c
200001f8 l     O .bss	00000004 rt_tick
00000000 l    df *ABS*	00000000 components.c
000036b4 l     F .text	00000004 rti_start
000036b8 l     F .text	00000004 rti_board_start
000036bc l     F .text	00000004 rti_board_end
000036c0 l     F .text	00000004 rti_end
00000000 l    df *ABS*	00000000 device.c
00000000 l    df *ABS*	00000000 idle.c
00003a06 l     F .text	0000002c rt_thread_idle_entry
200013c4 l     O .bss	00000080 idle
20001444 l     O .bss	00000010 idle_hook_list
20001454 l     O .bss	00000200 rt_thread_stack
00000000 l    df *ABS*	00000000 ipc.c
00000000 l    df *ABS*	00000000 irq.c
200001fc l     O .bss	00000004 rt_interrupt_enter_hook
20000200 l     O .bss	00000004 rt_interrupt_leave_hook
00000000 l    df *ABS*	00000000 kservice.c
00003c82 l     F .text	00000174 print_number
20001654 l     O .bss	00000080 rt_log_buf.2695
000079b4 l     O .text	00000011 large_digits.2585
00007a58 l     O .text	00000011 small_digits.2584
20000208 l     O .bss	00000004 __rt_errno
2000020c l     O .bss	00000004 _console_device
00000000 l    df *ABS*	00000000 mem.c
00004414 l     F .text	00000068 plug_holes
200016d4 l     O .bss	00000020 heap_sem
20000210 l     O .bss	00000004 heap_end
20000214 l     O .bss	00000004 heap_ptr
20000218 l     O .bss	00000004 lfree
2000021c l     O .bss	00000004 max_mem
20000220 l     O .bss	00000004 mem_size_aligned
20000224 l     O .bss	00000004 rt_free_hook
20000228 l     O .bss	00000004 rt_malloc_hook
2000022c l     O .bss	00000004 used_mem
00000000 l    df *ABS*	00000000 object.c
200000e0 l     O .data	00000080 rt_object_container
20000230 l     O .bss	00000004 rt_object_attach_hook
20000234 l     O .bss	00000004 rt_object_detach_hook
00000000 l    df *ABS*	00000000 scheduler.c
2000024c l     O .bss	00000004 rt_scheduler_hook
20000250 l     O .bss	00000002 rt_scheduler_lock_nest
00000000 l    df *ABS*	00000000 thread.c
00004baa l     F .text	00000096 _rt_thread_init
20000260 l     O .bss	00000004 rt_thread_inited_hook
20000264 l     O .bss	00000004 rt_thread_resume_hook
20000268 l     O .bss	00000004 rt_thread_suspend_hook
00000000 l    df *ABS*	00000000 timer.c
00004ee4 l     F .text	0000002e _rt_timer_init
2000026c l     O .bss	00000004 random_nr.2485
20000270 l     O .bss	00000004 rt_timer_enter_hook
20000274 l     O .bss	00000004 rt_timer_exit_hook
20000278 l     O .bss	00000008 rt_timer_list
00000000 l    df *ABS*	00000000 memcmp.c
00000000 l    df *ABS*	00000000 memcpy.c
00000000 l    df *ABS*	00000000 nano-mallocr.c
00000000 l    df *ABS*	00000000 nano-mallocr.c
00000000 l    df *ABS*	00000000 printf.c
00000000 l    df *ABS*	00000000 sbrkr.c
00000000 l    df *ABS*	00000000 strlen.c
00000000 l    df *ABS*	00000000 strncmp.c
00000000 l    df *ABS*	00000000 findfp.c
000054f0 l     F .text	0000006a std
00000000 l    df *ABS*	00000000 fwalk.c
00000000 l    df *ABS*	00000000 mlock.c
00000000 l    df *ABS*	00000000 nano-vfprintf.c
00005728 l     F .text	00000028 __sfputc_r
00000000 l    df *ABS*	00000000 nano-vfprintf_i.c
00000000 l    df *ABS*	00000000 stdio.c
00000000 l    df *ABS*	00000000 wbuf.c
00000000 l    df *ABS*	00000000 writer.c
00000000 l    df *ABS*	00000000 wsetup.c
00000000 l    df *ABS*	00000000 closer.c
00000000 l    df *ABS*	00000000 fflush.c
00000000 l    df *ABS*	00000000 lseekr.c
00000000 l    df *ABS*	00000000 makebuf.c
00000000 l    df *ABS*	00000000 memchr.c
00000000 l    df *ABS*	00000000 readr.c
00000000 l    df *ABS*	00000000 fstatr.c
00000000 l    df *ABS*	00000000 isattyr.c
00000000 l    df *ABS*	00000000 close.c
00000000 l    df *ABS*	00000000 fstat.c
00000000 l    df *ABS*	00000000 isatty.c
00000000 l    df *ABS*	00000000 lseek.c
00000000 l    df *ABS*	00000000 read.c
00000000 l    df *ABS*	00000000 impure.c
20000160 l     O .data	00000060 impure_data
00000000 l    df *ABS*	00000000 symbol.c
00000000 l    df *ABS*	00000000 reent.c
000015a6 g     F .text	0000007c EXTI2_IRQHandler
00000acc  w      .text	00000000 TIM8_TRG_COM_IRQHandler
000046a6 g     F .text	0000002a rt_calloc
00000acc  w      .text	00000000 TIM8_CC_IRQHandler
00007cfc g     O .text	0000000c __fsym_list_thread
0000377e g     F .text	0000000e entry
00006430 g     F .text	00000030 _isatty_r
00002434 g     F .text	00000014 list_thread
0000312a g     F .text	000003ec finsh_thread_entry
0000492a g     F .text	00000010 rt_object_is_systemobject
00003ec0 g     F .text	0000002c rt_strncpy
000035be g     F .text	00000040 rt_hw_stack_init
00006284 g     F .text	00000034 _lseek_r
00004e42 g     F .text	00000012 rt_thread_mdelay
00000acc  w      .text	00000000 UART8_IRQHandler
00002d22 g     F .text	00000062 msh_exec
000072ec g     O .text	0000000d __fsym_list_mailbox_name
00004876 g     F .text	00000076 rt_object_allocate
00007c18 g     O .text	0000000c __fsym_pinRead
000078b4 g     O .text	00000100 __lowest_bit_bitmap
00005442 g     F .text	0000003e printf
200009c0 g       .data	00000000 __global_pointer$
00004972 g     F .text	00000034 rt_system_scheduler_start
00000acc  w      .text	00000000 TIM1_CC_IRQHandler
0000048c g     F .text	00000030 LED1_BLINK_INIT
200001f0 g     O .bss	00000004 rt_interrupt_to_thread
00005e6a g     F .text	00000036 __sseek
000055ac g     F .text	0000006c __sinit
00005ea6 g     F .text	000000c2 __swbuf_r
00000bd4 g     F .text	00000074 HardFault_Handler
00005564 g     F .text	00000048 __sfmoreglue
00005726 g     F .text	00000002 __malloc_unlock
000073e4 g     O .text	00000009 __fsym_list_sem_name
00000acc  w      .text	00000000 TIM6_IRQHandler
00003968 g     F .text	00000006 rt_device_set_rx_indicate
00001c84 g     F .text	00000074 SysTick_Handler
000046d0 g     F .text	000000c8 rt_free
00006534 g     O .text	00000020 __fsym___cmd_led_desc
200001ec g     O .bss	00000004 rt_interrupt_from_thread
000044bc g     F .text	00000090 rt_system_heap_init
00000acc  w      .text	00000000 PVD_IRQHandler
00003718 g     F .text	00000010 main_thread_entry
00000acc  w      .text	00000000 SDIO_IRQHandler
0000749c g     O .text	00000007 __fsym_reboot_name
00000acc  w      .text	00000000 TIM9_BRK_IRQHandler
00005114 g     F .text	000000c6 rt_timer_check
00004a40 g     F .text	00000054 rt_schedule_insert_thread
00002522 g     F .text	00000014 list_sem
0000383a g     F .text	000000a2 rt_device_open
00000acc  w      .text	00000000 DMA2_Channel8_IRQHandler
00000b60 g     F .text	00000074 NMI_Handler
00000acc  w      .text	00000000 CAN2_RX1_IRQHandler
00001622 g     F .text	0000007c EXTI3_IRQHandler
0000054c g     F .text	0000000a DBGMCU_GetCHIPID
00002a58 g     F .text	0000005a list
00007ad4 g     O .text	00000009 __fsym_list_mem_name
200001e4 g     O .bss	00000004 _sysvar_table_begin
00007314 g     O .text	00000011 __fsym___cmd_list_mutex_name
00007d84 g       .text	00000000 __rtmsymtab_start
00000acc  w      .text	00000000 USBHS_IRQHandler
00003520 g     F .text	0000000a finsh_system_var_init
00000a58 g     F .text	00000010 USART_GetFlagStatus
00000acc  w      .text	00000000 DMA2_Channel9_IRQHandler
000063fe g     F .text	00000032 _fstat_r
0000396e g     F .text	00000098 rt_thread_idle_excute
00004d92 g     F .text	0000005c rt_thread_suspend
000042ea g     F .text	0000007a rt_kprintf
00000acc  w      .text	00000000 TIM10_CC_IRQHandler
20001774 g     O .bss	00000004 errno
00003c78 g     F .text	0000000a rt_interrupt_get_nest
200001d8 g       .bss	00000000 _sbss
00000800 g       *ABS*	00000000 __stack_size
00004c40 g     F .text	00000028 rt_thread_timeout
0000743c g     O .text	0000000c __fsym___cmd_clear_name
00002e42 g     F .text	00000010 cmd_free
00000acc  w      .text	00000000 USBFS_IRQHandler
00007378 g     O .text	00000015 __fsym_list_event_desc
00007c84 g     O .text	0000000c __fsym_list_msgqueue
00007d68 g       .text	00000000 __rt_init_start
000027a4 g     F .text	00000014 list_mailbox
00006d18 g     O .text	00000016 __fsym_pinMode_desc
00007d68 g       .text	00000000 __fsymtab_end
00001da0 g     F .text	0000001e rt_pin_write
00007428 g     O .text	00000014 __fsym___cmd_clear_desc
0000391c g     F .text	00000026 rt_device_read
200001d8 g     O .bss	00000004 shell
0000521a g     F .text	000000b6 memcpy
0000555a g     F .text	0000000a _cleanup_r
0000352a g     F .text	00000094 finsh_system_init
000036ee g     F .text	0000002a rt_components_init
000014ae g     F .text	0000007c EXTI0_IRQHandler
00000acc  w      .text	00000000 I2C2_EV_IRQHandler
00000acc  w      .text	00000000 TIM10_TRG_COM_IRQHandler
00004f12 g     F .text	0000003e rt_timer_init
00007d84 g       .text	00000000 __rt_init_end
00003a32 g     F .text	00000046 rt_thread_idle_init
200001c8 g     O .data	00000004 SystemCoreClock
00007cb4 g     O .text	0000000c __fsym_list_mutex
200001e0 g     O .bss	00000004 _syscall_table_end
200002e0 g     O .bss	00000018 uart1
0000493a g     F .text	00000038 rt_system_scheduler_init
0000378c g     F .text	0000006a rt_device_find
000001c0 g       .text	00000000 rt_hw_context_switch_to
00006470 g     F .text	00000010 _fstat
00007d70 g     O .text	00000004 __rt_init_rt_hw_pin_init
00000004 g       .init	00000000 _einit
200001f4 g     O .bss	00000004 rt_thread_switch_interrupt_flag
0000091e g     F .text	0000001e RCC_APB2PeriphClockCmd
00000acc  w      .text	00000000 CAN2_SCE_IRQHandler
00007d80 g     O .text	00000004 __rt_init_rti_end
00000acc  w      .text	00000000 ADC1_2_IRQHandler
00000622 g     F .text	000000d8 GPIO_Init
000073b8 g     O .text	0000000f __fsym___cmd_list_sem_name
00000acc  w      .text	00000000 Break_Point_Handler
00007c78 g     O .text	0000000c __fsym___cmd_list_msgqueue
00007180 g     O .text	0000001a __fsym_list_desc
00000acc  w      .text	00000000 SPI1_IRQHandler
00002136 g     F .text	0000005c rt_hw_serial_register
000009f8 g     F .text	00000020 USART_Cmd
00003634 g     F .text	00000022 rt_hw_context_switch_interrupt
0000719c g     O .text	00000005 __fsym_list_name
00007478 g     O .text	0000000d __fsym___cmd_reboot_name
00005480 g     F .text	00000032 _sbrk_r
00000acc  w      .text	00000000 TAMPER_IRQHandler
000073f0 g     O .text	0000000c __fsym___cmd_list_thread_desc
000063ca g     F .text	00000034 _read_r
0000745c g     O .text	00000006 __fsym_clear_name
00004cc6 g     F .text	0000006a rt_thread_create
00007d84 g       .text	00000000 __rtmsymtab_end
00007238 g     O .text	0000000b __fsym_list_timer_name
00000ab2 g     F .text	0000001a USART_ClearITPendingBit
00000acc  w      .text	00000000 CAN2_RX0_IRQHandler
00006554 g     O .text	0000000a __fsym___cmd_led_name
00004d30 g     F .text	00000062 rt_thread_yield
00003728 g     F .text	0000002c rt_application_init
00000acc  w      .text	00000000 TIM8_UP_IRQHandler
00000acc  w      .text	00000000 Ecall_M_Mode_Handler
0000454c g     F .text	0000015a rt_malloc
2000f800 g       .stack	00000000 _heap_end
00006480 g     F .text	00000010 _isatty
00003bb8 g     F .text	00000054 rt_sem_release
00007ce4 g     O .text	0000000c __fsym_list_sem
200001d0 g     O .data	00000004 _global_impure_ptr
00001c34  w    F .text	0000000a rt_heap_begin_get
00007c3c g     O .text	0000000c __fsym_list
00000acc  w      .text	00000000 DMA2_Channel2_IRQHandler
00000acc  w      .text	00000000 DMA1_Channel4_IRQHandler
000035fe g     F .text	00000010 sw_setpend
00000514 g     F .text	00000038 _sbrk
20000020 g     O .data	000000c0 pin_irq_hdr_tab
000073fc g     O .text	00000012 __fsym___cmd_list_thread_name
00006d30 g     O .text	00000008 __fsym_pinMode_name
00007d20 g     O .text	0000000c __fsym___cmd_reboot
000072d4 g     O .text	00000018 __fsym_list_mailbox_desc
00004f50 g     F .text	00000044 rt_timer_detach
00000acc  w      .text	00000000 TIM9_UP_IRQHandler
00002d1e g     F .text	00000004 msh_is_used
00000acc  w      .text	00000000 USART3_IRQHandler
00000618 g     F .text	0000000a EXTI_ClearITPendingBit
000036c4 g     F .text	0000002a rt_components_board_init
00007488 g     O .text	00000011 __fsym_reboot_desc
00000acc  w      .text	00000000 RTC_IRQHandler
00004364 g     F .text	00000040 rt_show_version
20001778 g       .bss	00000000 _ebss
00000a68 g     F .text	0000004a USART_GetITStatus
00003516 g     F .text	0000000a finsh_system_function_init
00007d68 g     O .text	00000004 __rt_init_rti_start
00000acc  w      .text	00000000 DMA1_Channel7_IRQHandler
00001c48 g     F .text	0000003c rt_hw_board_init
00001dda g     F .text	00000058 rt_device_pin_register
00007d08 g     O .text	0000000c __fsym___cmd_clear
00000acc  w      .text	00000000 CAN1_RX1_IRQHandler
00004e54 g     F .text	00000060 rt_thread_resume
00003754 g     F .text	0000002a rtthread_startup
000011e8 g     F .text	0000009e ch32_pin_dettach_irq
00000acc  w      .text	00000000 DVP_IRQHandler
00000acc  w      .text	00000000 UART5_IRQHandler
00007298 g     O .text	0000000e __fsym_list_msgqueue_name
000050d4 g     F .text	00000040 rt_timer_control
00004798 g     F .text	00000030 rt_object_get_information
200016f4 g     O .bss	00000080 rt_thread_priority_table
00000708 g     F .text	00000004 GPIO_SetBits
20000288 g     O .bss	00000058 serial1
00000acc  w      .text	00000000 TIM4_IRQHandler
00006cc8 g     O .text	0000001e __fsym_pinRead_desc
0000226e g     F .text	00000018 clear
20000238 g     O .bss	00000004 rt_object_put_hook
00000710 g     F .text	0000000a GPIO_WriteBit
00004b46 g     F .text	00000064 rt_thread_exit
00000acc  w      .text	00000000 DMA2_Channel1_IRQHandler
0000734c g     O .text	00000015 __fsym___cmd_list_event_desc
0000041a g     F .text	00000072 led
000037f6 g     F .text	00000044 rt_device_register
00003e7a g     F .text	00000046 rt_memmove
00007b70 g     O .text	00000020 __sf_fake_stderr
0000145a g     F .text	00000054 HAL_GPIO_EXTI_Callback
0000225c g     F .text	00000012 reboot
00000acc  w      .text	00000000 I2C1_EV_IRQHandler
00007c90 g     O .text	0000000c __fsym___cmd_list_mailbox
00000746 g     F .text	000001d8 RCC_GetClocksFreq
00006d0c g     O .text	00000009 __fsym_pinWrite_name
00000acc  w      .text	00000000 DMA1_Channel6_IRQHandler
00002896 g     F .text	00000014 list_msgqueue
00005750 g     F .text	00000044 __sfputs_r
00000acc  w      .text	00000000 UART4_IRQHandler
00000acc  w      .text	00000000 DMA2_Channel4_IRQHandler
000063b0 g     F .text	0000001a memchr
0000093c g     F .text	000000bc USART_Init
000052d0 g     F .text	000000a4 _free_r
00000acc  w      .text	00000000 TIM3_IRQHandler
00000acc  w      .text	00000000 RCC_IRQHandler
00003f16 g     F .text	00000012 rt_strlen
00000acc  w      .text	00000000 TIM1_TRG_COM_IRQHandler
00007d2c g     O .text	0000000c __fsym_reboot
00007d38 g     O .text	0000000c __fsym___cmd_help
00000acc  w      .text	00000000 DMA1_Channel1_IRQHandler
20000244 g     O .bss	00000001 rt_current_priority
00001062 g     F .text	0000008e ch32_pin_mode
00007c60 g     O .text	0000000c __fsym___cmd_list_timer
00000000 g       .init	00000000 _start
000072a8 g     O .text	00000018 __fsym___cmd_list_mailbox_desc
00000acc  w      .text	00000000 DMA2_Channel7_IRQHandler
20000010 g     O .data	00000010 AHBPrescTable
00006490 g     F .text	00000010 _lseek
000025fe g     F .text	00000014 list_event
000017dc g     F .text	000000c8 EXTI15_10_IRQHandler
000054c4 g     F .text	0000002c strncmp
00001d82 g     F .text	0000001e rt_pin_mode
00000a18 g     F .text	00000036 USART_ITConfig
00007c30 g     O .text	0000000c __fsym_pinMode
000071a4 g     O .text	00000016 __fsym___cmd_list_device_desc
00000556 g     F .text	000000a2 EXTI_Init
00007c54 g     O .text	0000000c __fsym_list_device
00007ca8 g     O .text	0000000c __fsym___cmd_list_mutex
00001dbe g     F .text	0000001c rt_pin_read
0000764c g     O .text	0000000b __fsym___cmd_help_name
0000365e g     F .text	0000002e rt_tick_increase
0000447c g     F .text	00000040 list_mem
00007688 g     O .text	0000001b __fsym___cmd_ps_desc
0000070c g     F .text	00000004 GPIO_ResetBits
00007328 g     O .text	00000015 __fsym_list_mutex_desc
00000acc  w      .text	00000000 TIM7_IRQHandler
00005076 g     F .text	0000005e rt_timer_stop
000060ae g     F .text	00000030 _close_r
00000acc  w      .text	00000000 CAN2_TX_IRQHandler
00007658 g     O .text	00000024 __fsym___cmd_free_desc
20000000 g       .dalign	00000000 _data_vma
00003f28 g     F .text	0000037c rt_vsnprintf
00007cf0 g     O .text	0000000c __fsym___cmd_list_thread
00000acc  w      .text	00000000 TIM5_IRQHandler
000051f4 g     F .text	00000026 memcmp
0000101e g     F .text	00000024 ch32_pin_write
00005f9e g     F .text	00000110 __swsetup_r
0000171a g     F .text	000000c2 EXTI9_5_IRQHandler
00007448 g     O .text	00000014 __fsym_clear_desc
0000360e g     F .text	00000014 sw_clearpend
00005618 g     F .text	000000a0 __sfp
0000368c g     F .text	00000028 rt_tick_from_millisecond
200001dc g     O .bss	00000004 _syscall_table_begin
00001c3e  w    F .text	0000000a rt_heap_end_get
0000071a g     F .text	0000002c GPIO_EXTILineConfig
000018a4 g     F .text	00000004 ch32dma_transmit
00005dec g     F .text	00000030 __sread
00002fbe g     F .text	00000068 finsh_get_prompt
00000acc  w      .text	00000000 ETH_WKUP_IRQHandler
00005724 g     F .text	00000002 __malloc_lock
0000621c g     F .text	00000068 _fflush_r
000043a4 g     F .text	00000070 __rt_ffs
000005f8 g     F .text	00000020 EXTI_GetITStatus
00000acc  w      .text	00000000 SPI2_IRQHandler
00007b90 g     O .text	00000020 __sf_fake_stdin
00002d84 g     F .text	000000ae msh_auto_complete
200001e8 g     O .bss	00000004 _sysvar_table_end
00004ae8 g     F .text	00000020 rt_enter_critical
00004dee g     F .text	00000054 rt_thread_sleep
00000372 g     F .text	000000a8 memset
00000c48 g     F .text	00000078 main
00007634 g     O .text	00000015 __fsym___cmd_help_desc
00000acc  w      .text	00000000 TIM10_BRK_IRQHandler
00003c42 g     F .text	00000036 rt_interrupt_leave
00000acc  w      .text	00000000 TIM9_CC_IRQHandler
0000720c g     O .text	00000011 __fsym___cmd_list_timer_name
00005ea0 g     F .text	00000006 __sclose
00000acc  w      .text	00000000 DMA2_Channel5_IRQHandler
000051f2 g     F .text	00000002 rt_system_timer_thread_init
00004c68 g     F .text	00000056 rt_thread_init
00005374 g     F .text	000000ce _malloc_r
000071f4 g     O .text	00000015 __fsym___cmd_list_timer_desc
000004bc g     F .text	00000004 __get_SP
00007d68 g       .text	00000000 __vsymtab_start
00000acc  w      .text	00000000 DMA1_Channel5_IRQHandler
0000169e g     F .text	0000007c EXTI4_IRQHandler
0000739c g     O .text	00000019 __fsym___cmd_list_sem_desc
20000204 g     O .bss	00000001 rt_interrupt_nest
00000acc  w      .text	00000000 USB_LP_CAN1_RX0_IRQHandler
00007464 g     O .text	00000011 __fsym___cmd_reboot_desc
000072fc g     O .text	00000015 __fsym___cmd_list_mutex_desc
000042e8  w    F .text	00000002 rt_hw_console_output
2000023c g     O .bss	00000004 rt_object_take_hook
00002a44 g     F .text	00000014 list_timer
00007244 g     O .text	0000001d __fsym___cmd_list_msgqueue_desc
00000d84 g     F .text	0000005c SystemInit
00000acc  w      .text	00000000 RNG_IRQHandler
0000767c g     O .text	0000000b __fsym___cmd_free_name
00003622 g     F .text	0000000c rt_hw_interrupt_disable
00004eb4 g     F .text	00000030 rt_thread_startup
20000248 g     O .bss	00000004 rt_current_thread
00005442 g     F .text	0000003e iprintf
000042a4 g     F .text	00000008 rt_console_get_device
00000acc  w      .text	00000000 USB_HP_CAN1_TX_IRQHandler
00000000 g       .init	00000000 _sinit
00007340 g     O .text	0000000b __fsym_list_mutex_name
00005f68 g     F .text	00000036 _write_r
00000acc  w      .text	00000000 DMA1_Channel3_IRQHandler
2000025c g     O .bss	00000004 rt_thread_ready_priority_group
00000acc  w      .text	00000000 ETH_IRQHandler
00005a34 g     F .text	0000010c _printf_common
00007d44 g     O .text	0000000c __fsym___cmd_free
200001cc g     O .data	00000004 _impure_ptr
00000acc  w      .text	00000000 TIM1_UP_IRQHandler
000072c0 g     O .text	00000013 __fsym___cmd_list_mailbox_name
000060de g     F .text	0000013e __sflush_r
000071bc g     O .text	00000012 __fsym___cmd_list_device_name
20000254 g     O .bss	00000008 rt_thread_defunct
00007d78 g     O .text	00000004 __rt_init_rti_board_end
00000acc  w      .text	00000000 WWDG_IRQHandler
00007c24 g     O .text	0000000c __fsym_pinWrite
00003a78 g     F .text	00000036 rt_sem_init
00000236 g       .text	00000000 rt_hw_context_switch_exit
00000acc  w      .text	00000000 USBHSWakeup_IRQHandler
00003e20 g     F .text	0000005a rt_memset
00002976 g     F .text	00000014 list_device
00000acc  w      .text	00000000 DMA2_Channel11_IRQHandler
00007c9c g     O .text	0000000c __fsym_list_mailbox
00000acc  w      .text	00000000 Ecall_U_Mode_Handler
00003eec g     F .text	0000002a rt_strncmp
00007cc0 g     O .text	0000000c __fsym___cmd_list_event
00000acc  w      .text	00000000 DMA2_Channel6_IRQHandler
00007d68 g       .text	00000000 __vsymtab_end
000076a4 g     O .text	00000009 __fsym___cmd_ps_name
00007c6c g     O .text	0000000c __fsym_list_timer
00006ce8 g     O .text	00000008 __fsym_pinRead_name
00000acc  w      .text	00000000 TIM2_IRQHandler
20010000 g       .stack	00000000 _eusrstack
0000483e g     F .text	00000038 rt_object_detach
00000290 g       .text	00000000 SW_Handler
00007d74 g     O .text	00000004 __rt_init_rt_hw_usart_init
00003df6 g     F .text	0000002a rt_set_errno
000051da g     F .text	00000018 rt_system_timer_init
00004a94 g     F .text	00000054 rt_schedule_remove_thread
00000acc  w      .text	00000000 TIM1_BRK_IRQHandler
000062b8 g     F .text	00000058 __swhatbuf_r
00000a4e g     F .text	0000000a USART_SendData
00003c0c g     F .text	00000036 rt_interrupt_enter
00000acc  w      .text	00000000 DMA2_Channel10_IRQHandler
0000152a g     F .text	0000007c EXTI1_IRQHandler
0000362e g     F .text	00000006 rt_hw_interrupt_enable
00007d5c g     O .text	0000000c __fsym_list_mem
000004c0 g     F .text	00000054 _write
200001d8 g       .data	00000000 _edata
00007c48 g     O .text	0000000c __fsym___cmd_list_device
20001778 g       .bss	00000000 _end
00007264 g     O .text	00000014 __fsym___cmd_list_msgqueue_name
00004b08 g     F .text	0000003e rt_exit_critical
00000acc  w      .text	00000000 RTCAlarm_IRQHandler
000026ac g     F .text	00000014 list_mutex
00002e32 g     F .text	00000010 cmd_ps
00007d84 g       .dlalign	00000000 _data_lma
00003098 g     F .text	00000092 finsh_set_device
00000acc  w      .text	00000000 TIM10_UP_IRQHandler
00000acc  w      .text	00000000 TIM9_TRG_COM_IRQHandler
00000acc  w      .text	00000000 UART7_IRQHandler
00000ff6 g     F .text	00000028 get_pin
00000acc  w      .text	00000000 USART2_IRQHandler
00000acc  w      .text	00000000 UART6_IRQHandler
00005e1c g     F .text	0000004e __swrite
000038dc g     F .text	00000040 rt_device_close
00004cbe g     F .text	00000008 rt_thread_self
00005794 g     F .text	000002a0 _vfiprintf_r
00007d7c g     O .text	00000004 __rt_init_finsh_system_init
000071d0 g     O .text	00000016 __fsym_list_device_desc
000056b8 g     F .text	0000006c _fwalk_reent
00000de0 g     F .text	000001a2 SystemCoreClockUpdate
00007410 g     O .text	0000000c __fsym_list_thread_desc
00000acc  w      .text	00000000 I2C2_ER_IRQHandler
00000acc  w      .text	00000000 DMA1_Channel2_IRQHandler
000048ec g     F .text	0000003e rt_object_delete
00003656 g     F .text	00000008 rt_tick_get
000019e0 g     F .text	000000e6 rt_hw_usart_init
00007bb0 g     O .text	00000020 __sf_fake_stdout
00000acc  w      .text	00000000 TIM8_BRK_IRQHandler
000064a0 g     F .text	00000010 _read
00007390 g     O .text	0000000b __fsym_list_event_name
00000ace  w      .text	00000000 handle_reset
00000acc  w      .text	00000000 CAN1_SCE_IRQHandler
00007ccc g     O .text	0000000c __fsym_list_event
20000240 g     O .bss	00000004 rt_object_trytake_hook
00000acc  w      .text	00000000 FLASH_IRQHandler
00007364 g     O .text	00000011 __fsym___cmd_list_event_name
00007ab4 g     O .text	0000001e __fsym_list_mem_desc
00003aae g     F .text	0000010a rt_sem_take
00001b86 g     F .text	0000006e USART1_IRQHandler
00007cd8 g     O .text	0000000c __fsym___cmd_list_sem
00006310 g     F .text	000000a0 __smakebuf_r
000054b2 g     F .text	00000012 strlen
00005b40 g     F .text	000002ac _printf_i
00000acc  w      .text	00000000 SPI3_IRQHandler
00007c0c g     O .text	0000000c __fsym___cmd_led
00007220 g     O .text	00000015 __fsym_list_timer_desc
20000284 g     O .bss	00000004 __malloc_sbrk_start
000042ac g     F .text	0000003c rt_console_set_device
000010f0 g     F .text	000000f8 ch32_pin_attach_irq
00000acc  w      .text	00000000 I2C1_ER_IRQHandler
00007d6c g     O .text	00000004 __rt_init_rti_board_start
00003942 g     F .text	00000026 rt_device_write
20000280 g     O .bss	00000004 __malloc_free_list
0000741c g     O .text	0000000c __fsym_list_thread_name
00007c0c g       .text	00000000 __fsymtab_start
00000fd6 g     F .text	00000020 rt_hw_pin_init
00005794 g     F .text	000002a0 _vfprintf_r
00007d14 g     O .text	0000000c __fsym_clear
000049a6 g     F .text	0000009a rt_schedule
000047c8 g     F .text	00000076 rt_object_init
00001042 g     F .text	00000020 ch32_pin_read
00007d50 g     O .text	0000000c __fsym___cmd_ps
000006fa g     F .text	0000000e GPIO_ReadInputDataBit
00006cf0 g     O .text	0000001c __fsym_pinWrite_desc
00004f94 g     F .text	000000e2 rt_timer_start
00002bd2 g     F .text	00000068 msh_help
00002192 g     F .text	000000ca rt_hw_serial_isr
00000acc  w      .text	00000000 USBWakeUp_IRQHandler
000001dc g       .text	00000000 rt_hw_context_switch
00006460 g     F .text	00000010 _close
00000acc  w      .text	00000000 DMA2_Channel3_IRQHandler
00001286 g     F .text	000001d4 ch32_pin_irq_enable
000071e8 g     O .text	0000000c __fsym_list_device_name
00007278 g     O .text	0000001d __fsym_list_msgqueue_desc
000073c8 g     O .text	00000019 __fsym_list_sem_desc



Disassembly of section .init:

00000000 <_sinit>:
   0:	2cf0006f          	j	ace <handle_reset>

Disassembly of section .vector:

00000004 <_vector_base>:
	...
   c:	0b60                	addi	s0,sp,412
   e:	0000                	unimp
  10:	0bd4                	addi	a3,sp,468
  12:	0000                	unimp
  14:	0000                	unimp
  16:	0000                	unimp
  18:	0acc                	addi	a1,sp,340
	...
  22:	0000                	unimp
  24:	0acc                	addi	a1,sp,340
  26:	0000                	unimp
  28:	0acc                	addi	a1,sp,340
	...
  32:	0000                	unimp
  34:	1c84                	addi	s1,sp,624
  36:	0000                	unimp
  38:	0000                	unimp
  3a:	0000                	unimp
  3c:	0290                	addi	a2,sp,320
  3e:	0000                	unimp
  40:	0000                	unimp
  42:	0000                	unimp
  44:	0acc                	addi	a1,sp,340
  46:	0000                	unimp
  48:	0acc                	addi	a1,sp,340
  4a:	0000                	unimp
  4c:	0acc                	addi	a1,sp,340
  4e:	0000                	unimp
  50:	0acc                	addi	a1,sp,340
  52:	0000                	unimp
  54:	0acc                	addi	a1,sp,340
  56:	0000                	unimp
  58:	0acc                	addi	a1,sp,340
  5a:	0000                	unimp
  5c:	14ae                	slli	s1,s1,0x2b
  5e:	0000                	unimp
  60:	152a                	slli	a0,a0,0x2a
  62:	0000                	unimp
  64:	15a6                	slli	a1,a1,0x29
  66:	0000                	unimp
  68:	1622                	slli	a2,a2,0x28
  6a:	0000                	unimp
  6c:	169e                	slli	a3,a3,0x27
  6e:	0000                	unimp
  70:	0acc                	addi	a1,sp,340
  72:	0000                	unimp
  74:	0acc                	addi	a1,sp,340
  76:	0000                	unimp
  78:	0acc                	addi	a1,sp,340
  7a:	0000                	unimp
  7c:	0acc                	addi	a1,sp,340
  7e:	0000                	unimp
  80:	0acc                	addi	a1,sp,340
  82:	0000                	unimp
  84:	0acc                	addi	a1,sp,340
  86:	0000                	unimp
  88:	0acc                	addi	a1,sp,340
  8a:	0000                	unimp
  8c:	0acc                	addi	a1,sp,340
  8e:	0000                	unimp
  90:	0acc                	addi	a1,sp,340
  92:	0000                	unimp
  94:	0acc                	addi	a1,sp,340
  96:	0000                	unimp
  98:	0acc                	addi	a1,sp,340
  9a:	0000                	unimp
  9c:	0acc                	addi	a1,sp,340
  9e:	0000                	unimp
  a0:	171a                	slli	a4,a4,0x26
  a2:	0000                	unimp
  a4:	0acc                	addi	a1,sp,340
  a6:	0000                	unimp
  a8:	0acc                	addi	a1,sp,340
  aa:	0000                	unimp
  ac:	0acc                	addi	a1,sp,340
  ae:	0000                	unimp
  b0:	0acc                	addi	a1,sp,340
  b2:	0000                	unimp
  b4:	0acc                	addi	a1,sp,340
  b6:	0000                	unimp
  b8:	0acc                	addi	a1,sp,340
  ba:	0000                	unimp
  bc:	0acc                	addi	a1,sp,340
  be:	0000                	unimp
  c0:	0acc                	addi	a1,sp,340
  c2:	0000                	unimp
  c4:	0acc                	addi	a1,sp,340
  c6:	0000                	unimp
  c8:	0acc                	addi	a1,sp,340
  ca:	0000                	unimp
  cc:	0acc                	addi	a1,sp,340
  ce:	0000                	unimp
  d0:	0acc                	addi	a1,sp,340
  d2:	0000                	unimp
  d4:	0acc                	addi	a1,sp,340
  d6:	0000                	unimp
  d8:	1b86                	slli	s7,s7,0x21
  da:	0000                	unimp
  dc:	0acc                	addi	a1,sp,340
  de:	0000                	unimp
  e0:	0acc                	addi	a1,sp,340
  e2:	0000                	unimp
  e4:	17dc                	addi	a5,sp,996
  e6:	0000                	unimp
  e8:	0acc                	addi	a1,sp,340
  ea:	0000                	unimp
  ec:	0acc                	addi	a1,sp,340
  ee:	0000                	unimp
  f0:	0acc                	addi	a1,sp,340
  f2:	0000                	unimp
  f4:	0acc                	addi	a1,sp,340
  f6:	0000                	unimp
  f8:	0acc                	addi	a1,sp,340
  fa:	0000                	unimp
  fc:	0acc                	addi	a1,sp,340
  fe:	0000                	unimp
 100:	0acc                	addi	a1,sp,340
 102:	0000                	unimp
 104:	0000                	unimp
 106:	0000                	unimp
 108:	0acc                	addi	a1,sp,340
 10a:	0000                	unimp
 10c:	0acc                	addi	a1,sp,340
 10e:	0000                	unimp
 110:	0acc                	addi	a1,sp,340
 112:	0000                	unimp
 114:	0acc                	addi	a1,sp,340
 116:	0000                	unimp
 118:	0acc                	addi	a1,sp,340
 11a:	0000                	unimp
 11c:	0acc                	addi	a1,sp,340
 11e:	0000                	unimp
 120:	0acc                	addi	a1,sp,340
 122:	0000                	unimp
 124:	0acc                	addi	a1,sp,340
 126:	0000                	unimp
 128:	0acc                	addi	a1,sp,340
 12a:	0000                	unimp
 12c:	0acc                	addi	a1,sp,340
 12e:	0000                	unimp
 130:	0acc                	addi	a1,sp,340
 132:	0000                	unimp
 134:	0acc                	addi	a1,sp,340
 136:	0000                	unimp
 138:	0acc                	addi	a1,sp,340
 13a:	0000                	unimp
 13c:	0acc                	addi	a1,sp,340
 13e:	0000                	unimp
 140:	0acc                	addi	a1,sp,340
 142:	0000                	unimp
 144:	0acc                	addi	a1,sp,340
 146:	0000                	unimp
 148:	0acc                	addi	a1,sp,340
 14a:	0000                	unimp
 14c:	0acc                	addi	a1,sp,340
 14e:	0000                	unimp
 150:	0acc                	addi	a1,sp,340
 152:	0000                	unimp
 154:	0acc                	addi	a1,sp,340
 156:	0000                	unimp
 158:	0acc                	addi	a1,sp,340
 15a:	0000                	unimp
 15c:	0acc                	addi	a1,sp,340
 15e:	0000                	unimp
 160:	0acc                	addi	a1,sp,340
 162:	0000                	unimp
 164:	0acc                	addi	a1,sp,340
 166:	0000                	unimp
 168:	0acc                	addi	a1,sp,340
 16a:	0000                	unimp
 16c:	0acc                	addi	a1,sp,340
 16e:	0000                	unimp
 170:	0acc                	addi	a1,sp,340
 172:	0000                	unimp
 174:	0acc                	addi	a1,sp,340
 176:	0000                	unimp
 178:	0acc                	addi	a1,sp,340
 17a:	0000                	unimp
 17c:	0acc                	addi	a1,sp,340
 17e:	0000                	unimp
 180:	0acc                	addi	a1,sp,340
 182:	0000                	unimp
 184:	0acc                	addi	a1,sp,340
 186:	0000                	unimp
 188:	0acc                	addi	a1,sp,340
 18a:	0000                	unimp
 18c:	0acc                	addi	a1,sp,340
 18e:	0000                	unimp
 190:	0acc                	addi	a1,sp,340
 192:	0000                	unimp
 194:	0acc                	addi	a1,sp,340
 196:	0000                	unimp
 198:	0acc                	addi	a1,sp,340
 19a:	0000                	unimp
 19c:	0acc                	addi	a1,sp,340
 19e:	0000                	unimp
 1a0:	0acc                	addi	a1,sp,340
	...

Disassembly of section .text:

000001c0 <rt_hw_context_switch_to>:
     1c0:	20010297          	auipc	t0,0x20010
     1c4:	e4028293          	addi	t0,t0,-448 # 20010000 <_eusrstack>
     1c8:	e0028293          	addi	t0,t0,-512
     1cc:	34029073          	csrw	mscratch,t0
     1d0:	00052103          	lw	sp,0(a0)
     1d4:	4522                	lw	a0,8(sp)
     1d6:	30051073          	csrw	mstatus,a0
     1da:	a8b1                	j	236 <rt_hw_context_switch_exit>

000001dc <rt_hw_context_switch>:
     1dc:	7119                	addi	sp,sp,-128
     1de:	00252023          	sw	sp,0(a0)
     1e2:	c006                	sw	ra,0(sp)
     1e4:	c206                	sw	ra,4(sp)
     1e6:	ca16                	sw	t0,20(sp)
     1e8:	300022f3          	csrr	t0,mstatus
     1ec:	0082f293          	andi	t0,t0,8
     1f0:	00028463          	beqz	t0,1f8 <rt_hw_context_switch+0x1c>
     1f4:	08000293          	li	t0,128
     1f8:	c416                	sw	t0,8(sp)
     1fa:	c812                	sw	tp,16(sp)
     1fc:	cc1a                	sw	t1,24(sp)
     1fe:	ce1e                	sw	t2,28(sp)
     200:	d022                	sw	s0,32(sp)
     202:	d226                	sw	s1,36(sp)
     204:	d42a                	sw	a0,40(sp)
     206:	d62e                	sw	a1,44(sp)
     208:	d832                	sw	a2,48(sp)
     20a:	da36                	sw	a3,52(sp)
     20c:	dc3a                	sw	a4,56(sp)
     20e:	de3e                	sw	a5,60(sp)
     210:	c0c2                	sw	a6,64(sp)
     212:	c2c6                	sw	a7,68(sp)
     214:	c4ca                	sw	s2,72(sp)
     216:	c6ce                	sw	s3,76(sp)
     218:	c8d2                	sw	s4,80(sp)
     21a:	cad6                	sw	s5,84(sp)
     21c:	ccda                	sw	s6,88(sp)
     21e:	cede                	sw	s7,92(sp)
     220:	d0e2                	sw	s8,96(sp)
     222:	d2e6                	sw	s9,100(sp)
     224:	d4ea                	sw	s10,104(sp)
     226:	d6ee                	sw	s11,108(sp)
     228:	d8f2                	sw	t3,112(sp)
     22a:	daf6                	sw	t4,116(sp)
     22c:	dcfa                	sw	t5,120(sp)
     22e:	defe                	sw	t6,124(sp)
     230:	0005a103          	lw	sp,0(a1)
     234:	a009                	j	236 <rt_hw_context_switch_exit>

00000236 <rt_hw_context_switch_exit>:
     236:	4502                	lw	a0,0(sp)
     238:	34151073          	csrw	mepc,a0
     23c:	4092                	lw	ra,4(sp)
     23e:	00008537          	lui	a0,0x8
     242:	80050513          	addi	a0,a0,-2048 # 7800 <__fsym___cmd_ps_name+0x15c>
     246:	30052073          	csrs	mstatus,a0
     24a:	4522                	lw	a0,8(sp)
     24c:	30052073          	csrs	mstatus,a0
     250:	4242                	lw	tp,16(sp)
     252:	42d2                	lw	t0,20(sp)
     254:	4362                	lw	t1,24(sp)
     256:	43f2                	lw	t2,28(sp)
     258:	5402                	lw	s0,32(sp)
     25a:	5492                	lw	s1,36(sp)
     25c:	5522                	lw	a0,40(sp)
     25e:	55b2                	lw	a1,44(sp)
     260:	5642                	lw	a2,48(sp)
     262:	56d2                	lw	a3,52(sp)
     264:	5762                	lw	a4,56(sp)
     266:	57f2                	lw	a5,60(sp)
     268:	4806                	lw	a6,64(sp)
     26a:	4896                	lw	a7,68(sp)
     26c:	4926                	lw	s2,72(sp)
     26e:	49b6                	lw	s3,76(sp)
     270:	4a46                	lw	s4,80(sp)
     272:	4ad6                	lw	s5,84(sp)
     274:	4b66                	lw	s6,88(sp)
     276:	4bf6                	lw	s7,92(sp)
     278:	5c06                	lw	s8,96(sp)
     27a:	5c96                	lw	s9,100(sp)
     27c:	5d26                	lw	s10,104(sp)
     27e:	5db6                	lw	s11,108(sp)
     280:	5e46                	lw	t3,112(sp)
     282:	5ed6                	lw	t4,116(sp)
     284:	5f66                	lw	t5,120(sp)
     286:	5ff6                	lw	t6,124(sp)
     288:	6109                	addi	sp,sp,128
     28a:	30200073          	mret
	...

00000290 <SW_Handler>:
     290:	7119                	addi	sp,sp,-128
     292:	ca16                	sw	t0,20(sp)
     294:	08000293          	li	t0,128
     298:	c416                	sw	t0,8(sp)
     29a:	02000293          	li	t0,32
     29e:	8042a073          	csrs	0x804,t0
     2a2:	c206                	sw	ra,4(sp)
     2a4:	c812                	sw	tp,16(sp)
     2a6:	cc1a                	sw	t1,24(sp)
     2a8:	ce1e                	sw	t2,28(sp)
     2aa:	d022                	sw	s0,32(sp)
     2ac:	d226                	sw	s1,36(sp)
     2ae:	d42a                	sw	a0,40(sp)
     2b0:	d62e                	sw	a1,44(sp)
     2b2:	d832                	sw	a2,48(sp)
     2b4:	da36                	sw	a3,52(sp)
     2b6:	dc3a                	sw	a4,56(sp)
     2b8:	de3e                	sw	a5,60(sp)
     2ba:	c0c2                	sw	a6,64(sp)
     2bc:	c2c6                	sw	a7,68(sp)
     2be:	c4ca                	sw	s2,72(sp)
     2c0:	c6ce                	sw	s3,76(sp)
     2c2:	c8d2                	sw	s4,80(sp)
     2c4:	cad6                	sw	s5,84(sp)
     2c6:	ccda                	sw	s6,88(sp)
     2c8:	cede                	sw	s7,92(sp)
     2ca:	d0e2                	sw	s8,96(sp)
     2cc:	d2e6                	sw	s9,100(sp)
     2ce:	d4ea                	sw	s10,104(sp)
     2d0:	d6ee                	sw	s11,108(sp)
     2d2:	d8f2                	sw	t3,112(sp)
     2d4:	daf6                	sw	t4,116(sp)
     2d6:	dcfa                	sw	t5,120(sp)
     2d8:	defe                	sw	t6,124(sp)
     2da:	34011173          	csrrw	sp,mscratch,sp
     2de:	12f030ef          	jal	ra,3c0c <rt_interrupt_enter>
     2e2:	32c030ef          	jal	ra,360e <sw_clearpend>
     2e6:	15d030ef          	jal	ra,3c42 <rt_interrupt_leave>
     2ea:	34011173          	csrrw	sp,mscratch,sp
     2ee:	83418413          	addi	s0,gp,-1996 # 200001f4 <rt_thread_switch_interrupt_flag>
     2f2:	00042903          	lw	s2,0(s0)
     2f6:	02090463          	beqz	s2,31e <SW_Handler+0x8e>
     2fa:	00042023          	sw	zero,0(s0)
     2fe:	34102573          	csrr	a0,mepc
     302:	c02a                	sw	a0,0(sp)
     304:	82c18413          	addi	s0,gp,-2004 # 200001ec <rt_interrupt_from_thread>
     308:	4004                	lw	s1,0(s0)
     30a:	0024a023          	sw	sp,0(s1)
     30e:	83018413          	addi	s0,gp,-2000 # 200001f0 <rt_interrupt_to_thread>
     312:	4004                	lw	s1,0(s0)
     314:	0004a103          	lw	sp,0(s1)
     318:	4502                	lw	a0,0(sp)
     31a:	34151073          	csrw	mepc,a0
     31e:	4092                	lw	ra,4(sp)
     320:	000082b7          	lui	t0,0x8
     324:	80028293          	addi	t0,t0,-2048 # 7800 <__fsym___cmd_ps_name+0x15c>
     328:	3002a073          	csrs	mstatus,t0
     32c:	42a2                	lw	t0,8(sp)
     32e:	3002a073          	csrs	mstatus,t0
     332:	4242                	lw	tp,16(sp)
     334:	42d2                	lw	t0,20(sp)
     336:	4362                	lw	t1,24(sp)
     338:	43f2                	lw	t2,28(sp)
     33a:	5402                	lw	s0,32(sp)
     33c:	5492                	lw	s1,36(sp)
     33e:	5522                	lw	a0,40(sp)
     340:	55b2                	lw	a1,44(sp)
     342:	5642                	lw	a2,48(sp)
     344:	56d2                	lw	a3,52(sp)
     346:	5762                	lw	a4,56(sp)
     348:	57f2                	lw	a5,60(sp)
     34a:	4806                	lw	a6,64(sp)
     34c:	4896                	lw	a7,68(sp)
     34e:	4926                	lw	s2,72(sp)
     350:	49b6                	lw	s3,76(sp)
     352:	4a46                	lw	s4,80(sp)
     354:	4ad6                	lw	s5,84(sp)
     356:	4b66                	lw	s6,88(sp)
     358:	4bf6                	lw	s7,92(sp)
     35a:	5c06                	lw	s8,96(sp)
     35c:	5c96                	lw	s9,100(sp)
     35e:	5d26                	lw	s10,104(sp)
     360:	5db6                	lw	s11,108(sp)
     362:	5e46                	lw	t3,112(sp)
     364:	5ed6                	lw	t4,116(sp)
     366:	5f66                	lw	t5,120(sp)
     368:	5ff6                	lw	t6,124(sp)
     36a:	6109                	addi	sp,sp,128
     36c:	30200073          	mret
	...

00000372 <memset>:
     372:	433d                	li	t1,15
     374:	872a                	mv	a4,a0
     376:	02c37363          	bgeu	t1,a2,39c <memset+0x2a>
     37a:	00f77793          	andi	a5,a4,15
     37e:	efbd                	bnez	a5,3fc <memset+0x8a>
     380:	e5ad                	bnez	a1,3ea <memset+0x78>
     382:	ff067693          	andi	a3,a2,-16
     386:	8a3d                	andi	a2,a2,15
     388:	96ba                	add	a3,a3,a4
     38a:	c30c                	sw	a1,0(a4)
     38c:	c34c                	sw	a1,4(a4)
     38e:	c70c                	sw	a1,8(a4)
     390:	c74c                	sw	a1,12(a4)
     392:	0741                	addi	a4,a4,16
     394:	fed76be3          	bltu	a4,a3,38a <memset+0x18>
     398:	e211                	bnez	a2,39c <memset+0x2a>
     39a:	8082                	ret
     39c:	40c306b3          	sub	a3,t1,a2
     3a0:	068a                	slli	a3,a3,0x2
     3a2:	00000297          	auipc	t0,0x0
     3a6:	9696                	add	a3,a3,t0
     3a8:	00a68067          	jr	10(a3)
     3ac:	00b70723          	sb	a1,14(a4)
     3b0:	00b706a3          	sb	a1,13(a4)
     3b4:	00b70623          	sb	a1,12(a4)
     3b8:	00b705a3          	sb	a1,11(a4)
     3bc:	00b70523          	sb	a1,10(a4)
     3c0:	00b704a3          	sb	a1,9(a4)
     3c4:	00b70423          	sb	a1,8(a4)
     3c8:	00b703a3          	sb	a1,7(a4)
     3cc:	00b70323          	sb	a1,6(a4)
     3d0:	00b702a3          	sb	a1,5(a4)
     3d4:	00b70223          	sb	a1,4(a4)
     3d8:	00b701a3          	sb	a1,3(a4)
     3dc:	00b70123          	sb	a1,2(a4)
     3e0:	00b700a3          	sb	a1,1(a4)
     3e4:	00b70023          	sb	a1,0(a4)
     3e8:	8082                	ret
     3ea:	0ff5f593          	andi	a1,a1,255
     3ee:	00859693          	slli	a3,a1,0x8
     3f2:	8dd5                	or	a1,a1,a3
     3f4:	01059693          	slli	a3,a1,0x10
     3f8:	8dd5                	or	a1,a1,a3
     3fa:	b761                	j	382 <memset+0x10>
     3fc:	00279693          	slli	a3,a5,0x2
     400:	00000297          	auipc	t0,0x0
     404:	9696                	add	a3,a3,t0
     406:	8286                	mv	t0,ra
     408:	fa8680e7          	jalr	-88(a3)
     40c:	8096                	mv	ra,t0
     40e:	17c1                	addi	a5,a5,-16
     410:	8f1d                	sub	a4,a4,a5
     412:	963e                	add	a2,a2,a5
     414:	f8c374e3          	bgeu	t1,a2,39c <memset+0x2a>
     418:	b7a5                	j	380 <memset+0xe>

0000041a <led>:
     41a:	1141                	addi	sp,sp,-16
     41c:	c606                	sw	ra,12(sp)
     41e:	c422                	sw	s0,8(sp)
     420:	4581                	li	a1,0
     422:	4549                	li	a0,18
     424:	15f010ef          	jal	ra,1d82 <rt_pin_mode>
     428:	2851                	jal	4bc <__get_SP>
     42a:	85aa                	mv	a1,a0
     42c:	00006517          	auipc	a0,0x6
     430:	0d450513          	addi	a0,a0,212 # 6500 <_read+0x60>
     434:	00e050ef          	jal	ra,5442 <iprintf>
     438:	4401                	li	s0,0
     43a:	47a5                	li	a5,9
     43c:	0487e363          	bltu	a5,s0,482 <led+0x68>
     440:	4581                	li	a1,0
     442:	4549                	li	a0,18
     444:	15d010ef          	jal	ra,1da0 <rt_pin_write>
     448:	85a2                	mv	a1,s0
     44a:	00006517          	auipc	a0,0x6
     44e:	0c650513          	addi	a0,a0,198 # 6510 <_read+0x70>
     452:	699030ef          	jal	ra,42ea <rt_kprintf>
     456:	1f400513          	li	a0,500
     45a:	1e9040ef          	jal	ra,4e42 <rt_thread_mdelay>
     45e:	4585                	li	a1,1
     460:	4549                	li	a0,18
     462:	13f010ef          	jal	ra,1da0 <rt_pin_write>
     466:	00006517          	auipc	a0,0x6
     46a:	0c250513          	addi	a0,a0,194 # 6528 <_read+0x88>
     46e:	67d030ef          	jal	ra,42ea <rt_kprintf>
     472:	1f400513          	li	a0,500
     476:	1cd040ef          	jal	ra,4e42 <rt_thread_mdelay>
     47a:	0405                	addi	s0,s0,1
     47c:	0ff47413          	andi	s0,s0,255
     480:	bf6d                	j	43a <led+0x20>
     482:	4501                	li	a0,0
     484:	40b2                	lw	ra,12(sp)
     486:	4422                	lw	s0,8(sp)
     488:	0141                	addi	sp,sp,16
     48a:	8082                	ret

0000048c <LED1_BLINK_INIT>:
     48c:	1101                	addi	sp,sp,-32
     48e:	ce06                	sw	ra,28(sp)
     490:	c202                	sw	zero,4(sp)
     492:	c402                	sw	zero,8(sp)
     494:	c602                	sw	zero,12(sp)
     496:	4585                	li	a1,1
     498:	4511                	li	a0,4
     49a:	2151                	jal	91e <RCC_APB2PeriphClockCmd>
     49c:	4785                	li	a5,1
     49e:	00f11223          	sh	a5,4(sp)
     4a2:	478d                	li	a5,3
     4a4:	c43e                	sw	a5,8(sp)
     4a6:	47c1                	li	a5,16
     4a8:	c63e                	sw	a5,12(sp)
     4aa:	004c                	addi	a1,sp,4
     4ac:	40011537          	lui	a0,0x40011
     4b0:	80050513          	addi	a0,a0,-2048 # 40010800 <_eusrstack+0x20000800>
     4b4:	22bd                	jal	622 <GPIO_Init>
     4b6:	40f2                	lw	ra,28(sp)
     4b8:	6105                	addi	sp,sp,32
     4ba:	8082                	ret

000004bc <__get_SP>:
     4bc:	850a                	mv	a0,sp
     4be:	8082                	ret

000004c0 <_write>:
     4c0:	1101                	addi	sp,sp,-32
     4c2:	ce06                	sw	ra,28(sp)
     4c4:	cc22                	sw	s0,24(sp)
     4c6:	ca26                	sw	s1,20(sp)
     4c8:	c84a                	sw	s2,16(sp)
     4ca:	c64e                	sw	s3,12(sp)
     4cc:	84ae                	mv	s1,a1
     4ce:	89b2                	mv	s3,a2
     4d0:	4401                	li	s0,0
     4d2:	a831                	j	4ee <_write+0x2e>
     4d4:	00148913          	addi	s2,s1,1
     4d8:	00048583          	lb	a1,0(s1)
     4dc:	05c2                	slli	a1,a1,0x10
     4de:	81c1                	srli	a1,a1,0x10
     4e0:	40014537          	lui	a0,0x40014
     4e4:	80050513          	addi	a0,a0,-2048 # 40013800 <_eusrstack+0x20003800>
     4e8:	239d                	jal	a4e <USART_SendData>
     4ea:	0405                	addi	s0,s0,1
     4ec:	84ca                	mv	s1,s2
     4ee:	01345b63          	bge	s0,s3,504 <_write+0x44>
     4f2:	04000593          	li	a1,64
     4f6:	40014537          	lui	a0,0x40014
     4fa:	80050513          	addi	a0,a0,-2048 # 40013800 <_eusrstack+0x20003800>
     4fe:	2ba9                	jal	a58 <USART_GetFlagStatus>
     500:	d96d                	beqz	a0,4f2 <_write+0x32>
     502:	bfc9                	j	4d4 <_write+0x14>
     504:	854e                	mv	a0,s3
     506:	40f2                	lw	ra,28(sp)
     508:	4462                	lw	s0,24(sp)
     50a:	44d2                	lw	s1,20(sp)
     50c:	4942                	lw	s2,16(sp)
     50e:	49b2                	lw	s3,12(sp)
     510:	6105                	addi	sp,sp,32
     512:	8082                	ret

00000514 <_sbrk>:
     514:	20000797          	auipc	a5,0x20000
     518:	cac78793          	addi	a5,a5,-852 # 200001c0 <curbrk.5280>
     51c:	439c                	lw	a5,0(a5)
     51e:	953e                	add	a0,a0,a5
     520:	20001717          	auipc	a4,0x20001
     524:	25870713          	addi	a4,a4,600 # 20001778 <_ebss>
     528:	00e56e63          	bltu	a0,a4,544 <_sbrk+0x30>
     52c:	2000f717          	auipc	a4,0x2000f
     530:	2d470713          	addi	a4,a4,724 # 2000f800 <_heap_end>
     534:	00a76a63          	bltu	a4,a0,548 <_sbrk+0x34>
     538:	20000717          	auipc	a4,0x20000
     53c:	c8a72423          	sw	a0,-888(a4) # 200001c0 <curbrk.5280>
     540:	853e                	mv	a0,a5
     542:	8082                	ret
     544:	57fd                	li	a5,-1
     546:	bfed                	j	540 <_sbrk+0x2c>
     548:	57fd                	li	a5,-1
     54a:	bfdd                	j	540 <_sbrk+0x2c>

0000054c <DBGMCU_GetCHIPID>:
     54c:	1ffff7b7          	lui	a5,0x1ffff
     550:	7047a503          	lw	a0,1796(a5) # 1ffff704 <__rt_init_end+0x1fff7980>
     554:	8082                	ret

00000556 <EXTI_Init>:
     556:	455c                	lw	a5,12(a0)
     558:	c3d9                	beqz	a5,5de <EXTI_Init+0x88>
     55a:	40010737          	lui	a4,0x40010
     55e:	40070793          	addi	a5,a4,1024 # 40010400 <_eusrstack+0x20000400>
     562:	40072683          	lw	a3,1024(a4)
     566:	4110                	lw	a2,0(a0)
     568:	fff64613          	not	a2,a2
     56c:	8ef1                	and	a3,a3,a2
     56e:	40d72023          	sw	a3,1024(a4)
     572:	40472703          	lw	a4,1028(a4)
     576:	4114                	lw	a3,0(a0)
     578:	fff6c693          	not	a3,a3
     57c:	8f75                	and	a4,a4,a3
     57e:	c3d8                	sw	a4,4(a5)
     580:	4158                	lw	a4,4(a0)
     582:	973e                	add	a4,a4,a5
     584:	4314                	lw	a3,0(a4)
     586:	4110                	lw	a2,0(a0)
     588:	8ed1                	or	a3,a3,a2
     58a:	c314                	sw	a3,0(a4)
     58c:	4798                	lw	a4,8(a5)
     58e:	4114                	lw	a3,0(a0)
     590:	fff6c693          	not	a3,a3
     594:	8f75                	and	a4,a4,a3
     596:	c798                	sw	a4,8(a5)
     598:	47d8                	lw	a4,12(a5)
     59a:	4114                	lw	a3,0(a0)
     59c:	fff6c693          	not	a3,a3
     5a0:	8f75                	and	a4,a4,a3
     5a2:	c7d8                	sw	a4,12(a5)
     5a4:	451c                	lw	a5,8(a0)
     5a6:	4741                	li	a4,16
     5a8:	00e78c63          	beq	a5,a4,5c0 <EXTI_Init+0x6a>
     5ac:	40010737          	lui	a4,0x40010
     5b0:	40070713          	addi	a4,a4,1024 # 40010400 <_eusrstack+0x20000400>
     5b4:	97ba                	add	a5,a5,a4
     5b6:	4398                	lw	a4,0(a5)
     5b8:	4114                	lw	a3,0(a0)
     5ba:	8f55                	or	a4,a4,a3
     5bc:	c398                	sw	a4,0(a5)
     5be:	8082                	ret
     5c0:	400107b7          	lui	a5,0x40010
     5c4:	4087a703          	lw	a4,1032(a5) # 40010408 <_eusrstack+0x20000408>
     5c8:	4114                	lw	a3,0(a0)
     5ca:	8f55                	or	a4,a4,a3
     5cc:	40e7a423          	sw	a4,1032(a5)
     5d0:	40c7a703          	lw	a4,1036(a5)
     5d4:	4114                	lw	a3,0(a0)
     5d6:	8f55                	or	a4,a4,a3
     5d8:	40e7a623          	sw	a4,1036(a5)
     5dc:	8082                	ret
     5de:	415c                	lw	a5,4(a0)
     5e0:	40010737          	lui	a4,0x40010
     5e4:	40070713          	addi	a4,a4,1024 # 40010400 <_eusrstack+0x20000400>
     5e8:	97ba                	add	a5,a5,a4
     5ea:	4398                	lw	a4,0(a5)
     5ec:	4114                	lw	a3,0(a0)
     5ee:	fff6c693          	not	a3,a3
     5f2:	8f75                	and	a4,a4,a3
     5f4:	c398                	sw	a4,0(a5)
     5f6:	8082                	ret

000005f8 <EXTI_GetITStatus>:
     5f8:	400107b7          	lui	a5,0x40010
     5fc:	4007a703          	lw	a4,1024(a5) # 40010400 <_eusrstack+0x20000400>
     600:	8f69                	and	a4,a4,a0
     602:	4147a783          	lw	a5,1044(a5)
     606:	8fe9                	and	a5,a5,a0
     608:	c781                	beqz	a5,610 <EXTI_GetITStatus+0x18>
     60a:	e709                	bnez	a4,614 <EXTI_GetITStatus+0x1c>
     60c:	4501                	li	a0,0
     60e:	8082                	ret
     610:	4501                	li	a0,0
     612:	8082                	ret
     614:	4505                	li	a0,1
     616:	8082                	ret

00000618 <EXTI_ClearITPendingBit>:
     618:	400107b7          	lui	a5,0x40010
     61c:	40a7aa23          	sw	a0,1044(a5) # 40010414 <_eusrstack+0x20000414>
     620:	8082                	ret

00000622 <GPIO_Init>:
     622:	459c                	lw	a5,8(a1)
     624:	00f7f893          	andi	a7,a5,15
     628:	8bc1                	andi	a5,a5,16
     62a:	c781                	beqz	a5,632 <GPIO_Init+0x10>
     62c:	41dc                	lw	a5,4(a1)
     62e:	00f8e8b3          	or	a7,a7,a5
     632:	0005c783          	lbu	a5,0(a1)
     636:	cfa1                	beqz	a5,68e <GPIO_Init+0x6c>
     638:	00052803          	lw	a6,0(a0)
     63c:	4701                	li	a4,0
     63e:	a019                	j	644 <GPIO_Init+0x22>
     640:	c95c                	sw	a5,20(a0)
     642:	0705                	addi	a4,a4,1
     644:	479d                	li	a5,7
     646:	04e7e263          	bltu	a5,a4,68a <GPIO_Init+0x68>
     64a:	4785                	li	a5,1
     64c:	00e797b3          	sll	a5,a5,a4
     650:	0005d683          	lhu	a3,0(a1)
     654:	8efd                	and	a3,a3,a5
     656:	fed796e3          	bne	a5,a3,642 <GPIO_Init+0x20>
     65a:	00271613          	slli	a2,a4,0x2
     65e:	46bd                	li	a3,15
     660:	00c696b3          	sll	a3,a3,a2
     664:	fff6c693          	not	a3,a3
     668:	0106f833          	and	a6,a3,a6
     66c:	00c89633          	sll	a2,a7,a2
     670:	01066833          	or	a6,a2,a6
     674:	4594                	lw	a3,8(a1)
     676:	02800613          	li	a2,40
     67a:	fcc683e3          	beq	a3,a2,640 <GPIO_Init+0x1e>
     67e:	04800613          	li	a2,72
     682:	fcc690e3          	bne	a3,a2,642 <GPIO_Init+0x20>
     686:	c91c                	sw	a5,16(a0)
     688:	bf6d                	j	642 <GPIO_Init+0x20>
     68a:	01052023          	sw	a6,0(a0)
     68e:	0005d703          	lhu	a4,0(a1)
     692:	0ff00793          	li	a5,255
     696:	06e7f163          	bgeu	a5,a4,6f8 <GPIO_Init+0xd6>
     69a:	00452803          	lw	a6,4(a0)
     69e:	4701                	li	a4,0
     6a0:	a021                	j	6a8 <GPIO_Init+0x86>
     6a2:	c95c                	sw	a5,20(a0)
     6a4:	a089                	j	6e6 <GPIO_Init+0xc4>
     6a6:	0705                	addi	a4,a4,1
     6a8:	479d                	li	a5,7
     6aa:	04e7e563          	bltu	a5,a4,6f4 <GPIO_Init+0xd2>
     6ae:	00870613          	addi	a2,a4,8
     6b2:	4785                	li	a5,1
     6b4:	00c797b3          	sll	a5,a5,a2
     6b8:	0005d683          	lhu	a3,0(a1)
     6bc:	8efd                	and	a3,a3,a5
     6be:	fed794e3          	bne	a5,a3,6a6 <GPIO_Init+0x84>
     6c2:	00271613          	slli	a2,a4,0x2
     6c6:	46bd                	li	a3,15
     6c8:	00c696b3          	sll	a3,a3,a2
     6cc:	fff6c693          	not	a3,a3
     6d0:	0106f833          	and	a6,a3,a6
     6d4:	00c89633          	sll	a2,a7,a2
     6d8:	01066833          	or	a6,a2,a6
     6dc:	4590                	lw	a2,8(a1)
     6de:	02800693          	li	a3,40
     6e2:	fcd600e3          	beq	a2,a3,6a2 <GPIO_Init+0x80>
     6e6:	4590                	lw	a2,8(a1)
     6e8:	04800693          	li	a3,72
     6ec:	fad61de3          	bne	a2,a3,6a6 <GPIO_Init+0x84>
     6f0:	c91c                	sw	a5,16(a0)
     6f2:	bf55                	j	6a6 <GPIO_Init+0x84>
     6f4:	01052223          	sw	a6,4(a0)
     6f8:	8082                	ret

000006fa <GPIO_ReadInputDataBit>:
     6fa:	451c                	lw	a5,8(a0)
     6fc:	8dfd                	and	a1,a1,a5
     6fe:	c199                	beqz	a1,704 <GPIO_ReadInputDataBit+0xa>
     700:	4505                	li	a0,1
     702:	8082                	ret
     704:	4501                	li	a0,0
     706:	8082                	ret

00000708 <GPIO_SetBits>:
     708:	c90c                	sw	a1,16(a0)
     70a:	8082                	ret

0000070c <GPIO_ResetBits>:
     70c:	c94c                	sw	a1,20(a0)
     70e:	8082                	ret

00000710 <GPIO_WriteBit>:
     710:	c219                	beqz	a2,716 <GPIO_WriteBit+0x6>
     712:	c90c                	sw	a1,16(a0)
     714:	8082                	ret
     716:	c94c                	sw	a1,20(a0)
     718:	8082                	ret

0000071a <GPIO_EXTILineConfig>:
     71a:	0035f793          	andi	a5,a1,3
     71e:	078a                	slli	a5,a5,0x2
     720:	473d                	li	a4,15
     722:	00f71733          	sll	a4,a4,a5
     726:	0fc5f693          	andi	a3,a1,252
     72a:	400105b7          	lui	a1,0x40010
     72e:	95b6                	add	a1,a1,a3
     730:	4594                	lw	a3,8(a1)
     732:	fff74713          	not	a4,a4
     736:	8f75                	and	a4,a4,a3
     738:	c598                	sw	a4,8(a1)
     73a:	4598                	lw	a4,8(a1)
     73c:	00f51533          	sll	a0,a0,a5
     740:	8d59                	or	a0,a0,a4
     742:	c588                	sw	a0,8(a1)
     744:	8082                	ret

00000746 <RCC_GetClocksFreq>:
     746:	400217b7          	lui	a5,0x40021
     74a:	43dc                	lw	a5,4(a5)
     74c:	8bb1                	andi	a5,a5,12
     74e:	4711                	li	a4,4
     750:	08e78163          	beq	a5,a4,7d2 <RCC_GetClocksFreq+0x8c>
     754:	4721                	li	a4,8
     756:	08e78463          	beq	a5,a4,7de <RCC_GetClocksFreq+0x98>
     75a:	c799                	beqz	a5,768 <RCC_GetClocksFreq+0x22>
     75c:	007a17b7          	lui	a5,0x7a1
     760:	20078793          	addi	a5,a5,512 # 7a1200 <__rt_init_end+0x79947c>
     764:	c11c                	sw	a5,0(a0)
     766:	a031                	j	772 <RCC_GetClocksFreq+0x2c>
     768:	007a17b7          	lui	a5,0x7a1
     76c:	20078793          	addi	a5,a5,512 # 7a1200 <__rt_init_end+0x79947c>
     770:	c11c                	sw	a5,0(a0)
     772:	40021637          	lui	a2,0x40021
     776:	425c                	lw	a5,4(a2)
     778:	8391                	srli	a5,a5,0x4
     77a:	8bbd                	andi	a5,a5,15
     77c:	20000697          	auipc	a3,0x20000
     780:	88468693          	addi	a3,a3,-1916 # 20000000 <_data_vma>
     784:	97b6                	add	a5,a5,a3
     786:	0007c703          	lbu	a4,0(a5)
     78a:	411c                	lw	a5,0(a0)
     78c:	00e7d7b3          	srl	a5,a5,a4
     790:	c15c                	sw	a5,4(a0)
     792:	4258                	lw	a4,4(a2)
     794:	8321                	srli	a4,a4,0x8
     796:	8b1d                	andi	a4,a4,7
     798:	9736                	add	a4,a4,a3
     79a:	00074703          	lbu	a4,0(a4)
     79e:	00e7d733          	srl	a4,a5,a4
     7a2:	c518                	sw	a4,8(a0)
     7a4:	4258                	lw	a4,4(a2)
     7a6:	832d                	srli	a4,a4,0xb
     7a8:	8b1d                	andi	a4,a4,7
     7aa:	96ba                	add	a3,a3,a4
     7ac:	0006c703          	lbu	a4,0(a3)
     7b0:	00e7d7b3          	srl	a5,a5,a4
     7b4:	c55c                	sw	a5,12(a0)
     7b6:	4258                	lw	a4,4(a2)
     7b8:	8339                	srli	a4,a4,0xe
     7ba:	8b0d                	andi	a4,a4,3
     7bc:	80418693          	addi	a3,gp,-2044 # 200001c4 <ADCPrescTable>
     7c0:	9736                	add	a4,a4,a3
     7c2:	00074703          	lbu	a4,0(a4)
     7c6:	0ff77713          	andi	a4,a4,255
     7ca:	02e7d7b3          	divu	a5,a5,a4
     7ce:	c91c                	sw	a5,16(a0)
     7d0:	8082                	ret
     7d2:	007a17b7          	lui	a5,0x7a1
     7d6:	20078793          	addi	a5,a5,512 # 7a1200 <__rt_init_end+0x79947c>
     7da:	c11c                	sw	a5,0(a0)
     7dc:	bf59                	j	772 <RCC_GetClocksFreq+0x2c>
     7de:	40021737          	lui	a4,0x40021
     7e2:	435c                	lw	a5,4(a4)
     7e4:	4358                	lw	a4,4(a4)
     7e6:	66c1                	lui	a3,0x10
     7e8:	8f75                	and	a4,a4,a3
     7ea:	83c9                	srli	a5,a5,0x12
     7ec:	8bbd                	andi	a5,a5,15
     7ee:	0789                	addi	a5,a5,2
     7f0:	1ffff6b7          	lui	a3,0x1ffff
     7f4:	70c6a683          	lw	a3,1804(a3) # 1ffff70c <__rt_init_end+0x1fff7988>
     7f8:	01169613          	slli	a2,a3,0x11
     7fc:	02064563          	bltz	a2,826 <__stack_size+0x26>
     800:	46c5                	li	a3,17
     802:	04d78663          	beq	a5,a3,84e <__stack_size+0x4e>
     806:	4681                	li	a3,0
     808:	e32d                	bnez	a4,86a <__stack_size+0x6a>
     80a:	40024737          	lui	a4,0x40024
     80e:	80072703          	lw	a4,-2048(a4) # 40023800 <_eusrstack+0x20013800>
     812:	8b41                	andi	a4,a4,16
     814:	c339                	beqz	a4,85a <__stack_size+0x5a>
     816:	007a1737          	lui	a4,0x7a1
     81a:	20070713          	addi	a4,a4,512 # 7a1200 <__rt_init_end+0x79947c>
     81e:	02e787b3          	mul	a5,a5,a4
     822:	c11c                	sw	a5,0(a0)
     824:	a871                	j	8c0 <__stack_size+0xc0>
     826:	4689                	li	a3,2
     828:	00d78e63          	beq	a5,a3,844 <__stack_size+0x44>
     82c:	46bd                	li	a3,15
     82e:	00d78d63          	beq	a5,a3,848 <__stack_size+0x48>
     832:	46c1                	li	a3,16
     834:	02d78063          	beq	a5,a3,854 <__stack_size+0x54>
     838:	4681                	li	a3,0
     83a:	4645                	li	a2,17
     83c:	fcc796e3          	bne	a5,a2,808 <__stack_size+0x8>
     840:	47c1                	li	a5,16
     842:	b7d9                	j	808 <__stack_size+0x8>
     844:	47c9                	li	a5,18
     846:	b7f5                	j	832 <__stack_size+0x32>
     848:	4685                	li	a3,1
     84a:	47b5                	li	a5,13
     84c:	b7fd                	j	83a <__stack_size+0x3a>
     84e:	4681                	li	a3,0
     850:	47c9                	li	a5,18
     852:	bf5d                	j	808 <__stack_size+0x8>
     854:	4681                	li	a3,0
     856:	47bd                	li	a5,15
     858:	bf45                	j	808 <__stack_size+0x8>
     85a:	003d1737          	lui	a4,0x3d1
     85e:	90070713          	addi	a4,a4,-1792 # 3d0900 <__rt_init_end+0x3c8b7c>
     862:	02e787b3          	mul	a5,a5,a4
     866:	c11c                	sw	a5,0(a0)
     868:	a8a1                	j	8c0 <__stack_size+0xc0>
     86a:	40021737          	lui	a4,0x40021
     86e:	5758                	lw	a4,44(a4)
     870:	00f71613          	slli	a2,a4,0xf
     874:	08065763          	bgez	a2,902 <__stack_size+0x102>
     878:	400215b7          	lui	a1,0x40021
     87c:	55d8                	lw	a4,44(a1)
     87e:	8311                	srli	a4,a4,0x4
     880:	8b3d                	andi	a4,a4,15
     882:	00170613          	addi	a2,a4,1 # 40021001 <_eusrstack+0x20011001>
     886:	007a1737          	lui	a4,0x7a1
     88a:	20070713          	addi	a4,a4,512 # 7a1200 <__rt_init_end+0x79947c>
     88e:	02c75733          	divu	a4,a4,a2
     892:	c118                	sw	a4,0(a0)
     894:	55d0                	lw	a2,44(a1)
     896:	8221                	srli	a2,a2,0x8
     898:	8a3d                	andi	a2,a2,15
     89a:	ea0d                	bnez	a2,8cc <__stack_size+0xcc>
     89c:	00271613          	slli	a2,a4,0x2
     8a0:	9732                	add	a4,a4,a2
     8a2:	8305                	srli	a4,a4,0x1
     8a4:	c118                	sw	a4,0(a0)
     8a6:	4110                	lw	a2,0(a0)
     8a8:	40021737          	lui	a4,0x40021
     8ac:	5758                	lw	a4,44(a4)
     8ae:	8b3d                	andi	a4,a4,15
     8b0:	0705                	addi	a4,a4,1
     8b2:	02e65733          	divu	a4,a2,a4
     8b6:	c118                	sw	a4,0(a0)
     8b8:	4118                	lw	a4,0(a0)
     8ba:	02f707b3          	mul	a5,a4,a5
     8be:	c11c                	sw	a5,0(a0)
     8c0:	ea0689e3          	beqz	a3,772 <RCC_GetClocksFreq+0x2c>
     8c4:	411c                	lw	a5,0(a0)
     8c6:	8385                	srli	a5,a5,0x1
     8c8:	c11c                	sw	a5,0(a0)
     8ca:	b565                	j	772 <RCC_GetClocksFreq+0x2c>
     8cc:	4585                	li	a1,1
     8ce:	00b60a63          	beq	a2,a1,8e2 <__stack_size+0xe2>
     8d2:	45bd                	li	a1,15
     8d4:	02b60063          	beq	a2,a1,8f4 <__stack_size+0xf4>
     8d8:	0609                	addi	a2,a2,2
     8da:	02c70733          	mul	a4,a4,a2
     8de:	c118                	sw	a4,0(a0)
     8e0:	b7d9                	j	8a6 <__stack_size+0xa6>
     8e2:	00171593          	slli	a1,a4,0x1
     8e6:	95ba                	add	a1,a1,a4
     8e8:	00359613          	slli	a2,a1,0x3
     8ec:	9732                	add	a4,a4,a2
     8ee:	8305                	srli	a4,a4,0x1
     8f0:	c118                	sw	a4,0(a0)
     8f2:	bf55                	j	8a6 <__stack_size+0xa6>
     8f4:	00271613          	slli	a2,a4,0x2
     8f8:	9732                	add	a4,a4,a2
     8fa:	00271613          	slli	a2,a4,0x2
     8fe:	c110                	sw	a2,0(a0)
     900:	b75d                	j	8a6 <__stack_size+0xa6>
     902:	40021737          	lui	a4,0x40021
     906:	5758                	lw	a4,44(a4)
     908:	8b3d                	andi	a4,a4,15
     90a:	00170613          	addi	a2,a4,1 # 40021001 <_eusrstack+0x20011001>
     90e:	007a1737          	lui	a4,0x7a1
     912:	20070713          	addi	a4,a4,512 # 7a1200 <__rt_init_end+0x79947c>
     916:	02c75733          	divu	a4,a4,a2
     91a:	c118                	sw	a4,0(a0)
     91c:	bf71                	j	8b8 <__stack_size+0xb8>

0000091e <RCC_APB2PeriphClockCmd>:
     91e:	c599                	beqz	a1,92c <RCC_APB2PeriphClockCmd+0xe>
     920:	40021737          	lui	a4,0x40021
     924:	4f1c                	lw	a5,24(a4)
     926:	8d5d                	or	a0,a0,a5
     928:	cf08                	sw	a0,24(a4)
     92a:	8082                	ret
     92c:	40021737          	lui	a4,0x40021
     930:	4f1c                	lw	a5,24(a4)
     932:	fff54513          	not	a0,a0
     936:	8d7d                	and	a0,a0,a5
     938:	cf08                	sw	a0,24(a4)
     93a:	8082                	ret

0000093c <USART_Init>:
     93c:	7179                	addi	sp,sp,-48
     93e:	d606                	sw	ra,44(sp)
     940:	d422                	sw	s0,40(sp)
     942:	d226                	sw	s1,36(sp)
     944:	842a                	mv	s0,a0
     946:	84ae                	mv	s1,a1
     948:	01055683          	lhu	a3,16(a0)
     94c:	0065d703          	lhu	a4,6(a1) # 40021006 <_eusrstack+0x20011006>
     950:	77f5                	lui	a5,0xffffd
     952:	17fd                	addi	a5,a5,-1
     954:	8ff5                	and	a5,a5,a3
     956:	8fd9                	or	a5,a5,a4
     958:	00f51823          	sh	a5,16(a0)
     95c:	00c55603          	lhu	a2,12(a0)
     960:	0045d683          	lhu	a3,4(a1)
     964:	0085d703          	lhu	a4,8(a1)
     968:	00a5d783          	lhu	a5,10(a1)
     96c:	8ed9                	or	a3,a3,a4
     96e:	8fd5                	or	a5,a5,a3
     970:	777d                	lui	a4,0xfffff
     972:	9f370713          	addi	a4,a4,-1549 # ffffe9f3 <_eusrstack+0xdffee9f3>
     976:	8f71                	and	a4,a4,a2
     978:	8fd9                	or	a5,a5,a4
     97a:	00f51623          	sh	a5,12(a0)
     97e:	01455783          	lhu	a5,20(a0)
     982:	07c2                	slli	a5,a5,0x10
     984:	83c1                	srli	a5,a5,0x10
     986:	00c5d703          	lhu	a4,12(a1)
     98a:	cff7f793          	andi	a5,a5,-769
     98e:	8fd9                	or	a5,a5,a4
     990:	00f51a23          	sh	a5,20(a0)
     994:	0068                	addi	a0,sp,12
     996:	3b45                	jal	746 <RCC_GetClocksFreq>
     998:	400147b7          	lui	a5,0x40014
     99c:	80078793          	addi	a5,a5,-2048 # 40013800 <_eusrstack+0x20003800>
     9a0:	04f40a63          	beq	s0,a5,9f4 <USART_Init+0xb8>
     9a4:	46d2                	lw	a3,20(sp)
     9a6:	00169713          	slli	a4,a3,0x1
     9aa:	9736                	add	a4,a4,a3
     9ac:	00371793          	slli	a5,a4,0x3
     9b0:	97b6                	add	a5,a5,a3
     9b2:	4098                	lw	a4,0(s1)
     9b4:	070a                	slli	a4,a4,0x2
     9b6:	02e7d7b3          	divu	a5,a5,a4
     9ba:	06400693          	li	a3,100
     9be:	02d7d733          	divu	a4,a5,a3
     9c2:	00471593          	slli	a1,a4,0x4
     9c6:	10000637          	lui	a2,0x10000
     9ca:	167d                	addi	a2,a2,-1
     9cc:	8f71                	and	a4,a4,a2
     9ce:	02d70733          	mul	a4,a4,a3
     9d2:	8f99                	sub	a5,a5,a4
     9d4:	0792                	slli	a5,a5,0x4
     9d6:	03278793          	addi	a5,a5,50
     9da:	02d7d7b3          	divu	a5,a5,a3
     9de:	8bbd                	andi	a5,a5,15
     9e0:	8fcd                	or	a5,a5,a1
     9e2:	07c2                	slli	a5,a5,0x10
     9e4:	83c1                	srli	a5,a5,0x10
     9e6:	00f41423          	sh	a5,8(s0)
     9ea:	50b2                	lw	ra,44(sp)
     9ec:	5422                	lw	s0,40(sp)
     9ee:	5492                	lw	s1,36(sp)
     9f0:	6145                	addi	sp,sp,48
     9f2:	8082                	ret
     9f4:	46e2                	lw	a3,24(sp)
     9f6:	bf45                	j	9a6 <USART_Init+0x6a>

000009f8 <USART_Cmd>:
     9f8:	c981                	beqz	a1,a08 <USART_Cmd+0x10>
     9fa:	00c55783          	lhu	a5,12(a0)
     9fe:	6709                	lui	a4,0x2
     a00:	8fd9                	or	a5,a5,a4
     a02:	00f51623          	sh	a5,12(a0)
     a06:	8082                	ret
     a08:	00c55703          	lhu	a4,12(a0)
     a0c:	77f9                	lui	a5,0xffffe
     a0e:	17fd                	addi	a5,a5,-1
     a10:	8ff9                	and	a5,a5,a4
     a12:	00f51623          	sh	a5,12(a0)
     a16:	8082                	ret

00000a18 <USART_ITConfig>:
     a18:	0ff5f793          	andi	a5,a1,255
     a1c:	8395                	srli	a5,a5,0x5
     a1e:	4705                	li	a4,1
     a20:	00b715b3          	sll	a1,a4,a1
     a24:	00e78b63          	beq	a5,a4,a3a <USART_ITConfig+0x22>
     a28:	4709                	li	a4,2
     a2a:	00e78a63          	beq	a5,a4,a3e <USART_ITConfig+0x26>
     a2e:	0551                	addi	a0,a0,20
     a30:	ca09                	beqz	a2,a42 <USART_ITConfig+0x2a>
     a32:	411c                	lw	a5,0(a0)
     a34:	8ddd                	or	a1,a1,a5
     a36:	c10c                	sw	a1,0(a0)
     a38:	8082                	ret
     a3a:	0531                	addi	a0,a0,12
     a3c:	bfd5                	j	a30 <USART_ITConfig+0x18>
     a3e:	0541                	addi	a0,a0,16
     a40:	bfc5                	j	a30 <USART_ITConfig+0x18>
     a42:	411c                	lw	a5,0(a0)
     a44:	fff5c593          	not	a1,a1
     a48:	8dfd                	and	a1,a1,a5
     a4a:	c10c                	sw	a1,0(a0)
     a4c:	8082                	ret

00000a4e <USART_SendData>:
     a4e:	1ff5f593          	andi	a1,a1,511
     a52:	00b51223          	sh	a1,4(a0)
     a56:	8082                	ret

00000a58 <USART_GetFlagStatus>:
     a58:	00055783          	lhu	a5,0(a0)
     a5c:	8dfd                	and	a1,a1,a5
     a5e:	c199                	beqz	a1,a64 <USART_GetFlagStatus+0xc>
     a60:	4505                	li	a0,1
     a62:	8082                	ret
     a64:	4501                	li	a0,0
     a66:	8082                	ret

00000a68 <USART_GetITStatus>:
     a68:	0ff5f793          	andi	a5,a1,255
     a6c:	8395                	srli	a5,a5,0x5
     a6e:	4685                	li	a3,1
     a70:	00b69733          	sll	a4,a3,a1
     a74:	02d78363          	beq	a5,a3,a9a <USART_GetITStatus+0x32>
     a78:	4689                	li	a3,2
     a7a:	02d78463          	beq	a5,a3,aa2 <USART_GetITStatus+0x3a>
     a7e:	01455783          	lhu	a5,20(a0)
     a82:	8f7d                	and	a4,a4,a5
     a84:	81a1                	srli	a1,a1,0x8
     a86:	4785                	li	a5,1
     a88:	00b795b3          	sll	a1,a5,a1
     a8c:	00055783          	lhu	a5,0(a0)
     a90:	8dfd                	and	a1,a1,a5
     a92:	cf01                	beqz	a4,aaa <USART_GetITStatus+0x42>
     a94:	ed89                	bnez	a1,aae <USART_GetITStatus+0x46>
     a96:	4501                	li	a0,0
     a98:	8082                	ret
     a9a:	00c55783          	lhu	a5,12(a0)
     a9e:	8f7d                	and	a4,a4,a5
     aa0:	b7d5                	j	a84 <USART_GetITStatus+0x1c>
     aa2:	01055783          	lhu	a5,16(a0)
     aa6:	8f7d                	and	a4,a4,a5
     aa8:	bff1                	j	a84 <USART_GetITStatus+0x1c>
     aaa:	4501                	li	a0,0
     aac:	8082                	ret
     aae:	4505                	li	a0,1
     ab0:	8082                	ret

00000ab2 <USART_ClearITPendingBit>:
     ab2:	81a1                	srli	a1,a1,0x8
     ab4:	4785                	li	a5,1
     ab6:	00b797b3          	sll	a5,a5,a1
     aba:	07c2                	slli	a5,a5,0x10
     abc:	83c1                	srli	a5,a5,0x10
     abe:	fff7c793          	not	a5,a5
     ac2:	07c2                	slli	a5,a5,0x10
     ac4:	83c1                	srli	a5,a5,0x10
     ac6:	00f51023          	sh	a5,0(a0)
     aca:	8082                	ret

00000acc <ADC1_2_IRQHandler>:
     acc:	a001                	j	acc <ADC1_2_IRQHandler>

00000ace <handle_reset>:
     ace:	34129073          	csrw	mepc,t0
     ad2:	20000197          	auipc	gp,0x20000
     ad6:	eee18193          	addi	gp,gp,-274 # 200009c0 <__global_pointer$>
     ada:	2000f117          	auipc	sp,0x2000f
     ade:	52610113          	addi	sp,sp,1318 # 20010000 <_eusrstack>
     ae2:	00007517          	auipc	a0,0x7
     ae6:	2a250513          	addi	a0,a0,674 # 7d84 <__rt_init_end>
     aea:	1ffff597          	auipc	a1,0x1ffff
     aee:	51658593          	addi	a1,a1,1302 # 20000000 <_data_vma>
     af2:	81818613          	addi	a2,gp,-2024 # 200001d8 <_edata>
     af6:	00c5fa63          	bgeu	a1,a2,b0a <handle_reset+0x3c>
     afa:	00052283          	lw	t0,0(a0)
     afe:	0055a023          	sw	t0,0(a1)
     b02:	0511                	addi	a0,a0,4
     b04:	0591                	addi	a1,a1,4
     b06:	fec5eae3          	bltu	a1,a2,afa <handle_reset+0x2c>
     b0a:	81818513          	addi	a0,gp,-2024 # 200001d8 <_edata>
     b0e:	20001597          	auipc	a1,0x20001
     b12:	c6a58593          	addi	a1,a1,-918 # 20001778 <_ebss>
     b16:	00b57763          	bgeu	a0,a1,b24 <handle_reset+0x56>
     b1a:	00052023          	sw	zero,0(a0)
     b1e:	0511                	addi	a0,a0,4
     b20:	feb56de3          	bltu	a0,a1,b1a <handle_reset+0x4c>
     b24:	42fd                	li	t0,31
     b26:	bc029073          	csrw	0xbc0,t0
     b2a:	42fd                	li	t0,31
     b2c:	80429073          	csrw	0x804,t0
     b30:	000082b7          	lui	t0,0x8
     b34:	80028293          	addi	t0,t0,-2048 # 7800 <__fsym___cmd_ps_name+0x15c>
     b38:	30029073          	csrw	mstatus,t0
     b3c:	fffff297          	auipc	t0,0xfffff
     b40:	4c828293          	addi	t0,t0,1224 # 4 <_einit>
     b44:	0032e293          	ori	t0,t0,3
     b48:	30529073          	csrw	mtvec,t0
     b4c:	238000ef          	jal	ra,d84 <SystemInit>
     b50:	00003297          	auipc	t0,0x3
     b54:	c2e28293          	addi	t0,t0,-978 # 377e <entry>
     b58:	34129073          	csrw	mepc,t0
     b5c:	30200073          	mret

00000b60 <NMI_Handler>:
     b60:	715d                	addi	sp,sp,-80
     b62:	e682                	fsw	ft0,76(sp)
     b64:	e486                	fsw	ft1,72(sp)
     b66:	e28a                	fsw	ft2,68(sp)
     b68:	e08e                	fsw	ft3,64(sp)
     b6a:	fe12                	fsw	ft4,60(sp)
     b6c:	fc16                	fsw	ft5,56(sp)
     b6e:	fa1a                	fsw	ft6,52(sp)
     b70:	f81e                	fsw	ft7,48(sp)
     b72:	f62a                	fsw	fa0,44(sp)
     b74:	f42e                	fsw	fa1,40(sp)
     b76:	f232                	fsw	fa2,36(sp)
     b78:	f036                	fsw	fa3,32(sp)
     b7a:	ee3a                	fsw	fa4,28(sp)
     b7c:	ec3e                	fsw	fa5,24(sp)
     b7e:	ea42                	fsw	fa6,20(sp)
     b80:	e846                	fsw	fa7,16(sp)
     b82:	e672                	fsw	ft8,12(sp)
     b84:	e476                	fsw	ft9,8(sp)
     b86:	e27a                	fsw	ft10,4(sp)
     b88:	e07e                	fsw	ft11,0(sp)
     b8a:	34011173          	csrrw	sp,mscratch,sp
     b8e:	07e030ef          	jal	ra,3c0c <rt_interrupt_enter>
     b92:	00006517          	auipc	a0,0x6
     b96:	9da50513          	addi	a0,a0,-1574 # 656c <__fsym___cmd_led_name+0x18>
     b9a:	750030ef          	jal	ra,42ea <rt_kprintf>
     b9e:	0a4030ef          	jal	ra,3c42 <rt_interrupt_leave>
     ba2:	34011173          	csrrw	sp,mscratch,sp
     ba6:	6036                	flw	ft0,76(sp)
     ba8:	60a6                	flw	ft1,72(sp)
     baa:	6116                	flw	ft2,68(sp)
     bac:	6186                	flw	ft3,64(sp)
     bae:	7272                	flw	ft4,60(sp)
     bb0:	72e2                	flw	ft5,56(sp)
     bb2:	7352                	flw	ft6,52(sp)
     bb4:	73c2                	flw	ft7,48(sp)
     bb6:	7532                	flw	fa0,44(sp)
     bb8:	75a2                	flw	fa1,40(sp)
     bba:	7612                	flw	fa2,36(sp)
     bbc:	7682                	flw	fa3,32(sp)
     bbe:	6772                	flw	fa4,28(sp)
     bc0:	67e2                	flw	fa5,24(sp)
     bc2:	6852                	flw	fa6,20(sp)
     bc4:	68c2                	flw	fa7,16(sp)
     bc6:	6e32                	flw	ft8,12(sp)
     bc8:	6ea2                	flw	ft9,8(sp)
     bca:	6f12                	flw	ft10,4(sp)
     bcc:	6f82                	flw	ft11,0(sp)
     bce:	6161                	addi	sp,sp,80
     bd0:	30200073          	mret

00000bd4 <HardFault_Handler>:
     bd4:	715d                	addi	sp,sp,-80
     bd6:	e682                	fsw	ft0,76(sp)
     bd8:	e486                	fsw	ft1,72(sp)
     bda:	e28a                	fsw	ft2,68(sp)
     bdc:	e08e                	fsw	ft3,64(sp)
     bde:	fe12                	fsw	ft4,60(sp)
     be0:	fc16                	fsw	ft5,56(sp)
     be2:	fa1a                	fsw	ft6,52(sp)
     be4:	f81e                	fsw	ft7,48(sp)
     be6:	f62a                	fsw	fa0,44(sp)
     be8:	f42e                	fsw	fa1,40(sp)
     bea:	f232                	fsw	fa2,36(sp)
     bec:	f036                	fsw	fa3,32(sp)
     bee:	ee3a                	fsw	fa4,28(sp)
     bf0:	ec3e                	fsw	fa5,24(sp)
     bf2:	ea42                	fsw	fa6,20(sp)
     bf4:	e846                	fsw	fa7,16(sp)
     bf6:	e672                	fsw	ft8,12(sp)
     bf8:	e476                	fsw	ft9,8(sp)
     bfa:	e27a                	fsw	ft10,4(sp)
     bfc:	e07e                	fsw	ft11,0(sp)
     bfe:	34011173          	csrrw	sp,mscratch,sp
     c02:	00a030ef          	jal	ra,3c0c <rt_interrupt_enter>
     c06:	00006517          	auipc	a0,0x6
     c0a:	95a50513          	addi	a0,a0,-1702 # 6560 <__fsym___cmd_led_name+0xc>
     c0e:	6dc030ef          	jal	ra,42ea <rt_kprintf>
     c12:	030030ef          	jal	ra,3c42 <rt_interrupt_leave>
     c16:	34011173          	csrrw	sp,mscratch,sp
     c1a:	6036                	flw	ft0,76(sp)
     c1c:	60a6                	flw	ft1,72(sp)
     c1e:	6116                	flw	ft2,68(sp)
     c20:	6186                	flw	ft3,64(sp)
     c22:	7272                	flw	ft4,60(sp)
     c24:	72e2                	flw	ft5,56(sp)
     c26:	7352                	flw	ft6,52(sp)
     c28:	73c2                	flw	ft7,48(sp)
     c2a:	7532                	flw	fa0,44(sp)
     c2c:	75a2                	flw	fa1,40(sp)
     c2e:	7612                	flw	fa2,36(sp)
     c30:	7682                	flw	fa3,32(sp)
     c32:	6772                	flw	fa4,28(sp)
     c34:	67e2                	flw	fa5,24(sp)
     c36:	6852                	flw	fa6,20(sp)
     c38:	68c2                	flw	fa7,16(sp)
     c3a:	6e32                	flw	ft8,12(sp)
     c3c:	6ea2                	flw	ft9,8(sp)
     c3e:	6f12                	flw	ft10,4(sp)
     c40:	6f82                	flw	ft11,0(sp)
     c42:	6161                	addi	sp,sp,80
     c44:	30200073          	mret

00000c48 <main>:
     c48:	1141                	addi	sp,sp,-16
     c4a:	c606                	sw	ra,12(sp)
     c4c:	c422                	sw	s0,8(sp)
     c4e:	00006517          	auipc	a0,0x6
     c52:	92e50513          	addi	a0,a0,-1746 # 657c <__fsym___cmd_led_name+0x28>
     c56:	694030ef          	jal	ra,42ea <rt_kprintf>
     c5a:	2259                	jal	de0 <SystemCoreClockUpdate>
     c5c:	80818793          	addi	a5,gp,-2040 # 200001c8 <SystemCoreClock>
     c60:	438c                	lw	a1,0(a5)
     c62:	00006517          	auipc	a0,0x6
     c66:	92e50513          	addi	a0,a0,-1746 # 6590 <__fsym___cmd_led_name+0x3c>
     c6a:	680030ef          	jal	ra,42ea <rt_kprintf>
     c6e:	38f9                	jal	54c <DBGMCU_GetCHIPID>
     c70:	85aa                	mv	a1,a0
     c72:	00006517          	auipc	a0,0x6
     c76:	92e50513          	addi	a0,a0,-1746 # 65a0 <__fsym___cmd_led_name+0x4c>
     c7a:	670030ef          	jal	ra,42ea <rt_kprintf>
     c7e:	00006517          	auipc	a0,0x6
     c82:	93250513          	addi	a0,a0,-1742 # 65b0 <__fsym___cmd_led_name+0x5c>
     c86:	664030ef          	jal	ra,42ea <rt_kprintf>
     c8a:	803ff0ef          	jal	ra,48c <LED1_BLINK_INIT>
     c8e:	4585                	li	a1,1
     c90:	40011537          	lui	a0,0x40011
     c94:	80050513          	addi	a0,a0,-2048 # 40010800 <_eusrstack+0x20000800>
     c98:	3c95                	jal	70c <GPIO_ResetBits>
     c9a:	4585                	li	a1,1
     c9c:	40011437          	lui	s0,0x40011
     ca0:	80040513          	addi	a0,s0,-2048 # 40010800 <_eusrstack+0x20000800>
     ca4:	3495                	jal	708 <GPIO_SetBits>
     ca6:	1f400513          	li	a0,500
     caa:	198040ef          	jal	ra,4e42 <rt_thread_mdelay>
     cae:	4585                	li	a1,1
     cb0:	80040513          	addi	a0,s0,-2048
     cb4:	3ca1                	jal	70c <GPIO_ResetBits>
     cb6:	1f400513          	li	a0,500
     cba:	188040ef          	jal	ra,4e42 <rt_thread_mdelay>
     cbe:	bff1                	j	c9a <main+0x52>

00000cc0 <SetSysClockTo96_HSE>:
     cc0:	1141                	addi	sp,sp,-16
     cc2:	c602                	sw	zero,12(sp)
     cc4:	c402                	sw	zero,8(sp)
     cc6:	40021737          	lui	a4,0x40021
     cca:	431c                	lw	a5,0(a4)
     ccc:	66c1                	lui	a3,0x10
     cce:	8fd5                	or	a5,a5,a3
     cd0:	c31c                	sw	a5,0(a4)
     cd2:	400217b7          	lui	a5,0x40021
     cd6:	439c                	lw	a5,0(a5)
     cd8:	00020737          	lui	a4,0x20
     cdc:	8ff9                	and	a5,a5,a4
     cde:	c43e                	sw	a5,8(sp)
     ce0:	47b2                	lw	a5,12(sp)
     ce2:	0785                	addi	a5,a5,1
     ce4:	c63e                	sw	a5,12(sp)
     ce6:	47a2                	lw	a5,8(sp)
     ce8:	e789                	bnez	a5,cf2 <SetSysClockTo96_HSE+0x32>
     cea:	4732                	lw	a4,12(sp)
     cec:	6785                	lui	a5,0x1
     cee:	fef712e3          	bne	a4,a5,cd2 <SetSysClockTo96_HSE+0x12>
     cf2:	400217b7          	lui	a5,0x40021
     cf6:	439c                	lw	a5,0(a5)
     cf8:	00e79713          	slli	a4,a5,0xe
     cfc:	00075a63          	bgez	a4,d10 <SetSysClockTo96_HSE+0x50>
     d00:	4785                	li	a5,1
     d02:	c43e                	sw	a5,8(sp)
     d04:	4722                	lw	a4,8(sp)
     d06:	4785                	li	a5,1
     d08:	00f70663          	beq	a4,a5,d14 <SetSysClockTo96_HSE+0x54>
     d0c:	0141                	addi	sp,sp,16
     d0e:	8082                	ret
     d10:	c402                	sw	zero,8(sp)
     d12:	bfcd                	j	d04 <SetSysClockTo96_HSE+0x44>
     d14:	400217b7          	lui	a5,0x40021
     d18:	43d8                	lw	a4,4(a5)
     d1a:	c3d8                	sw	a4,4(a5)
     d1c:	43d8                	lw	a4,4(a5)
     d1e:	c3d8                	sw	a4,4(a5)
     d20:	43d8                	lw	a4,4(a5)
     d22:	40076713          	ori	a4,a4,1024
     d26:	c3d8                	sw	a4,4(a5)
     d28:	43d8                	lw	a4,4(a5)
     d2a:	ffc106b7          	lui	a3,0xffc10
     d2e:	16fd                	addi	a3,a3,-1
     d30:	8f75                	and	a4,a4,a3
     d32:	c3d8                	sw	a4,4(a5)
     d34:	43d8                	lw	a4,4(a5)
     d36:	002906b7          	lui	a3,0x290
     d3a:	8f55                	or	a4,a4,a3
     d3c:	c3d8                	sw	a4,4(a5)
     d3e:	4398                	lw	a4,0(a5)
     d40:	010006b7          	lui	a3,0x1000
     d44:	8f55                	or	a4,a4,a3
     d46:	c398                	sw	a4,0(a5)
     d48:	400217b7          	lui	a5,0x40021
     d4c:	439c                	lw	a5,0(a5)
     d4e:	00679713          	slli	a4,a5,0x6
     d52:	fe075be3          	bgez	a4,d48 <SetSysClockTo96_HSE+0x88>
     d56:	400217b7          	lui	a5,0x40021
     d5a:	43d8                	lw	a4,4(a5)
     d5c:	9b71                	andi	a4,a4,-4
     d5e:	c3d8                	sw	a4,4(a5)
     d60:	43d8                	lw	a4,4(a5)
     d62:	00276713          	ori	a4,a4,2
     d66:	c3d8                	sw	a4,4(a5)
     d68:	400217b7          	lui	a5,0x40021
     d6c:	43dc                	lw	a5,4(a5)
     d6e:	8bb1                	andi	a5,a5,12
     d70:	4721                	li	a4,8
     d72:	fee79be3          	bne	a5,a4,d68 <SetSysClockTo96_HSE+0xa8>
     d76:	bf59                	j	d0c <SetSysClockTo96_HSE+0x4c>

00000d78 <SetSysClock>:
     d78:	1141                	addi	sp,sp,-16
     d7a:	c606                	sw	ra,12(sp)
     d7c:	3791                	jal	cc0 <SetSysClockTo96_HSE>
     d7e:	40b2                	lw	ra,12(sp)
     d80:	0141                	addi	sp,sp,16
     d82:	8082                	ret

00000d84 <SystemInit>:
     d84:	1141                	addi	sp,sp,-16
     d86:	c606                	sw	ra,12(sp)
     d88:	400217b7          	lui	a5,0x40021
     d8c:	4398                	lw	a4,0(a5)
     d8e:	00176713          	ori	a4,a4,1
     d92:	c398                	sw	a4,0(a5)
     d94:	43d8                	lw	a4,4(a5)
     d96:	f0ff06b7          	lui	a3,0xf0ff0
     d9a:	8f75                	and	a4,a4,a3
     d9c:	c3d8                	sw	a4,4(a5)
     d9e:	4398                	lw	a4,0(a5)
     da0:	fef706b7          	lui	a3,0xfef70
     da4:	16fd                	addi	a3,a3,-1
     da6:	8f75                	and	a4,a4,a3
     da8:	c398                	sw	a4,0(a5)
     daa:	4398                	lw	a4,0(a5)
     dac:	fffc06b7          	lui	a3,0xfffc0
     db0:	16fd                	addi	a3,a3,-1
     db2:	8f75                	and	a4,a4,a3
     db4:	c398                	sw	a4,0(a5)
     db6:	43d8                	lw	a4,4(a5)
     db8:	ff0106b7          	lui	a3,0xff010
     dbc:	16fd                	addi	a3,a3,-1
     dbe:	8f75                	and	a4,a4,a3
     dc0:	c3d8                	sw	a4,4(a5)
     dc2:	4398                	lw	a4,0(a5)
     dc4:	ec0006b7          	lui	a3,0xec000
     dc8:	16fd                	addi	a3,a3,-1
     dca:	8f75                	and	a4,a4,a3
     dcc:	c398                	sw	a4,0(a5)
     dce:	00ff0737          	lui	a4,0xff0
     dd2:	c798                	sw	a4,8(a5)
     dd4:	0207a623          	sw	zero,44(a5) # 4002102c <_eusrstack+0x2001102c>
     dd8:	3745                	jal	d78 <SetSysClock>
     dda:	40b2                	lw	ra,12(sp)
     ddc:	0141                	addi	sp,sp,16
     dde:	8082                	ret

00000de0 <SystemCoreClockUpdate>:
     de0:	400217b7          	lui	a5,0x40021
     de4:	43dc                	lw	a5,4(a5)
     de6:	8bb1                	andi	a5,a5,12
     de8:	4711                	li	a4,4
     dea:	04e78663          	beq	a5,a4,e36 <SystemCoreClockUpdate+0x56>
     dee:	4721                	li	a4,8
     df0:	04e78a63          	beq	a5,a4,e44 <SystemCoreClockUpdate+0x64>
     df4:	cb81                	beqz	a5,e04 <SystemCoreClockUpdate+0x24>
     df6:	007a17b7          	lui	a5,0x7a1
     dfa:	20078793          	addi	a5,a5,512 # 7a1200 <__rt_init_end+0x79947c>
     dfe:	80f1a423          	sw	a5,-2040(gp) # 200001c8 <SystemCoreClock>
     e02:	a039                	j	e10 <SystemCoreClockUpdate+0x30>
     e04:	007a17b7          	lui	a5,0x7a1
     e08:	20078793          	addi	a5,a5,512 # 7a1200 <__rt_init_end+0x79947c>
     e0c:	80f1a423          	sw	a5,-2040(gp) # 200001c8 <SystemCoreClock>
     e10:	400217b7          	lui	a5,0x40021
     e14:	43dc                	lw	a5,4(a5)
     e16:	8391                	srli	a5,a5,0x4
     e18:	8bbd                	andi	a5,a5,15
     e1a:	1ffff717          	auipc	a4,0x1ffff
     e1e:	1f670713          	addi	a4,a4,502 # 20000010 <AHBPrescTable>
     e22:	97ba                	add	a5,a5,a4
     e24:	0007c683          	lbu	a3,0(a5) # 40021000 <_eusrstack+0x20011000>
     e28:	80818713          	addi	a4,gp,-2040 # 200001c8 <SystemCoreClock>
     e2c:	431c                	lw	a5,0(a4)
     e2e:	00d7d7b3          	srl	a5,a5,a3
     e32:	c31c                	sw	a5,0(a4)
     e34:	8082                	ret
     e36:	007a17b7          	lui	a5,0x7a1
     e3a:	20078793          	addi	a5,a5,512 # 7a1200 <__rt_init_end+0x79947c>
     e3e:	80f1a423          	sw	a5,-2040(gp) # 200001c8 <SystemCoreClock>
     e42:	b7f9                	j	e10 <SystemCoreClockUpdate+0x30>
     e44:	40021737          	lui	a4,0x40021
     e48:	435c                	lw	a5,4(a4)
     e4a:	4358                	lw	a4,4(a4)
     e4c:	66c1                	lui	a3,0x10
     e4e:	8f75                	and	a4,a4,a3
     e50:	83c9                	srli	a5,a5,0x12
     e52:	8bbd                	andi	a5,a5,15
     e54:	0789                	addi	a5,a5,2
     e56:	4689                	li	a3,2
     e58:	02d78c63          	beq	a5,a3,e90 <SystemCoreClockUpdate+0xb0>
     e5c:	46bd                	li	a3,15
     e5e:	02d78b63          	beq	a5,a3,e94 <SystemCoreClockUpdate+0xb4>
     e62:	46c1                	li	a3,16
     e64:	02d78b63          	beq	a5,a3,e9a <SystemCoreClockUpdate+0xba>
     e68:	4681                	li	a3,0
     e6a:	4645                	li	a2,17
     e6c:	02c78a63          	beq	a5,a2,ea0 <SystemCoreClockUpdate+0xc0>
     e70:	e339                	bnez	a4,eb6 <SystemCoreClockUpdate+0xd6>
     e72:	40024737          	lui	a4,0x40024
     e76:	80072703          	lw	a4,-2048(a4) # 40023800 <_eusrstack+0x20013800>
     e7a:	8b41                	andi	a4,a4,16
     e7c:	c705                	beqz	a4,ea4 <SystemCoreClockUpdate+0xc4>
     e7e:	007a1737          	lui	a4,0x7a1
     e82:	20070713          	addi	a4,a4,512 # 7a1200 <__rt_init_end+0x79947c>
     e86:	02e787b3          	mul	a5,a5,a4
     e8a:	80f1a423          	sw	a5,-2040(gp) # 200001c8 <SystemCoreClock>
     e8e:	a069                	j	f18 <SystemCoreClockUpdate+0x138>
     e90:	47c9                	li	a5,18
     e92:	bfc1                	j	e62 <SystemCoreClockUpdate+0x82>
     e94:	4685                	li	a3,1
     e96:	47b5                	li	a5,13
     e98:	bfc9                	j	e6a <SystemCoreClockUpdate+0x8a>
     e9a:	4681                	li	a3,0
     e9c:	47bd                	li	a5,15
     e9e:	bfc9                	j	e70 <SystemCoreClockUpdate+0x90>
     ea0:	47c1                	li	a5,16
     ea2:	b7f9                	j	e70 <SystemCoreClockUpdate+0x90>
     ea4:	003d1737          	lui	a4,0x3d1
     ea8:	90070713          	addi	a4,a4,-1792 # 3d0900 <__rt_init_end+0x3c8b7c>
     eac:	02e787b3          	mul	a5,a5,a4
     eb0:	80f1a423          	sw	a5,-2040(gp) # 200001c8 <SystemCoreClock>
     eb4:	a095                	j	f18 <SystemCoreClockUpdate+0x138>
     eb6:	40021737          	lui	a4,0x40021
     eba:	5758                	lw	a4,44(a4)
     ebc:	00f71613          	slli	a2,a4,0xf
     ec0:	0a065263          	bgez	a2,f64 <SystemCoreClockUpdate+0x184>
     ec4:	400215b7          	lui	a1,0x40021
     ec8:	55d8                	lw	a4,44(a1)
     eca:	8311                	srli	a4,a4,0x4
     ecc:	8b3d                	andi	a4,a4,15
     ece:	00170613          	addi	a2,a4,1 # 40021001 <_eusrstack+0x20011001>
     ed2:	007a1737          	lui	a4,0x7a1
     ed6:	20070713          	addi	a4,a4,512 # 7a1200 <__rt_init_end+0x79947c>
     eda:	02c75733          	divu	a4,a4,a2
     ede:	80e1a423          	sw	a4,-2040(gp) # 200001c8 <SystemCoreClock>
     ee2:	55d0                	lw	a2,44(a1)
     ee4:	8221                	srli	a2,a2,0x8
     ee6:	8a3d                	andi	a2,a2,15
     ee8:	e221                	bnez	a2,f28 <SystemCoreClockUpdate+0x148>
     eea:	00271613          	slli	a2,a4,0x2
     eee:	9732                	add	a4,a4,a2
     ef0:	8305                	srli	a4,a4,0x1
     ef2:	80e1a423          	sw	a4,-2040(gp) # 200001c8 <SystemCoreClock>
     ef6:	40021737          	lui	a4,0x40021
     efa:	5758                	lw	a4,44(a4)
     efc:	8b3d                	andi	a4,a4,15
     efe:	0705                	addi	a4,a4,1
     f00:	80818593          	addi	a1,gp,-2040 # 200001c8 <SystemCoreClock>
     f04:	4190                	lw	a2,0(a1)
     f06:	02e65733          	divu	a4,a2,a4
     f0a:	c198                	sw	a4,0(a1)
     f0c:	80818713          	addi	a4,gp,-2040 # 200001c8 <SystemCoreClock>
     f10:	4310                	lw	a2,0(a4)
     f12:	02c787b3          	mul	a5,a5,a2
     f16:	c31c                	sw	a5,0(a4)
     f18:	ee068ce3          	beqz	a3,e10 <SystemCoreClockUpdate+0x30>
     f1c:	80818713          	addi	a4,gp,-2040 # 200001c8 <SystemCoreClock>
     f20:	431c                	lw	a5,0(a4)
     f22:	8385                	srli	a5,a5,0x1
     f24:	c31c                	sw	a5,0(a4)
     f26:	b5ed                	j	e10 <SystemCoreClockUpdate+0x30>
     f28:	4585                	li	a1,1
     f2a:	00b60b63          	beq	a2,a1,f40 <SystemCoreClockUpdate+0x160>
     f2e:	45bd                	li	a1,15
     f30:	02b60263          	beq	a2,a1,f54 <SystemCoreClockUpdate+0x174>
     f34:	0609                	addi	a2,a2,2
     f36:	02c70733          	mul	a4,a4,a2
     f3a:	80e1a423          	sw	a4,-2040(gp) # 200001c8 <SystemCoreClock>
     f3e:	bf65                	j	ef6 <SystemCoreClockUpdate+0x116>
     f40:	00171593          	slli	a1,a4,0x1
     f44:	95ba                	add	a1,a1,a4
     f46:	00359613          	slli	a2,a1,0x3
     f4a:	9732                	add	a4,a4,a2
     f4c:	8305                	srli	a4,a4,0x1
     f4e:	80e1a423          	sw	a4,-2040(gp) # 200001c8 <SystemCoreClock>
     f52:	b755                	j	ef6 <SystemCoreClockUpdate+0x116>
     f54:	00271613          	slli	a2,a4,0x2
     f58:	9732                	add	a4,a4,a2
     f5a:	00271613          	slli	a2,a4,0x2
     f5e:	80c1a423          	sw	a2,-2040(gp) # 200001c8 <SystemCoreClock>
     f62:	bf51                	j	ef6 <SystemCoreClockUpdate+0x116>
     f64:	40021737          	lui	a4,0x40021
     f68:	5758                	lw	a4,44(a4)
     f6a:	8b3d                	andi	a4,a4,15
     f6c:	00170613          	addi	a2,a4,1 # 40021001 <_eusrstack+0x20011001>
     f70:	007a1737          	lui	a4,0x7a1
     f74:	20070713          	addi	a4,a4,512 # 7a1200 <__rt_init_end+0x79947c>
     f78:	02c75733          	divu	a4,a4,a2
     f7c:	80e1a423          	sw	a4,-2040(gp) # 200001c8 <SystemCoreClock>
     f80:	b771                	j	f0c <SystemCoreClockUpdate+0x12c>

00000f82 <GPIOD_CLK_ENABLE>:
     f82:	1141                	addi	sp,sp,-16
     f84:	c606                	sw	ra,12(sp)
     f86:	4585                	li	a1,1
     f88:	02000513          	li	a0,32
     f8c:	3a49                	jal	91e <RCC_APB2PeriphClockCmd>
     f8e:	40b2                	lw	ra,12(sp)
     f90:	0141                	addi	sp,sp,16
     f92:	8082                	ret

00000f94 <GPIOB_CLK_ENABLE>:
     f94:	1141                	addi	sp,sp,-16
     f96:	c606                	sw	ra,12(sp)
     f98:	4585                	li	a1,1
     f9a:	4521                	li	a0,8
     f9c:	3249                	jal	91e <RCC_APB2PeriphClockCmd>
     f9e:	40b2                	lw	ra,12(sp)
     fa0:	0141                	addi	sp,sp,16
     fa2:	8082                	ret

00000fa4 <GPIOA_CLK_ENABLE>:
     fa4:	1141                	addi	sp,sp,-16
     fa6:	c606                	sw	ra,12(sp)
     fa8:	4585                	li	a1,1
     faa:	4511                	li	a0,4
     fac:	3a8d                	jal	91e <RCC_APB2PeriphClockCmd>
     fae:	40b2                	lw	ra,12(sp)
     fb0:	0141                	addi	sp,sp,16
     fb2:	8082                	ret

00000fb4 <GPIOC_CLK_ENABLE>:
     fb4:	1141                	addi	sp,sp,-16
     fb6:	c606                	sw	ra,12(sp)
     fb8:	4585                	li	a1,1
     fba:	4541                	li	a0,16
     fbc:	328d                	jal	91e <RCC_APB2PeriphClockCmd>
     fbe:	40b2                	lw	ra,12(sp)
     fc0:	0141                	addi	sp,sp,16
     fc2:	8082                	ret

00000fc4 <GPIOE_CLK_ENABLE>:
     fc4:	1141                	addi	sp,sp,-16
     fc6:	c606                	sw	ra,12(sp)
     fc8:	4585                	li	a1,1
     fca:	04000513          	li	a0,64
     fce:	3a81                	jal	91e <RCC_APB2PeriphClockCmd>
     fd0:	40b2                	lw	ra,12(sp)
     fd2:	0141                	addi	sp,sp,16
     fd4:	8082                	ret

00000fd6 <rt_hw_pin_init>:
     fd6:	1141                	addi	sp,sp,-16
     fd8:	c606                	sw	ra,12(sp)
     fda:	4601                	li	a2,0
     fdc:	00005597          	auipc	a1,0x5
     fe0:	5e458593          	addi	a1,a1,1508 # 65c0 <_ch32_pin_ops>
     fe4:	00006517          	auipc	a0,0x6
     fe8:	cc450513          	addi	a0,a0,-828 # 6ca8 <pins+0x650>
     fec:	5ef000ef          	jal	ra,1dda <rt_device_pin_register>
     ff0:	40b2                	lw	ra,12(sp)
     ff2:	0141                	addi	sp,sp,16
     ff4:	8082                	ret

00000ff6 <get_pin>:
     ff6:	06400793          	li	a5,100
     ffa:	00a7ee63          	bltu	a5,a0,1016 <get_pin+0x20>
     ffe:	00451793          	slli	a5,a0,0x4
    1002:	00005517          	auipc	a0,0x5
    1006:	65650513          	addi	a0,a0,1622 # 6658 <pins>
    100a:	953e                	add	a0,a0,a5
    100c:	4118                	lw	a4,0(a0)
    100e:	57fd                	li	a5,-1
    1010:	00f70563          	beq	a4,a5,101a <get_pin+0x24>
    1014:	8082                	ret
    1016:	4501                	li	a0,0
    1018:	8082                	ret
    101a:	4501                	li	a0,0
    101c:	bfe5                	j	1014 <get_pin+0x1e>

0000101e <ch32_pin_write>:
    101e:	1141                	addi	sp,sp,-16
    1020:	c606                	sw	ra,12(sp)
    1022:	c422                	sw	s0,8(sp)
    1024:	8432                	mv	s0,a2
    1026:	0ff5f513          	andi	a0,a1,255
    102a:	37f1                	jal	ff6 <get_pin>
    102c:	c519                	beqz	a0,103a <ch32_pin_write+0x1c>
    102e:	8622                	mv	a2,s0
    1030:	00c55583          	lhu	a1,12(a0)
    1034:	4508                	lw	a0,8(a0)
    1036:	edaff0ef          	jal	ra,710 <GPIO_WriteBit>
    103a:	40b2                	lw	ra,12(sp)
    103c:	4422                	lw	s0,8(sp)
    103e:	0141                	addi	sp,sp,16
    1040:	8082                	ret

00001042 <ch32_pin_read>:
    1042:	1141                	addi	sp,sp,-16
    1044:	c606                	sw	ra,12(sp)
    1046:	0ff5f513          	andi	a0,a1,255
    104a:	3775                	jal	ff6 <get_pin>
    104c:	c909                	beqz	a0,105e <ch32_pin_read+0x1c>
    104e:	00c55583          	lhu	a1,12(a0)
    1052:	4508                	lw	a0,8(a0)
    1054:	ea6ff0ef          	jal	ra,6fa <GPIO_ReadInputDataBit>
    1058:	40b2                	lw	ra,12(sp)
    105a:	0141                	addi	sp,sp,16
    105c:	8082                	ret
    105e:	4501                	li	a0,0
    1060:	bfe5                	j	1058 <ch32_pin_read+0x16>

00001062 <ch32_pin_mode>:
    1062:	1101                	addi	sp,sp,-32
    1064:	ce06                	sw	ra,28(sp)
    1066:	cc22                	sw	s0,24(sp)
    1068:	ca26                	sw	s1,20(sp)
    106a:	84b2                	mv	s1,a2
    106c:	0ff5f513          	andi	a0,a1,255
    1070:	3759                	jal	ff6 <get_pin>
    1072:	c929                	beqz	a0,10c4 <ch32_pin_mode+0x62>
    1074:	842a                	mv	s0,a0
    1076:	415c                	lw	a5,4(a0)
    1078:	9782                	jalr	a5
    107a:	445c                	lw	a5,12(s0)
    107c:	00f11223          	sh	a5,4(sp)
    1080:	47c1                	li	a5,16
    1082:	c63e                	sw	a5,12(sp)
    1084:	478d                	li	a5,3
    1086:	c43e                	sw	a5,8(sp)
    1088:	c895                	beqz	s1,10bc <ch32_pin_mode+0x5a>
    108a:	4795                	li	a5,5
    108c:	02f48763          	beq	s1,a5,10ba <ch32_pin_mode+0x58>
    1090:	4785                	li	a5,1
    1092:	02f48e63          	beq	s1,a5,10ce <ch32_pin_mode+0x6c>
    1096:	478d                	li	a5,3
    1098:	02f48e63          	beq	s1,a5,10d4 <ch32_pin_mode+0x72>
    109c:	4789                	li	a5,2
    109e:	02f48f63          	beq	s1,a5,10dc <ch32_pin_mode+0x7a>
    10a2:	4791                	li	a5,4
    10a4:	04f48063          	beq	s1,a5,10e4 <ch32_pin_mode+0x82>
    10a8:	4799                	li	a5,6
    10aa:	04f48063          	beq	s1,a5,10ea <ch32_pin_mode+0x88>
    10ae:	479d                	li	a5,7
    10b0:	00f49663          	bne	s1,a5,10bc <ch32_pin_mode+0x5a>
    10b4:	47e1                	li	a5,24
    10b6:	c63e                	sw	a5,12(sp)
    10b8:	a011                	j	10bc <ch32_pin_mode+0x5a>
    10ba:	c602                	sw	zero,12(sp)
    10bc:	004c                	addi	a1,sp,4
    10be:	4408                	lw	a0,8(s0)
    10c0:	d62ff0ef          	jal	ra,622 <GPIO_Init>
    10c4:	40f2                	lw	ra,28(sp)
    10c6:	4462                	lw	s0,24(sp)
    10c8:	44d2                	lw	s1,20(sp)
    10ca:	6105                	addi	sp,sp,32
    10cc:	8082                	ret
    10ce:	4791                	li	a5,4
    10d0:	c63e                	sw	a5,12(sp)
    10d2:	b7ed                	j	10bc <ch32_pin_mode+0x5a>
    10d4:	02800793          	li	a5,40
    10d8:	c63e                	sw	a5,12(sp)
    10da:	b7cd                	j	10bc <ch32_pin_mode+0x5a>
    10dc:	04800793          	li	a5,72
    10e0:	c63e                	sw	a5,12(sp)
    10e2:	bfe9                	j	10bc <ch32_pin_mode+0x5a>
    10e4:	47d1                	li	a5,20
    10e6:	c63e                	sw	a5,12(sp)
    10e8:	bfd1                	j	10bc <ch32_pin_mode+0x5a>
    10ea:	47f1                	li	a5,28
    10ec:	c63e                	sw	a5,12(sp)
    10ee:	b7f9                	j	10bc <ch32_pin_mode+0x5a>

000010f0 <ch32_pin_attach_irq>:
    10f0:	1101                	addi	sp,sp,-32
    10f2:	ce06                	sw	ra,28(sp)
    10f4:	cc22                	sw	s0,24(sp)
    10f6:	ca26                	sw	s1,20(sp)
    10f8:	c84a                	sw	s2,16(sp)
    10fa:	c64e                	sw	s3,12(sp)
    10fc:	c452                	sw	s4,8(sp)
    10fe:	84ae                	mv	s1,a1
    1100:	89b2                	mv	s3,a2
    1102:	8936                	mv	s2,a3
    1104:	8a3a                	mv	s4,a4
    1106:	0ff5f513          	andi	a0,a1,255
    110a:	35f5                	jal	ff6 <get_pin>
    110c:	c971                	beqz	a0,11e0 <ch32_pin_attach_irq+0xf0>
    110e:	4558                	lw	a4,12(a0)
    1110:	4401                	li	s0,0
    1112:	47fd                	li	a5,31
    1114:	0087c963          	blt	a5,s0,1126 <ch32_pin_attach_irq+0x36>
    1118:	4785                	li	a5,1
    111a:	008797b3          	sll	a5,a5,s0
    111e:	00e78563          	beq	a5,a4,1128 <ch32_pin_attach_irq+0x38>
    1122:	0405                	addi	s0,s0,1
    1124:	b7fd                	j	1112 <ch32_pin_attach_irq+0x22>
    1126:	547d                	li	s0,-1
    1128:	47bd                	li	a5,15
    112a:	0a87ed63          	bltu	a5,s0,11e4 <ch32_pin_attach_irq+0xf4>
    112e:	4f4020ef          	jal	ra,3622 <rt_hw_interrupt_disable>
    1132:	00141793          	slli	a5,s0,0x1
    1136:	97a2                	add	a5,a5,s0
    1138:	00279713          	slli	a4,a5,0x2
    113c:	1ffff797          	auipc	a5,0x1ffff
    1140:	ee478793          	addi	a5,a5,-284 # 20000020 <pin_irq_hdr_tab>
    1144:	97ba                	add	a5,a5,a4
    1146:	00079783          	lh	a5,0(a5)
    114a:	04978563          	beq	a5,s1,1194 <ch32_pin_attach_irq+0xa4>
    114e:	577d                	li	a4,-1
    1150:	08e79463          	bne	a5,a4,11d8 <ch32_pin_attach_irq+0xe8>
    1154:	1ffff697          	auipc	a3,0x1ffff
    1158:	ecc68693          	addi	a3,a3,-308 # 20000020 <pin_irq_hdr_tab>
    115c:	00141713          	slli	a4,s0,0x1
    1160:	00870633          	add	a2,a4,s0
    1164:	00261793          	slli	a5,a2,0x2
    1168:	863e                	mv	a2,a5
    116a:	97b6                	add	a5,a5,a3
    116c:	00979023          	sh	s1,0(a5)
    1170:	0127a223          	sw	s2,4(a5)
    1174:	01379123          	sh	s3,2(a5)
    1178:	96b2                	add	a3,a3,a2
    117a:	0146a423          	sw	s4,8(a3)
    117e:	4b0020ef          	jal	ra,362e <rt_hw_interrupt_enable>
    1182:	4501                	li	a0,0
    1184:	40f2                	lw	ra,28(sp)
    1186:	4462                	lw	s0,24(sp)
    1188:	44d2                	lw	s1,20(sp)
    118a:	4942                	lw	s2,16(sp)
    118c:	49b2                	lw	s3,12(sp)
    118e:	4a22                	lw	s4,8(sp)
    1190:	6105                	addi	sp,sp,32
    1192:	8082                	ret
    1194:	00141713          	slli	a4,s0,0x1
    1198:	9722                	add	a4,a4,s0
    119a:	00271693          	slli	a3,a4,0x2
    119e:	1ffff717          	auipc	a4,0x1ffff
    11a2:	e8270713          	addi	a4,a4,-382 # 20000020 <pin_irq_hdr_tab>
    11a6:	9736                	add	a4,a4,a3
    11a8:	4358                	lw	a4,4(a4)
    11aa:	fb2712e3          	bne	a4,s2,114e <ch32_pin_attach_irq+0x5e>
    11ae:	1ffff717          	auipc	a4,0x1ffff
    11b2:	e7270713          	addi	a4,a4,-398 # 20000020 <pin_irq_hdr_tab>
    11b6:	9736                	add	a4,a4,a3
    11b8:	00275703          	lhu	a4,2(a4)
    11bc:	f93719e3          	bne	a4,s3,114e <ch32_pin_attach_irq+0x5e>
    11c0:	1ffff717          	auipc	a4,0x1ffff
    11c4:	e6070713          	addi	a4,a4,-416 # 20000020 <pin_irq_hdr_tab>
    11c8:	9736                	add	a4,a4,a3
    11ca:	4718                	lw	a4,8(a4)
    11cc:	f94711e3          	bne	a4,s4,114e <ch32_pin_attach_irq+0x5e>
    11d0:	45e020ef          	jal	ra,362e <rt_hw_interrupt_enable>
    11d4:	4501                	li	a0,0
    11d6:	b77d                	j	1184 <ch32_pin_attach_irq+0x94>
    11d8:	456020ef          	jal	ra,362e <rt_hw_interrupt_enable>
    11dc:	451d                	li	a0,7
    11de:	b75d                	j	1184 <ch32_pin_attach_irq+0x94>
    11e0:	4519                	li	a0,6
    11e2:	b74d                	j	1184 <ch32_pin_attach_irq+0x94>
    11e4:	4519                	li	a0,6
    11e6:	bf79                	j	1184 <ch32_pin_attach_irq+0x94>

000011e8 <ch32_pin_dettach_irq>:
    11e8:	1141                	addi	sp,sp,-16
    11ea:	c606                	sw	ra,12(sp)
    11ec:	c422                	sw	s0,8(sp)
    11ee:	0ff5f513          	andi	a0,a1,255
    11f2:	3511                	jal	ff6 <get_pin>
    11f4:	c549                	beqz	a0,127e <ch32_pin_dettach_irq+0x96>
    11f6:	4558                	lw	a4,12(a0)
    11f8:	4401                	li	s0,0
    11fa:	47fd                	li	a5,31
    11fc:	0087c963          	blt	a5,s0,120e <ch32_pin_dettach_irq+0x26>
    1200:	4785                	li	a5,1
    1202:	008797b3          	sll	a5,a5,s0
    1206:	00e78563          	beq	a5,a4,1210 <ch32_pin_dettach_irq+0x28>
    120a:	0405                	addi	s0,s0,1
    120c:	b7fd                	j	11fa <ch32_pin_dettach_irq+0x12>
    120e:	547d                	li	s0,-1
    1210:	47bd                	li	a5,15
    1212:	0687e863          	bltu	a5,s0,1282 <ch32_pin_dettach_irq+0x9a>
    1216:	40c020ef          	jal	ra,3622 <rt_hw_interrupt_disable>
    121a:	00141793          	slli	a5,s0,0x1
    121e:	97a2                	add	a5,a5,s0
    1220:	00279713          	slli	a4,a5,0x2
    1224:	1ffff797          	auipc	a5,0x1ffff
    1228:	dfc78793          	addi	a5,a5,-516 # 20000020 <pin_irq_hdr_tab>
    122c:	97ba                	add	a5,a5,a4
    122e:	00079703          	lh	a4,0(a5)
    1232:	57fd                	li	a5,-1
    1234:	04f70163          	beq	a4,a5,1276 <ch32_pin_dettach_irq+0x8e>
    1238:	1ffff697          	auipc	a3,0x1ffff
    123c:	de868693          	addi	a3,a3,-536 # 20000020 <pin_irq_hdr_tab>
    1240:	00141713          	slli	a4,s0,0x1
    1244:	00870633          	add	a2,a4,s0
    1248:	00261793          	slli	a5,a2,0x2
    124c:	97b6                	add	a5,a5,a3
    124e:	567d                	li	a2,-1
    1250:	00c79023          	sh	a2,0(a5)
    1254:	0007a223          	sw	zero,4(a5)
    1258:	00079123          	sh	zero,2(a5)
    125c:	943a                	add	s0,s0,a4
    125e:	00241793          	slli	a5,s0,0x2
    1262:	96be                	add	a3,a3,a5
    1264:	0006a423          	sw	zero,8(a3)
    1268:	3c6020ef          	jal	ra,362e <rt_hw_interrupt_enable>
    126c:	4501                	li	a0,0
    126e:	40b2                	lw	ra,12(sp)
    1270:	4422                	lw	s0,8(sp)
    1272:	0141                	addi	sp,sp,16
    1274:	8082                	ret
    1276:	3b8020ef          	jal	ra,362e <rt_hw_interrupt_enable>
    127a:	4501                	li	a0,0
    127c:	bfcd                	j	126e <ch32_pin_dettach_irq+0x86>
    127e:	4519                	li	a0,6
    1280:	b7fd                	j	126e <ch32_pin_dettach_irq+0x86>
    1282:	4519                	li	a0,6
    1284:	b7ed                	j	126e <ch32_pin_dettach_irq+0x86>

00001286 <ch32_pin_irq_enable>:
    1286:	7179                	addi	sp,sp,-48
    1288:	d606                	sw	ra,44(sp)
    128a:	d422                	sw	s0,40(sp)
    128c:	d226                	sw	s1,36(sp)
    128e:	d04a                	sw	s2,32(sp)
    1290:	8432                	mv	s0,a2
    1292:	0ff5f513          	andi	a0,a1,255
    1296:	3385                	jal	ff6 <get_pin>
    1298:	1a050763          	beqz	a0,1446 <ch32_pin_irq_enable+0x1c0>
    129c:	84aa                	mv	s1,a0
    129e:	4785                	li	a5,1
    12a0:	02f40063          	beq	s0,a5,12c0 <ch32_pin_irq_enable+0x3a>
    12a4:	1a041563          	bnez	s0,144e <ch32_pin_irq_enable+0x1c8>
    12a8:	4554                	lw	a3,12(a0)
    12aa:	4781                	li	a5,0
    12ac:	477d                	li	a4,31
    12ae:	14f74d63          	blt	a4,a5,1408 <ch32_pin_irq_enable+0x182>
    12b2:	4705                	li	a4,1
    12b4:	00f71733          	sll	a4,a4,a5
    12b8:	14d70963          	beq	a4,a3,140a <ch32_pin_irq_enable+0x184>
    12bc:	0785                	addi	a5,a5,1
    12be:	b7fd                	j	12ac <ch32_pin_irq_enable+0x26>
    12c0:	4558                	lw	a4,12(a0)
    12c2:	4401                	li	s0,0
    12c4:	47fd                	li	a5,31
    12c6:	0087c963          	blt	a5,s0,12d8 <ch32_pin_irq_enable+0x52>
    12ca:	4785                	li	a5,1
    12cc:	008797b3          	sll	a5,a5,s0
    12d0:	00e78563          	beq	a5,a4,12da <ch32_pin_irq_enable+0x54>
    12d4:	0405                	addi	s0,s0,1
    12d6:	b7fd                	j	12c4 <ch32_pin_irq_enable+0x3e>
    12d8:	547d                	li	s0,-1
    12da:	47bd                	li	a5,15
    12dc:	1687e763          	bltu	a5,s0,144a <ch32_pin_irq_enable+0x1c4>
    12e0:	342020ef          	jal	ra,3622 <rt_hw_interrupt_disable>
    12e4:	892a                	mv	s2,a0
    12e6:	00141793          	slli	a5,s0,0x1
    12ea:	97a2                	add	a5,a5,s0
    12ec:	00279713          	slli	a4,a5,0x2
    12f0:	1ffff797          	auipc	a5,0x1ffff
    12f4:	d3078793          	addi	a5,a5,-720 # 20000020 <pin_irq_hdr_tab>
    12f8:	97ba                	add	a5,a5,a4
    12fa:	00079703          	lh	a4,0(a5)
    12fe:	57fd                	li	a5,-1
    1300:	0cf70763          	beq	a4,a5,13ce <ch32_pin_irq_enable+0x148>
    1304:	40dc                	lw	a5,4(s1)
    1306:	9782                	jalr	a5
    1308:	4585                	li	a1,1
    130a:	4505                	li	a0,1
    130c:	e12ff0ef          	jal	ra,91e <RCC_APB2PeriphClockCmd>
    1310:	44dc                	lw	a5,12(s1)
    1312:	00f11a23          	sh	a5,20(sp)
    1316:	470d                	li	a4,3
    1318:	cc3a                	sw	a4,24(sp)
    131a:	c23e                	sw	a5,4(sp)
    131c:	c402                	sw	zero,8(sp)
    131e:	4705                	li	a4,1
    1320:	c83a                	sw	a4,16(sp)
    1322:	00141793          	slli	a5,s0,0x1
    1326:	97a2                	add	a5,a5,s0
    1328:	00279693          	slli	a3,a5,0x2
    132c:	1ffff797          	auipc	a5,0x1ffff
    1330:	cf478793          	addi	a5,a5,-780 # 20000020 <pin_irq_hdr_tab>
    1334:	97b6                	add	a5,a5,a3
    1336:	0027d783          	lhu	a5,2(a5)
    133a:	0ae78463          	beq	a5,a4,13e2 <ch32_pin_irq_enable+0x15c>
    133e:	01079713          	slli	a4,a5,0x10
    1342:	8741                	srai	a4,a4,0x10
    1344:	cb49                	beqz	a4,13d6 <ch32_pin_irq_enable+0x150>
    1346:	4709                	li	a4,2
    1348:	0ae78363          	beq	a5,a4,13ee <ch32_pin_irq_enable+0x168>
    134c:	084c                	addi	a1,sp,20
    134e:	4488                	lw	a0,8(s1)
    1350:	ad2ff0ef          	jal	ra,622 <GPIO_Init>
    1354:	449c                	lw	a5,8(s1)
    1356:	40011737          	lui	a4,0x40011
    135a:	c0070713          	addi	a4,a4,-1024 # 40010c00 <_eusrstack+0x20000c00>
    135e:	08e78d63          	beq	a5,a4,13f8 <ch32_pin_irq_enable+0x172>
    1362:	4501                	li	a0,0
    1364:	40011737          	lui	a4,0x40011
    1368:	08e78a63          	beq	a5,a4,13fc <ch32_pin_irq_enable+0x176>
    136c:	40011737          	lui	a4,0x40011
    1370:	40070713          	addi	a4,a4,1024 # 40011400 <_eusrstack+0x20001400>
    1374:	08e78663          	beq	a5,a4,1400 <ch32_pin_irq_enable+0x17a>
    1378:	40012737          	lui	a4,0x40012
    137c:	80070713          	addi	a4,a4,-2048 # 40011800 <_eusrstack+0x20001800>
    1380:	08e78263          	beq	a5,a4,1404 <ch32_pin_irq_enable+0x17e>
    1384:	0ff47593          	andi	a1,s0,255
    1388:	b92ff0ef          	jal	ra,71a <GPIO_EXTILineConfig>
    138c:	0048                	addi	a0,sp,4
    138e:	9c8ff0ef          	jal	ra,556 <EXTI_Init>
    1392:	040e                	slli	s0,s0,0x3
    1394:	00005797          	auipc	a5,0x5
    1398:	24478793          	addi	a5,a5,580 # 65d8 <pin_irq_map>
    139c:	943e                	add	s0,s0,a5
    139e:	4050                	lw	a2,4(s0)
    13a0:	e000e737          	lui	a4,0xe000e
    13a4:	00c707b3          	add	a5,a4,a2
    13a8:	05000693          	li	a3,80
    13ac:	40d78023          	sb	a3,1024(a5)
    13b0:	00565793          	srli	a5,a2,0x5
    13b4:	4685                	li	a3,1
    13b6:	00c696b3          	sll	a3,a3,a2
    13ba:	04078793          	addi	a5,a5,64
    13be:	078a                	slli	a5,a5,0x2
    13c0:	97ba                	add	a5,a5,a4
    13c2:	c394                	sw	a3,0(a5)
    13c4:	854a                	mv	a0,s2
    13c6:	268020ef          	jal	ra,362e <rt_hw_interrupt_enable>
    13ca:	4501                	li	a0,0
    13cc:	a0bd                	j	143a <ch32_pin_irq_enable+0x1b4>
    13ce:	260020ef          	jal	ra,362e <rt_hw_interrupt_enable>
    13d2:	4519                	li	a0,6
    13d4:	a09d                	j	143a <ch32_pin_irq_enable+0x1b4>
    13d6:	02800793          	li	a5,40
    13da:	ce3e                	sw	a5,28(sp)
    13dc:	47a1                	li	a5,8
    13de:	c63e                	sw	a5,12(sp)
    13e0:	b7b5                	j	134c <ch32_pin_irq_enable+0xc6>
    13e2:	04800793          	li	a5,72
    13e6:	ce3e                	sw	a5,28(sp)
    13e8:	47b1                	li	a5,12
    13ea:	c63e                	sw	a5,12(sp)
    13ec:	b785                	j	134c <ch32_pin_irq_enable+0xc6>
    13ee:	4791                	li	a5,4
    13f0:	ce3e                	sw	a5,28(sp)
    13f2:	47c1                	li	a5,16
    13f4:	c63e                	sw	a5,12(sp)
    13f6:	bf99                	j	134c <ch32_pin_irq_enable+0xc6>
    13f8:	4505                	li	a0,1
    13fa:	b7ad                	j	1364 <ch32_pin_irq_enable+0xde>
    13fc:	4509                	li	a0,2
    13fe:	b7bd                	j	136c <ch32_pin_irq_enable+0xe6>
    1400:	450d                	li	a0,3
    1402:	bf9d                	j	1378 <ch32_pin_irq_enable+0xf2>
    1404:	4511                	li	a0,4
    1406:	bfbd                	j	1384 <ch32_pin_irq_enable+0xfe>
    1408:	57fd                	li	a5,-1
    140a:	473d                	li	a4,15
    140c:	04f76363          	bltu	a4,a5,1452 <ch32_pin_irq_enable+0x1cc>
    1410:	078e                	slli	a5,a5,0x3
    1412:	00005717          	auipc	a4,0x5
    1416:	1c670713          	addi	a4,a4,454 # 65d8 <pin_irq_map>
    141a:	97ba                	add	a5,a5,a4
    141c:	cf8d                	beqz	a5,1456 <ch32_pin_irq_enable+0x1d0>
    141e:	43d8                	lw	a4,4(a5)
    1420:	00575793          	srli	a5,a4,0x5
    1424:	4685                	li	a3,1
    1426:	00e696b3          	sll	a3,a3,a4
    142a:	06078793          	addi	a5,a5,96
    142e:	078a                	slli	a5,a5,0x2
    1430:	e000e737          	lui	a4,0xe000e
    1434:	97ba                	add	a5,a5,a4
    1436:	c394                	sw	a3,0(a5)
    1438:	4501                	li	a0,0
    143a:	50b2                	lw	ra,44(sp)
    143c:	5422                	lw	s0,40(sp)
    143e:	5492                	lw	s1,36(sp)
    1440:	5902                	lw	s2,32(sp)
    1442:	6145                	addi	sp,sp,48
    1444:	8082                	ret
    1446:	4519                	li	a0,6
    1448:	bfcd                	j	143a <ch32_pin_irq_enable+0x1b4>
    144a:	4519                	li	a0,6
    144c:	b7fd                	j	143a <ch32_pin_irq_enable+0x1b4>
    144e:	4519                	li	a0,6
    1450:	b7ed                	j	143a <ch32_pin_irq_enable+0x1b4>
    1452:	4519                	li	a0,6
    1454:	b7dd                	j	143a <ch32_pin_irq_enable+0x1b4>
    1456:	4519                	li	a0,6
    1458:	b7cd                	j	143a <ch32_pin_irq_enable+0x1b4>

0000145a <HAL_GPIO_EXTI_Callback>:
    145a:	4781                	li	a5,0
    145c:	477d                	li	a4,31
    145e:	00f74963          	blt	a4,a5,1470 <HAL_GPIO_EXTI_Callback+0x16>
    1462:	4705                	li	a4,1
    1464:	00f71733          	sll	a4,a4,a5
    1468:	00a70563          	beq	a4,a0,1472 <HAL_GPIO_EXTI_Callback+0x18>
    146c:	0785                	addi	a5,a5,1
    146e:	b7fd                	j	145c <HAL_GPIO_EXTI_Callback+0x2>
    1470:	57fd                	li	a5,-1
    1472:	00179713          	slli	a4,a5,0x1
    1476:	973e                	add	a4,a4,a5
    1478:	00271693          	slli	a3,a4,0x2
    147c:	1ffff717          	auipc	a4,0x1ffff
    1480:	ba470713          	addi	a4,a4,-1116 # 20000020 <pin_irq_hdr_tab>
    1484:	9736                	add	a4,a4,a3
    1486:	4354                	lw	a3,4(a4)
    1488:	c295                	beqz	a3,14ac <HAL_GPIO_EXTI_Callback+0x52>
    148a:	1141                	addi	sp,sp,-16
    148c:	c606                	sw	ra,12(sp)
    148e:	00179713          	slli	a4,a5,0x1
    1492:	97ba                	add	a5,a5,a4
    1494:	00279713          	slli	a4,a5,0x2
    1498:	1ffff797          	auipc	a5,0x1ffff
    149c:	b8878793          	addi	a5,a5,-1144 # 20000020 <pin_irq_hdr_tab>
    14a0:	97ba                	add	a5,a5,a4
    14a2:	4788                	lw	a0,8(a5)
    14a4:	9682                	jalr	a3
    14a6:	40b2                	lw	ra,12(sp)
    14a8:	0141                	addi	sp,sp,16
    14aa:	8082                	ret
    14ac:	8082                	ret

000014ae <EXTI0_IRQHandler>:
    14ae:	715d                	addi	sp,sp,-80
    14b0:	e682                	fsw	ft0,76(sp)
    14b2:	e486                	fsw	ft1,72(sp)
    14b4:	e28a                	fsw	ft2,68(sp)
    14b6:	e08e                	fsw	ft3,64(sp)
    14b8:	fe12                	fsw	ft4,60(sp)
    14ba:	fc16                	fsw	ft5,56(sp)
    14bc:	fa1a                	fsw	ft6,52(sp)
    14be:	f81e                	fsw	ft7,48(sp)
    14c0:	f62a                	fsw	fa0,44(sp)
    14c2:	f42e                	fsw	fa1,40(sp)
    14c4:	f232                	fsw	fa2,36(sp)
    14c6:	f036                	fsw	fa3,32(sp)
    14c8:	ee3a                	fsw	fa4,28(sp)
    14ca:	ec3e                	fsw	fa5,24(sp)
    14cc:	ea42                	fsw	fa6,20(sp)
    14ce:	e846                	fsw	fa7,16(sp)
    14d0:	e672                	fsw	ft8,12(sp)
    14d2:	e476                	fsw	ft9,8(sp)
    14d4:	e27a                	fsw	ft10,4(sp)
    14d6:	e07e                	fsw	ft11,0(sp)
    14d8:	34011173          	csrrw	sp,mscratch,sp
    14dc:	730020ef          	jal	ra,3c0c <rt_interrupt_enter>
    14e0:	4505                	li	a0,1
    14e2:	916ff0ef          	jal	ra,5f8 <EXTI_GetITStatus>
    14e6:	ed05                	bnez	a0,151e <EXTI0_IRQHandler+0x70>
    14e8:	75a020ef          	jal	ra,3c42 <rt_interrupt_leave>
    14ec:	34011173          	csrrw	sp,mscratch,sp
    14f0:	6036                	flw	ft0,76(sp)
    14f2:	60a6                	flw	ft1,72(sp)
    14f4:	6116                	flw	ft2,68(sp)
    14f6:	6186                	flw	ft3,64(sp)
    14f8:	7272                	flw	ft4,60(sp)
    14fa:	72e2                	flw	ft5,56(sp)
    14fc:	7352                	flw	ft6,52(sp)
    14fe:	73c2                	flw	ft7,48(sp)
    1500:	7532                	flw	fa0,44(sp)
    1502:	75a2                	flw	fa1,40(sp)
    1504:	7612                	flw	fa2,36(sp)
    1506:	7682                	flw	fa3,32(sp)
    1508:	6772                	flw	fa4,28(sp)
    150a:	67e2                	flw	fa5,24(sp)
    150c:	6852                	flw	fa6,20(sp)
    150e:	68c2                	flw	fa7,16(sp)
    1510:	6e32                	flw	ft8,12(sp)
    1512:	6ea2                	flw	ft9,8(sp)
    1514:	6f12                	flw	ft10,4(sp)
    1516:	6f82                	flw	ft11,0(sp)
    1518:	6161                	addi	sp,sp,80
    151a:	30200073          	mret
    151e:	4505                	li	a0,1
    1520:	3f2d                	jal	145a <HAL_GPIO_EXTI_Callback>
    1522:	4505                	li	a0,1
    1524:	8f4ff0ef          	jal	ra,618 <EXTI_ClearITPendingBit>
    1528:	b7c1                	j	14e8 <EXTI0_IRQHandler+0x3a>

0000152a <EXTI1_IRQHandler>:
    152a:	715d                	addi	sp,sp,-80
    152c:	e682                	fsw	ft0,76(sp)
    152e:	e486                	fsw	ft1,72(sp)
    1530:	e28a                	fsw	ft2,68(sp)
    1532:	e08e                	fsw	ft3,64(sp)
    1534:	fe12                	fsw	ft4,60(sp)
    1536:	fc16                	fsw	ft5,56(sp)
    1538:	fa1a                	fsw	ft6,52(sp)
    153a:	f81e                	fsw	ft7,48(sp)
    153c:	f62a                	fsw	fa0,44(sp)
    153e:	f42e                	fsw	fa1,40(sp)
    1540:	f232                	fsw	fa2,36(sp)
    1542:	f036                	fsw	fa3,32(sp)
    1544:	ee3a                	fsw	fa4,28(sp)
    1546:	ec3e                	fsw	fa5,24(sp)
    1548:	ea42                	fsw	fa6,20(sp)
    154a:	e846                	fsw	fa7,16(sp)
    154c:	e672                	fsw	ft8,12(sp)
    154e:	e476                	fsw	ft9,8(sp)
    1550:	e27a                	fsw	ft10,4(sp)
    1552:	e07e                	fsw	ft11,0(sp)
    1554:	34011173          	csrrw	sp,mscratch,sp
    1558:	6b4020ef          	jal	ra,3c0c <rt_interrupt_enter>
    155c:	4509                	li	a0,2
    155e:	89aff0ef          	jal	ra,5f8 <EXTI_GetITStatus>
    1562:	ed05                	bnez	a0,159a <EXTI1_IRQHandler+0x70>
    1564:	6de020ef          	jal	ra,3c42 <rt_interrupt_leave>
    1568:	34011173          	csrrw	sp,mscratch,sp
    156c:	6036                	flw	ft0,76(sp)
    156e:	60a6                	flw	ft1,72(sp)
    1570:	6116                	flw	ft2,68(sp)
    1572:	6186                	flw	ft3,64(sp)
    1574:	7272                	flw	ft4,60(sp)
    1576:	72e2                	flw	ft5,56(sp)
    1578:	7352                	flw	ft6,52(sp)
    157a:	73c2                	flw	ft7,48(sp)
    157c:	7532                	flw	fa0,44(sp)
    157e:	75a2                	flw	fa1,40(sp)
    1580:	7612                	flw	fa2,36(sp)
    1582:	7682                	flw	fa3,32(sp)
    1584:	6772                	flw	fa4,28(sp)
    1586:	67e2                	flw	fa5,24(sp)
    1588:	6852                	flw	fa6,20(sp)
    158a:	68c2                	flw	fa7,16(sp)
    158c:	6e32                	flw	ft8,12(sp)
    158e:	6ea2                	flw	ft9,8(sp)
    1590:	6f12                	flw	ft10,4(sp)
    1592:	6f82                	flw	ft11,0(sp)
    1594:	6161                	addi	sp,sp,80
    1596:	30200073          	mret
    159a:	4509                	li	a0,2
    159c:	3d7d                	jal	145a <HAL_GPIO_EXTI_Callback>
    159e:	4509                	li	a0,2
    15a0:	878ff0ef          	jal	ra,618 <EXTI_ClearITPendingBit>
    15a4:	b7c1                	j	1564 <EXTI1_IRQHandler+0x3a>

000015a6 <EXTI2_IRQHandler>:
    15a6:	715d                	addi	sp,sp,-80
    15a8:	e682                	fsw	ft0,76(sp)
    15aa:	e486                	fsw	ft1,72(sp)
    15ac:	e28a                	fsw	ft2,68(sp)
    15ae:	e08e                	fsw	ft3,64(sp)
    15b0:	fe12                	fsw	ft4,60(sp)
    15b2:	fc16                	fsw	ft5,56(sp)
    15b4:	fa1a                	fsw	ft6,52(sp)
    15b6:	f81e                	fsw	ft7,48(sp)
    15b8:	f62a                	fsw	fa0,44(sp)
    15ba:	f42e                	fsw	fa1,40(sp)
    15bc:	f232                	fsw	fa2,36(sp)
    15be:	f036                	fsw	fa3,32(sp)
    15c0:	ee3a                	fsw	fa4,28(sp)
    15c2:	ec3e                	fsw	fa5,24(sp)
    15c4:	ea42                	fsw	fa6,20(sp)
    15c6:	e846                	fsw	fa7,16(sp)
    15c8:	e672                	fsw	ft8,12(sp)
    15ca:	e476                	fsw	ft9,8(sp)
    15cc:	e27a                	fsw	ft10,4(sp)
    15ce:	e07e                	fsw	ft11,0(sp)
    15d0:	34011173          	csrrw	sp,mscratch,sp
    15d4:	638020ef          	jal	ra,3c0c <rt_interrupt_enter>
    15d8:	4511                	li	a0,4
    15da:	81eff0ef          	jal	ra,5f8 <EXTI_GetITStatus>
    15de:	ed05                	bnez	a0,1616 <EXTI2_IRQHandler+0x70>
    15e0:	662020ef          	jal	ra,3c42 <rt_interrupt_leave>
    15e4:	34011173          	csrrw	sp,mscratch,sp
    15e8:	6036                	flw	ft0,76(sp)
    15ea:	60a6                	flw	ft1,72(sp)
    15ec:	6116                	flw	ft2,68(sp)
    15ee:	6186                	flw	ft3,64(sp)
    15f0:	7272                	flw	ft4,60(sp)
    15f2:	72e2                	flw	ft5,56(sp)
    15f4:	7352                	flw	ft6,52(sp)
    15f6:	73c2                	flw	ft7,48(sp)
    15f8:	7532                	flw	fa0,44(sp)
    15fa:	75a2                	flw	fa1,40(sp)
    15fc:	7612                	flw	fa2,36(sp)
    15fe:	7682                	flw	fa3,32(sp)
    1600:	6772                	flw	fa4,28(sp)
    1602:	67e2                	flw	fa5,24(sp)
    1604:	6852                	flw	fa6,20(sp)
    1606:	68c2                	flw	fa7,16(sp)
    1608:	6e32                	flw	ft8,12(sp)
    160a:	6ea2                	flw	ft9,8(sp)
    160c:	6f12                	flw	ft10,4(sp)
    160e:	6f82                	flw	ft11,0(sp)
    1610:	6161                	addi	sp,sp,80
    1612:	30200073          	mret
    1616:	4511                	li	a0,4
    1618:	3589                	jal	145a <HAL_GPIO_EXTI_Callback>
    161a:	4511                	li	a0,4
    161c:	ffdfe0ef          	jal	ra,618 <EXTI_ClearITPendingBit>
    1620:	b7c1                	j	15e0 <EXTI2_IRQHandler+0x3a>

00001622 <EXTI3_IRQHandler>:
    1622:	715d                	addi	sp,sp,-80
    1624:	e682                	fsw	ft0,76(sp)
    1626:	e486                	fsw	ft1,72(sp)
    1628:	e28a                	fsw	ft2,68(sp)
    162a:	e08e                	fsw	ft3,64(sp)
    162c:	fe12                	fsw	ft4,60(sp)
    162e:	fc16                	fsw	ft5,56(sp)
    1630:	fa1a                	fsw	ft6,52(sp)
    1632:	f81e                	fsw	ft7,48(sp)
    1634:	f62a                	fsw	fa0,44(sp)
    1636:	f42e                	fsw	fa1,40(sp)
    1638:	f232                	fsw	fa2,36(sp)
    163a:	f036                	fsw	fa3,32(sp)
    163c:	ee3a                	fsw	fa4,28(sp)
    163e:	ec3e                	fsw	fa5,24(sp)
    1640:	ea42                	fsw	fa6,20(sp)
    1642:	e846                	fsw	fa7,16(sp)
    1644:	e672                	fsw	ft8,12(sp)
    1646:	e476                	fsw	ft9,8(sp)
    1648:	e27a                	fsw	ft10,4(sp)
    164a:	e07e                	fsw	ft11,0(sp)
    164c:	34011173          	csrrw	sp,mscratch,sp
    1650:	5bc020ef          	jal	ra,3c0c <rt_interrupt_enter>
    1654:	4521                	li	a0,8
    1656:	fa3fe0ef          	jal	ra,5f8 <EXTI_GetITStatus>
    165a:	ed05                	bnez	a0,1692 <EXTI3_IRQHandler+0x70>
    165c:	5e6020ef          	jal	ra,3c42 <rt_interrupt_leave>
    1660:	34011173          	csrrw	sp,mscratch,sp
    1664:	6036                	flw	ft0,76(sp)
    1666:	60a6                	flw	ft1,72(sp)
    1668:	6116                	flw	ft2,68(sp)
    166a:	6186                	flw	ft3,64(sp)
    166c:	7272                	flw	ft4,60(sp)
    166e:	72e2                	flw	ft5,56(sp)
    1670:	7352                	flw	ft6,52(sp)
    1672:	73c2                	flw	ft7,48(sp)
    1674:	7532                	flw	fa0,44(sp)
    1676:	75a2                	flw	fa1,40(sp)
    1678:	7612                	flw	fa2,36(sp)
    167a:	7682                	flw	fa3,32(sp)
    167c:	6772                	flw	fa4,28(sp)
    167e:	67e2                	flw	fa5,24(sp)
    1680:	6852                	flw	fa6,20(sp)
    1682:	68c2                	flw	fa7,16(sp)
    1684:	6e32                	flw	ft8,12(sp)
    1686:	6ea2                	flw	ft9,8(sp)
    1688:	6f12                	flw	ft10,4(sp)
    168a:	6f82                	flw	ft11,0(sp)
    168c:	6161                	addi	sp,sp,80
    168e:	30200073          	mret
    1692:	4521                	li	a0,8
    1694:	33d9                	jal	145a <HAL_GPIO_EXTI_Callback>
    1696:	4521                	li	a0,8
    1698:	f81fe0ef          	jal	ra,618 <EXTI_ClearITPendingBit>
    169c:	b7c1                	j	165c <EXTI3_IRQHandler+0x3a>

0000169e <EXTI4_IRQHandler>:
    169e:	715d                	addi	sp,sp,-80
    16a0:	e682                	fsw	ft0,76(sp)
    16a2:	e486                	fsw	ft1,72(sp)
    16a4:	e28a                	fsw	ft2,68(sp)
    16a6:	e08e                	fsw	ft3,64(sp)
    16a8:	fe12                	fsw	ft4,60(sp)
    16aa:	fc16                	fsw	ft5,56(sp)
    16ac:	fa1a                	fsw	ft6,52(sp)
    16ae:	f81e                	fsw	ft7,48(sp)
    16b0:	f62a                	fsw	fa0,44(sp)
    16b2:	f42e                	fsw	fa1,40(sp)
    16b4:	f232                	fsw	fa2,36(sp)
    16b6:	f036                	fsw	fa3,32(sp)
    16b8:	ee3a                	fsw	fa4,28(sp)
    16ba:	ec3e                	fsw	fa5,24(sp)
    16bc:	ea42                	fsw	fa6,20(sp)
    16be:	e846                	fsw	fa7,16(sp)
    16c0:	e672                	fsw	ft8,12(sp)
    16c2:	e476                	fsw	ft9,8(sp)
    16c4:	e27a                	fsw	ft10,4(sp)
    16c6:	e07e                	fsw	ft11,0(sp)
    16c8:	34011173          	csrrw	sp,mscratch,sp
    16cc:	540020ef          	jal	ra,3c0c <rt_interrupt_enter>
    16d0:	4541                	li	a0,16
    16d2:	f27fe0ef          	jal	ra,5f8 <EXTI_GetITStatus>
    16d6:	ed05                	bnez	a0,170e <EXTI4_IRQHandler+0x70>
    16d8:	56a020ef          	jal	ra,3c42 <rt_interrupt_leave>
    16dc:	34011173          	csrrw	sp,mscratch,sp
    16e0:	6036                	flw	ft0,76(sp)
    16e2:	60a6                	flw	ft1,72(sp)
    16e4:	6116                	flw	ft2,68(sp)
    16e6:	6186                	flw	ft3,64(sp)
    16e8:	7272                	flw	ft4,60(sp)
    16ea:	72e2                	flw	ft5,56(sp)
    16ec:	7352                	flw	ft6,52(sp)
    16ee:	73c2                	flw	ft7,48(sp)
    16f0:	7532                	flw	fa0,44(sp)
    16f2:	75a2                	flw	fa1,40(sp)
    16f4:	7612                	flw	fa2,36(sp)
    16f6:	7682                	flw	fa3,32(sp)
    16f8:	6772                	flw	fa4,28(sp)
    16fa:	67e2                	flw	fa5,24(sp)
    16fc:	6852                	flw	fa6,20(sp)
    16fe:	68c2                	flw	fa7,16(sp)
    1700:	6e32                	flw	ft8,12(sp)
    1702:	6ea2                	flw	ft9,8(sp)
    1704:	6f12                	flw	ft10,4(sp)
    1706:	6f82                	flw	ft11,0(sp)
    1708:	6161                	addi	sp,sp,80
    170a:	30200073          	mret
    170e:	4541                	li	a0,16
    1710:	33a9                	jal	145a <HAL_GPIO_EXTI_Callback>
    1712:	4541                	li	a0,16
    1714:	f05fe0ef          	jal	ra,618 <EXTI_ClearITPendingBit>
    1718:	b7c1                	j	16d8 <EXTI4_IRQHandler+0x3a>

0000171a <EXTI9_5_IRQHandler>:
    171a:	715d                	addi	sp,sp,-80
    171c:	e682                	fsw	ft0,76(sp)
    171e:	e486                	fsw	ft1,72(sp)
    1720:	e28a                	fsw	ft2,68(sp)
    1722:	e08e                	fsw	ft3,64(sp)
    1724:	fe12                	fsw	ft4,60(sp)
    1726:	fc16                	fsw	ft5,56(sp)
    1728:	fa1a                	fsw	ft6,52(sp)
    172a:	f81e                	fsw	ft7,48(sp)
    172c:	f62a                	fsw	fa0,44(sp)
    172e:	f42e                	fsw	fa1,40(sp)
    1730:	f232                	fsw	fa2,36(sp)
    1732:	f036                	fsw	fa3,32(sp)
    1734:	ee3a                	fsw	fa4,28(sp)
    1736:	ec3e                	fsw	fa5,24(sp)
    1738:	ea42                	fsw	fa6,20(sp)
    173a:	e846                	fsw	fa7,16(sp)
    173c:	e672                	fsw	ft8,12(sp)
    173e:	e476                	fsw	ft9,8(sp)
    1740:	e27a                	fsw	ft10,4(sp)
    1742:	e07e                	fsw	ft11,0(sp)
    1744:	34011173          	csrrw	sp,mscratch,sp
    1748:	4c4020ef          	jal	ra,3c0c <rt_interrupt_enter>
    174c:	02000513          	li	a0,32
    1750:	ea9fe0ef          	jal	ra,5f8 <EXTI_GetITStatus>
    1754:	e511                	bnez	a0,1760 <EXTI9_5_IRQHandler+0x46>
    1756:	04000513          	li	a0,64
    175a:	e9ffe0ef          	jal	ra,5f8 <EXTI_GetITStatus>
    175e:	cd39                	beqz	a0,17bc <EXTI9_5_IRQHandler+0xa2>
    1760:	02000513          	li	a0,32
    1764:	39dd                	jal	145a <HAL_GPIO_EXTI_Callback>
    1766:	04000513          	li	a0,64
    176a:	39c5                	jal	145a <HAL_GPIO_EXTI_Callback>
    176c:	08000513          	li	a0,128
    1770:	31ed                	jal	145a <HAL_GPIO_EXTI_Callback>
    1772:	10000513          	li	a0,256
    1776:	31d5                	jal	145a <HAL_GPIO_EXTI_Callback>
    1778:	20000513          	li	a0,512
    177c:	39f9                	jal	145a <HAL_GPIO_EXTI_Callback>
    177e:	3e000513          	li	a0,992
    1782:	e97fe0ef          	jal	ra,618 <EXTI_ClearITPendingBit>
    1786:	4bc020ef          	jal	ra,3c42 <rt_interrupt_leave>
    178a:	34011173          	csrrw	sp,mscratch,sp
    178e:	6036                	flw	ft0,76(sp)
    1790:	60a6                	flw	ft1,72(sp)
    1792:	6116                	flw	ft2,68(sp)
    1794:	6186                	flw	ft3,64(sp)
    1796:	7272                	flw	ft4,60(sp)
    1798:	72e2                	flw	ft5,56(sp)
    179a:	7352                	flw	ft6,52(sp)
    179c:	73c2                	flw	ft7,48(sp)
    179e:	7532                	flw	fa0,44(sp)
    17a0:	75a2                	flw	fa1,40(sp)
    17a2:	7612                	flw	fa2,36(sp)
    17a4:	7682                	flw	fa3,32(sp)
    17a6:	6772                	flw	fa4,28(sp)
    17a8:	67e2                	flw	fa5,24(sp)
    17aa:	6852                	flw	fa6,20(sp)
    17ac:	68c2                	flw	fa7,16(sp)
    17ae:	6e32                	flw	ft8,12(sp)
    17b0:	6ea2                	flw	ft9,8(sp)
    17b2:	6f12                	flw	ft10,4(sp)
    17b4:	6f82                	flw	ft11,0(sp)
    17b6:	6161                	addi	sp,sp,80
    17b8:	30200073          	mret
    17bc:	08000513          	li	a0,128
    17c0:	e39fe0ef          	jal	ra,5f8 <EXTI_GetITStatus>
    17c4:	fd51                	bnez	a0,1760 <EXTI9_5_IRQHandler+0x46>
    17c6:	10000513          	li	a0,256
    17ca:	e2ffe0ef          	jal	ra,5f8 <EXTI_GetITStatus>
    17ce:	f949                	bnez	a0,1760 <EXTI9_5_IRQHandler+0x46>
    17d0:	20000513          	li	a0,512
    17d4:	e25fe0ef          	jal	ra,5f8 <EXTI_GetITStatus>
    17d8:	d55d                	beqz	a0,1786 <EXTI9_5_IRQHandler+0x6c>
    17da:	b759                	j	1760 <EXTI9_5_IRQHandler+0x46>

000017dc <EXTI15_10_IRQHandler>:
    17dc:	715d                	addi	sp,sp,-80
    17de:	e682                	fsw	ft0,76(sp)
    17e0:	e486                	fsw	ft1,72(sp)
    17e2:	e28a                	fsw	ft2,68(sp)
    17e4:	e08e                	fsw	ft3,64(sp)
    17e6:	fe12                	fsw	ft4,60(sp)
    17e8:	fc16                	fsw	ft5,56(sp)
    17ea:	fa1a                	fsw	ft6,52(sp)
    17ec:	f81e                	fsw	ft7,48(sp)
    17ee:	f62a                	fsw	fa0,44(sp)
    17f0:	f42e                	fsw	fa1,40(sp)
    17f2:	f232                	fsw	fa2,36(sp)
    17f4:	f036                	fsw	fa3,32(sp)
    17f6:	ee3a                	fsw	fa4,28(sp)
    17f8:	ec3e                	fsw	fa5,24(sp)
    17fa:	ea42                	fsw	fa6,20(sp)
    17fc:	e846                	fsw	fa7,16(sp)
    17fe:	e672                	fsw	ft8,12(sp)
    1800:	e476                	fsw	ft9,8(sp)
    1802:	e27a                	fsw	ft10,4(sp)
    1804:	e07e                	fsw	ft11,0(sp)
    1806:	34011173          	csrrw	sp,mscratch,sp
    180a:	402020ef          	jal	ra,3c0c <rt_interrupt_enter>
    180e:	40000513          	li	a0,1024
    1812:	de7fe0ef          	jal	ra,5f8 <EXTI_GetITStatus>
    1816:	e519                	bnez	a0,1824 <EXTI15_10_IRQHandler+0x48>
    1818:	6505                	lui	a0,0x1
    181a:	80050513          	addi	a0,a0,-2048 # 800 <__stack_size>
    181e:	ddbfe0ef          	jal	ra,5f8 <EXTI_GetITStatus>
    1822:	c125                	beqz	a0,1882 <EXTI15_10_IRQHandler+0xa6>
    1824:	40000513          	li	a0,1024
    1828:	390d                	jal	145a <HAL_GPIO_EXTI_Callback>
    182a:	6505                	lui	a0,0x1
    182c:	80050513          	addi	a0,a0,-2048 # 800 <__stack_size>
    1830:	312d                	jal	145a <HAL_GPIO_EXTI_Callback>
    1832:	6505                	lui	a0,0x1
    1834:	311d                	jal	145a <HAL_GPIO_EXTI_Callback>
    1836:	6509                	lui	a0,0x2
    1838:	310d                	jal	145a <HAL_GPIO_EXTI_Callback>
    183a:	6511                	lui	a0,0x4
    183c:	3939                	jal	145a <HAL_GPIO_EXTI_Callback>
    183e:	6521                	lui	a0,0x8
    1840:	3929                	jal	145a <HAL_GPIO_EXTI_Callback>
    1842:	6541                	lui	a0,0x10
    1844:	c0050513          	addi	a0,a0,-1024 # fc00 <__rt_init_end+0x7e7c>
    1848:	dd1fe0ef          	jal	ra,618 <EXTI_ClearITPendingBit>
    184c:	3f6020ef          	jal	ra,3c42 <rt_interrupt_leave>
    1850:	34011173          	csrrw	sp,mscratch,sp
    1854:	6036                	flw	ft0,76(sp)
    1856:	60a6                	flw	ft1,72(sp)
    1858:	6116                	flw	ft2,68(sp)
    185a:	6186                	flw	ft3,64(sp)
    185c:	7272                	flw	ft4,60(sp)
    185e:	72e2                	flw	ft5,56(sp)
    1860:	7352                	flw	ft6,52(sp)
    1862:	73c2                	flw	ft7,48(sp)
    1864:	7532                	flw	fa0,44(sp)
    1866:	75a2                	flw	fa1,40(sp)
    1868:	7612                	flw	fa2,36(sp)
    186a:	7682                	flw	fa3,32(sp)
    186c:	6772                	flw	fa4,28(sp)
    186e:	67e2                	flw	fa5,24(sp)
    1870:	6852                	flw	fa6,20(sp)
    1872:	68c2                	flw	fa7,16(sp)
    1874:	6e32                	flw	ft8,12(sp)
    1876:	6ea2                	flw	ft9,8(sp)
    1878:	6f12                	flw	ft10,4(sp)
    187a:	6f82                	flw	ft11,0(sp)
    187c:	6161                	addi	sp,sp,80
    187e:	30200073          	mret
    1882:	6505                	lui	a0,0x1
    1884:	d75fe0ef          	jal	ra,5f8 <EXTI_GetITStatus>
    1888:	fd51                	bnez	a0,1824 <EXTI15_10_IRQHandler+0x48>
    188a:	6509                	lui	a0,0x2
    188c:	d6dfe0ef          	jal	ra,5f8 <EXTI_GetITStatus>
    1890:	f951                	bnez	a0,1824 <EXTI15_10_IRQHandler+0x48>
    1892:	6511                	lui	a0,0x4
    1894:	d65fe0ef          	jal	ra,5f8 <EXTI_GetITStatus>
    1898:	f551                	bnez	a0,1824 <EXTI15_10_IRQHandler+0x48>
    189a:	6521                	lui	a0,0x8
    189c:	d5dfe0ef          	jal	ra,5f8 <EXTI_GetITStatus>
    18a0:	d555                	beqz	a0,184c <EXTI15_10_IRQHandler+0x70>
    18a2:	b749                	j	1824 <EXTI15_10_IRQHandler+0x48>

000018a4 <ch32dma_transmit>:
    18a4:	4501                	li	a0,0
    18a6:	8082                	ret

000018a8 <uart_isr>:
    18a8:	1141                	addi	sp,sp,-16
    18aa:	c606                	sw	ra,12(sp)
    18ac:	c422                	sw	s0,8(sp)
    18ae:	c226                	sw	s1,4(sp)
    18b0:	84aa                	mv	s1,a0
    18b2:	4120                	lw	s0,64(a0)
    18b4:	52500593          	li	a1,1317
    18b8:	4808                	lw	a0,16(s0)
    18ba:	9aeff0ef          	jal	ra,a68 <USART_GetITStatus>
    18be:	e511                	bnez	a0,18ca <uart_isr+0x22>
    18c0:	40b2                	lw	ra,12(sp)
    18c2:	4422                	lw	s0,8(sp)
    18c4:	4492                	lw	s1,4(sp)
    18c6:	0141                	addi	sp,sp,16
    18c8:	8082                	ret
    18ca:	4585                	li	a1,1
    18cc:	8526                	mv	a0,s1
    18ce:	0c5000ef          	jal	ra,2192 <rt_hw_serial_isr>
    18d2:	52500593          	li	a1,1317
    18d6:	4808                	lw	a0,16(s0)
    18d8:	9daff0ef          	jal	ra,ab2 <USART_ClearITPendingBit>
    18dc:	b7d5                	j	18c0 <uart_isr+0x18>

000018de <ch32_configure>:
    18de:	1101                	addi	sp,sp,-32
    18e0:	ce06                	sw	ra,28(sp)
    18e2:	cc22                	sw	s0,24(sp)
    18e4:	ca26                	sw	s1,20(sp)
    18e6:	c84a                	sw	s2,16(sp)
    18e8:	4120                	lw	s0,64(a0)
    18ea:	419c                	lw	a5,0(a1)
    18ec:	c01c                	sw	a5,0(s0)
    18ee:	00041623          	sh	zero,12(s0)
    18f2:	47b1                	li	a5,12
    18f4:	00f41523          	sh	a5,10(s0)
    18f8:	41dc                	lw	a5,4(a1)
    18fa:	8bbd                	andi	a5,a5,15
    18fc:	4721                	li	a4,8
    18fe:	00e78863          	beq	a5,a4,190e <ch32_configure+0x30>
    1902:	4725                	li	a4,9
    1904:	02e78163          	beq	a5,a4,1926 <ch32_configure+0x48>
    1908:	00041223          	sh	zero,4(s0)
    190c:	a019                	j	1912 <ch32_configure+0x34>
    190e:	00041223          	sh	zero,4(s0)
    1912:	41dc                	lw	a5,4(a1)
    1914:	8391                	srli	a5,a5,0x4
    1916:	8b8d                	andi	a5,a5,3
    1918:	cb99                	beqz	a5,192e <ch32_configure+0x50>
    191a:	4705                	li	a4,1
    191c:	02e78b63          	beq	a5,a4,1952 <ch32_configure+0x74>
    1920:	00041323          	sh	zero,6(s0)
    1924:	a039                	j	1932 <ch32_configure+0x54>
    1926:	6785                	lui	a5,0x1
    1928:	00f41223          	sh	a5,4(s0)
    192c:	b7dd                	j	1912 <ch32_configure+0x34>
    192e:	00041323          	sh	zero,6(s0)
    1932:	41dc                	lw	a5,4(a1)
    1934:	8399                	srli	a5,a5,0x6
    1936:	8b8d                	andi	a5,a5,3
    1938:	4705                	li	a4,1
    193a:	04e78063          	beq	a5,a4,197a <ch32_configure+0x9c>
    193e:	01879713          	slli	a4,a5,0x18
    1942:	8761                	srai	a4,a4,0x18
    1944:	cb19                	beqz	a4,195a <ch32_configure+0x7c>
    1946:	4709                	li	a4,2
    1948:	02e78e63          	beq	a5,a4,1984 <ch32_configure+0xa6>
    194c:	00041423          	sh	zero,8(s0)
    1950:	a039                	j	195e <ch32_configure+0x80>
    1952:	6789                	lui	a5,0x2
    1954:	00f41323          	sh	a5,6(s0)
    1958:	bfe9                	j	1932 <ch32_configure+0x54>
    195a:	00041423          	sh	zero,8(s0)
    195e:	4818                	lw	a4,16(s0)
    1960:	400147b7          	lui	a5,0x40014
    1964:	80078793          	addi	a5,a5,-2048 # 40013800 <_eusrstack+0x20003800>
    1968:	02f70363          	beq	a4,a5,198e <ch32_configure+0xb0>
    196c:	4501                	li	a0,0
    196e:	40f2                	lw	ra,28(sp)
    1970:	4462                	lw	s0,24(sp)
    1972:	44d2                	lw	s1,20(sp)
    1974:	4942                	lw	s2,16(sp)
    1976:	6105                	addi	sp,sp,32
    1978:	8082                	ret
    197a:	60000793          	li	a5,1536
    197e:	00f41423          	sh	a5,8(s0)
    1982:	bff1                	j	195e <ch32_configure+0x80>
    1984:	40000793          	li	a5,1024
    1988:	00f41423          	sh	a5,8(s0)
    198c:	bfc9                	j	195e <ch32_configure+0x80>
    198e:	4585                	li	a1,1
    1990:	6511                	lui	a0,0x4
    1992:	0511                	addi	a0,a0,4
    1994:	f8bfe0ef          	jal	ra,91e <RCC_APB2PeriphClockCmd>
    1998:	20000793          	li	a5,512
    199c:	00f11223          	sh	a5,4(sp)
    19a0:	490d                	li	s2,3
    19a2:	c44a                	sw	s2,8(sp)
    19a4:	47e1                	li	a5,24
    19a6:	c63e                	sw	a5,12(sp)
    19a8:	004c                	addi	a1,sp,4
    19aa:	400114b7          	lui	s1,0x40011
    19ae:	80048513          	addi	a0,s1,-2048 # 40010800 <_eusrstack+0x20000800>
    19b2:	c71fe0ef          	jal	ra,622 <GPIO_Init>
    19b6:	40000793          	li	a5,1024
    19ba:	00f11223          	sh	a5,4(sp)
    19be:	c44a                	sw	s2,8(sp)
    19c0:	4791                	li	a5,4
    19c2:	c63e                	sw	a5,12(sp)
    19c4:	004c                	addi	a1,sp,4
    19c6:	80048513          	addi	a0,s1,-2048
    19ca:	c59fe0ef          	jal	ra,622 <GPIO_Init>
    19ce:	85a2                	mv	a1,s0
    19d0:	4808                	lw	a0,16(s0)
    19d2:	f6bfe0ef          	jal	ra,93c <USART_Init>
    19d6:	4585                	li	a1,1
    19d8:	4808                	lw	a0,16(s0)
    19da:	81eff0ef          	jal	ra,9f8 <USART_Cmd>
    19de:	b779                	j	196c <ch32_configure+0x8e>

000019e0 <rt_hw_usart_init>:
    19e0:	7139                	addi	sp,sp,-64
    19e2:	de06                	sw	ra,60(sp)
    19e4:	dc22                	sw	s0,56(sp)
    19e6:	da26                	sw	s1,52(sp)
    19e8:	d84a                	sw	s2,48(sp)
    19ea:	d64e                	sw	s3,44(sp)
    19ec:	6771                	lui	a4,0x1c
    19ee:	20070713          	addi	a4,a4,512 # 1c200 <__rt_init_end+0x1447c>
    19f2:	47f2                	lw	a5,28(sp)
    19f4:	9bc1                	andi	a5,a5,-16
    19f6:	0087e793          	ori	a5,a5,8
    19fa:	c0f7f793          	andi	a5,a5,-1009
    19fe:	fc0006b7          	lui	a3,0xfc000
    1a02:	3ff68693          	addi	a3,a3,1023 # fc0003ff <_eusrstack+0xdbff03ff>
    1a06:	8ff5                	and	a5,a5,a3
    1a08:	66c1                	lui	a3,0x10
    1a0a:	8fd5                	or	a5,a5,a3
    1a0c:	c40006b7          	lui	a3,0xc4000
    1a10:	16fd                	addi	a3,a3,-1
    1a12:	8ff5                	and	a5,a5,a3
    1a14:	ce3e                	sw	a5,28(sp)
    1a16:	92018413          	addi	s0,gp,-1760 # 200002e0 <uart1>
    1a1a:	03500693          	li	a3,53
    1a1e:	c854                	sw	a3,20(s0)
    1a20:	400146b7          	lui	a3,0x40014
    1a24:	80068693          	addi	a3,a3,-2048 # 40013800 <_eusrstack+0x20003800>
    1a28:	c814                	sw	a3,16(s0)
    1a2a:	8c818493          	addi	s1,gp,-1848 # 20000288 <serial1>
    1a2e:	00005697          	auipc	a3,0x5
    1a32:	27e68693          	addi	a3,a3,638 # 6cac <ch32_uart_ops>
    1a36:	c0f4                	sw	a3,68(s1)
    1a38:	c4b8                	sw	a4,72(s1)
    1a3a:	c4fc                	sw	a5,76(s1)
    1a3c:	c018                	sw	a4,0(s0)
    1a3e:	00041623          	sh	zero,12(s0)
    1a42:	47b1                	li	a5,12
    1a44:	00f41523          	sh	a5,10(s0)
    1a48:	00041223          	sh	zero,4(s0)
    1a4c:	00041323          	sh	zero,6(s0)
    1a50:	00041423          	sh	zero,8(s0)
    1a54:	4585                	li	a1,1
    1a56:	6511                	lui	a0,0x4
    1a58:	0511                	addi	a0,a0,4
    1a5a:	ec5fe0ef          	jal	ra,91e <RCC_APB2PeriphClockCmd>
    1a5e:	20000793          	li	a5,512
    1a62:	00f11623          	sh	a5,12(sp)
    1a66:	498d                	li	s3,3
    1a68:	c84e                	sw	s3,16(sp)
    1a6a:	47e1                	li	a5,24
    1a6c:	ca3e                	sw	a5,20(sp)
    1a6e:	006c                	addi	a1,sp,12
    1a70:	40011937          	lui	s2,0x40011
    1a74:	80090513          	addi	a0,s2,-2048 # 40010800 <_eusrstack+0x20000800>
    1a78:	babfe0ef          	jal	ra,622 <GPIO_Init>
    1a7c:	40000793          	li	a5,1024
    1a80:	00f11623          	sh	a5,12(sp)
    1a84:	c84e                	sw	s3,16(sp)
    1a86:	4791                	li	a5,4
    1a88:	ca3e                	sw	a5,20(sp)
    1a8a:	006c                	addi	a1,sp,12
    1a8c:	80090513          	addi	a0,s2,-2048
    1a90:	b93fe0ef          	jal	ra,622 <GPIO_Init>
    1a94:	85a2                	mv	a1,s0
    1a96:	4808                	lw	a0,16(s0)
    1a98:	ea5fe0ef          	jal	ra,93c <USART_Init>
    1a9c:	4585                	li	a1,1
    1a9e:	4808                	lw	a0,16(s0)
    1aa0:	f59fe0ef          	jal	ra,9f8 <USART_Cmd>
    1aa4:	86a2                	mv	a3,s0
    1aa6:	10300613          	li	a2,259
    1aaa:	00005597          	auipc	a1,0x5
    1aae:	21658593          	addi	a1,a1,534 # 6cc0 <ch32_uart_ops+0x14>
    1ab2:	8526                	mv	a0,s1
    1ab4:	2549                	jal	2136 <rt_hw_serial_register>
    1ab6:	4501                	li	a0,0
    1ab8:	50f2                	lw	ra,60(sp)
    1aba:	5462                	lw	s0,56(sp)
    1abc:	54d2                	lw	s1,52(sp)
    1abe:	5942                	lw	s2,48(sp)
    1ac0:	59b2                	lw	s3,44(sp)
    1ac2:	6121                	addi	sp,sp,64
    1ac4:	8082                	ret

00001ac6 <ch32_getc>:
    1ac6:	1141                	addi	sp,sp,-16
    1ac8:	c606                	sw	ra,12(sp)
    1aca:	c422                	sw	s0,8(sp)
    1acc:	4120                	lw	s0,64(a0)
    1ace:	02000593          	li	a1,32
    1ad2:	4808                	lw	a0,16(s0)
    1ad4:	f85fe0ef          	jal	ra,a58 <USART_GetFlagStatus>
    1ad8:	c911                	beqz	a0,1aec <ch32_getc+0x26>
    1ada:	481c                	lw	a5,16(s0)
    1adc:	0047d503          	lhu	a0,4(a5)
    1ae0:	0ff57513          	andi	a0,a0,255
    1ae4:	40b2                	lw	ra,12(sp)
    1ae6:	4422                	lw	s0,8(sp)
    1ae8:	0141                	addi	sp,sp,16
    1aea:	8082                	ret
    1aec:	557d                	li	a0,-1
    1aee:	bfdd                	j	1ae4 <ch32_getc+0x1e>

00001af0 <ch32_putc>:
    1af0:	1141                	addi	sp,sp,-16
    1af2:	c606                	sw	ra,12(sp)
    1af4:	c422                	sw	s0,8(sp)
    1af6:	c226                	sw	s1,4(sp)
    1af8:	84ae                	mv	s1,a1
    1afa:	4120                	lw	s0,64(a0)
    1afc:	04000593          	li	a1,64
    1b00:	4808                	lw	a0,16(s0)
    1b02:	f57fe0ef          	jal	ra,a58 <USART_GetFlagStatus>
    1b06:	d97d                	beqz	a0,1afc <ch32_putc+0xc>
    1b08:	481c                	lw	a5,16(s0)
    1b0a:	04c2                	slli	s1,s1,0x10
    1b0c:	80c1                	srli	s1,s1,0x10
    1b0e:	00979223          	sh	s1,4(a5)
    1b12:	4505                	li	a0,1
    1b14:	40b2                	lw	ra,12(sp)
    1b16:	4422                	lw	s0,8(sp)
    1b18:	4492                	lw	s1,4(sp)
    1b1a:	0141                	addi	sp,sp,16
    1b1c:	8082                	ret

00001b1e <ch32_control>:
    1b1e:	1141                	addi	sp,sp,-16
    1b20:	c606                	sw	ra,12(sp)
    1b22:	413c                	lw	a5,64(a0)
    1b24:	4741                	li	a4,16
    1b26:	02e58c63          	beq	a1,a4,1b5e <ch32_control+0x40>
    1b2a:	4745                	li	a4,17
    1b2c:	02e59563          	bne	a1,a4,1b56 <ch32_control+0x38>
    1b30:	4bd4                	lw	a3,20(a5)
    1b32:	0056d713          	srli	a4,a3,0x5
    1b36:	4605                	li	a2,1
    1b38:	00d61633          	sll	a2,a2,a3
    1b3c:	06070713          	addi	a4,a4,96
    1b40:	070a                	slli	a4,a4,0x2
    1b42:	e000e6b7          	lui	a3,0xe000e
    1b46:	9736                	add	a4,a4,a3
    1b48:	c310                	sw	a2,0(a4)
    1b4a:	4601                	li	a2,0
    1b4c:	52500593          	li	a1,1317
    1b50:	4b88                	lw	a0,16(a5)
    1b52:	ec7fe0ef          	jal	ra,a18 <USART_ITConfig>
    1b56:	4501                	li	a0,0
    1b58:	40b2                	lw	ra,12(sp)
    1b5a:	0141                	addi	sp,sp,16
    1b5c:	8082                	ret
    1b5e:	4bd4                	lw	a3,20(a5)
    1b60:	0056d713          	srli	a4,a3,0x5
    1b64:	4605                	li	a2,1
    1b66:	00d61633          	sll	a2,a2,a3
    1b6a:	04070713          	addi	a4,a4,64
    1b6e:	070a                	slli	a4,a4,0x2
    1b70:	e000e6b7          	lui	a3,0xe000e
    1b74:	9736                	add	a4,a4,a3
    1b76:	c310                	sw	a2,0(a4)
    1b78:	4605                	li	a2,1
    1b7a:	52500593          	li	a1,1317
    1b7e:	4b88                	lw	a0,16(a5)
    1b80:	e99fe0ef          	jal	ra,a18 <USART_ITConfig>
    1b84:	bfc9                	j	1b56 <ch32_control+0x38>

00001b86 <USART1_IRQHandler>:
    1b86:	715d                	addi	sp,sp,-80
    1b88:	e682                	fsw	ft0,76(sp)
    1b8a:	e486                	fsw	ft1,72(sp)
    1b8c:	e28a                	fsw	ft2,68(sp)
    1b8e:	e08e                	fsw	ft3,64(sp)
    1b90:	fe12                	fsw	ft4,60(sp)
    1b92:	fc16                	fsw	ft5,56(sp)
    1b94:	fa1a                	fsw	ft6,52(sp)
    1b96:	f81e                	fsw	ft7,48(sp)
    1b98:	f62a                	fsw	fa0,44(sp)
    1b9a:	f42e                	fsw	fa1,40(sp)
    1b9c:	f232                	fsw	fa2,36(sp)
    1b9e:	f036                	fsw	fa3,32(sp)
    1ba0:	ee3a                	fsw	fa4,28(sp)
    1ba2:	ec3e                	fsw	fa5,24(sp)
    1ba4:	ea42                	fsw	fa6,20(sp)
    1ba6:	e846                	fsw	fa7,16(sp)
    1ba8:	e672                	fsw	ft8,12(sp)
    1baa:	e476                	fsw	ft9,8(sp)
    1bac:	e27a                	fsw	ft10,4(sp)
    1bae:	e07e                	fsw	ft11,0(sp)
    1bb0:	34011173          	csrrw	sp,mscratch,sp
    1bb4:	058020ef          	jal	ra,3c0c <rt_interrupt_enter>
    1bb8:	8c818513          	addi	a0,gp,-1848 # 20000288 <serial1>
    1bbc:	31f5                	jal	18a8 <uart_isr>
    1bbe:	084020ef          	jal	ra,3c42 <rt_interrupt_leave>
    1bc2:	34011173          	csrrw	sp,mscratch,sp
    1bc6:	6036                	flw	ft0,76(sp)
    1bc8:	60a6                	flw	ft1,72(sp)
    1bca:	6116                	flw	ft2,68(sp)
    1bcc:	6186                	flw	ft3,64(sp)
    1bce:	7272                	flw	ft4,60(sp)
    1bd0:	72e2                	flw	ft5,56(sp)
    1bd2:	7352                	flw	ft6,52(sp)
    1bd4:	73c2                	flw	ft7,48(sp)
    1bd6:	7532                	flw	fa0,44(sp)
    1bd8:	75a2                	flw	fa1,40(sp)
    1bda:	7612                	flw	fa2,36(sp)
    1bdc:	7682                	flw	fa3,32(sp)
    1bde:	6772                	flw	fa4,28(sp)
    1be0:	67e2                	flw	fa5,24(sp)
    1be2:	6852                	flw	fa6,20(sp)
    1be4:	68c2                	flw	fa7,16(sp)
    1be6:	6e32                	flw	ft8,12(sp)
    1be8:	6ea2                	flw	ft9,8(sp)
    1bea:	6f12                	flw	ft10,4(sp)
    1bec:	6f82                	flw	ft11,0(sp)
    1bee:	6161                	addi	sp,sp,80
    1bf0:	30200073          	mret

00001bf4 <_SysTick_Config>:
    1bf4:	e000e7b7          	lui	a5,0xe000e
    1bf8:	5741                	li	a4,-16
    1bfa:	40e78623          	sb	a4,1036(a5) # e000e40c <_eusrstack+0xbfffe40c>
    1bfe:	40e78723          	sb	a4,1038(a5)
    1c02:	6705                	lui	a4,0x1
    1c04:	10e7a023          	sw	a4,256(a5)
    1c08:	6711                	lui	a4,0x4
    1c0a:	10e7a023          	sw	a4,256(a5)
    1c0e:	e000f7b7          	lui	a5,0xe000f
    1c12:	0007a023          	sw	zero,0(a5) # e000f000 <_eusrstack+0xbffff000>
    1c16:	0007a223          	sw	zero,4(a5)
    1c1a:	4681                	li	a3,0
    1c1c:	4701                	li	a4,0
    1c1e:	c794                	sw	a3,8(a5)
    1c20:	c7d8                	sw	a4,12(a5)
    1c22:	fff50613          	addi	a2,a0,-1 # 3fff <rt_vsnprintf+0xd7>
    1c26:	4681                	li	a3,0
    1c28:	cb90                	sw	a2,16(a5)
    1c2a:	cbd4                	sw	a3,20(a5)
    1c2c:	473d                	li	a4,15
    1c2e:	c398                	sw	a4,0(a5)
    1c30:	4501                	li	a0,0
    1c32:	8082                	ret

00001c34 <rt_heap_begin_get>:
    1c34:	1fffe517          	auipc	a0,0x1fffe
    1c38:	6c450513          	addi	a0,a0,1732 # 200002f8 <rt_heap>
    1c3c:	8082                	ret

00001c3e <rt_heap_end_get>:
    1c3e:	1ffff517          	auipc	a0,0x1ffff
    1c42:	6ba50513          	addi	a0,a0,1722 # 200012f8 <_hw_pin>
    1c46:	8082                	ret

00001c48 <rt_hw_board_init>:
    1c48:	1141                	addi	sp,sp,-16
    1c4a:	c606                	sw	ra,12(sp)
    1c4c:	c422                	sw	s0,8(sp)
    1c4e:	80818793          	addi	a5,gp,-2040 # 200001c8 <SystemCoreClock>
    1c52:	4388                	lw	a0,0(a5)
    1c54:	3e800793          	li	a5,1000
    1c58:	02f55533          	divu	a0,a0,a5
    1c5c:	3f61                	jal	1bf4 <_SysTick_Config>
    1c5e:	267010ef          	jal	ra,36c4 <rt_components_board_init>
    1c62:	3fc9                	jal	1c34 <rt_heap_begin_get>
    1c64:	842a                	mv	s0,a0
    1c66:	3fe1                	jal	1c3e <rt_heap_end_get>
    1c68:	85aa                	mv	a1,a0
    1c6a:	8522                	mv	a0,s0
    1c6c:	051020ef          	jal	ra,44bc <rt_system_heap_init>
    1c70:	00005517          	auipc	a0,0x5
    1c74:	05050513          	addi	a0,a0,80 # 6cc0 <ch32_uart_ops+0x14>
    1c78:	634020ef          	jal	ra,42ac <rt_console_set_device>
    1c7c:	40b2                	lw	ra,12(sp)
    1c7e:	4422                	lw	s0,8(sp)
    1c80:	0141                	addi	sp,sp,16
    1c82:	8082                	ret

00001c84 <SysTick_Handler>:
    1c84:	715d                	addi	sp,sp,-80
    1c86:	e682                	fsw	ft0,76(sp)
    1c88:	e486                	fsw	ft1,72(sp)
    1c8a:	e28a                	fsw	ft2,68(sp)
    1c8c:	e08e                	fsw	ft3,64(sp)
    1c8e:	fe12                	fsw	ft4,60(sp)
    1c90:	fc16                	fsw	ft5,56(sp)
    1c92:	fa1a                	fsw	ft6,52(sp)
    1c94:	f81e                	fsw	ft7,48(sp)
    1c96:	f62a                	fsw	fa0,44(sp)
    1c98:	f42e                	fsw	fa1,40(sp)
    1c9a:	f232                	fsw	fa2,36(sp)
    1c9c:	f036                	fsw	fa3,32(sp)
    1c9e:	ee3a                	fsw	fa4,28(sp)
    1ca0:	ec3e                	fsw	fa5,24(sp)
    1ca2:	ea42                	fsw	fa6,20(sp)
    1ca4:	e846                	fsw	fa7,16(sp)
    1ca6:	e672                	fsw	ft8,12(sp)
    1ca8:	e476                	fsw	ft9,8(sp)
    1caa:	e27a                	fsw	ft10,4(sp)
    1cac:	e07e                	fsw	ft11,0(sp)
    1cae:	34011173          	csrrw	sp,mscratch,sp
    1cb2:	75b010ef          	jal	ra,3c0c <rt_interrupt_enter>
    1cb6:	e000f7b7          	lui	a5,0xe000f
    1cba:	0007a223          	sw	zero,4(a5) # e000f004 <_eusrstack+0xbffff004>
    1cbe:	1a1010ef          	jal	ra,365e <rt_tick_increase>
    1cc2:	781010ef          	jal	ra,3c42 <rt_interrupt_leave>
    1cc6:	34011173          	csrrw	sp,mscratch,sp
    1cca:	6036                	flw	ft0,76(sp)
    1ccc:	60a6                	flw	ft1,72(sp)
    1cce:	6116                	flw	ft2,68(sp)
    1cd0:	6186                	flw	ft3,64(sp)
    1cd2:	7272                	flw	ft4,60(sp)
    1cd4:	72e2                	flw	ft5,56(sp)
    1cd6:	7352                	flw	ft6,52(sp)
    1cd8:	73c2                	flw	ft7,48(sp)
    1cda:	7532                	flw	fa0,44(sp)
    1cdc:	75a2                	flw	fa1,40(sp)
    1cde:	7612                	flw	fa2,36(sp)
    1ce0:	7682                	flw	fa3,32(sp)
    1ce2:	6772                	flw	fa4,28(sp)
    1ce4:	67e2                	flw	fa5,24(sp)
    1ce6:	6852                	flw	fa6,20(sp)
    1ce8:	68c2                	flw	fa7,16(sp)
    1cea:	6e32                	flw	ft8,12(sp)
    1cec:	6ea2                	flw	ft9,8(sp)
    1cee:	6f12                	flw	ft10,4(sp)
    1cf0:	6f82                	flw	ft11,0(sp)
    1cf2:	6161                	addi	sp,sp,80
    1cf4:	30200073          	mret

00001cf8 <_pin_read>:
    1cf8:	c61d                	beqz	a2,1d26 <_pin_read+0x2e>
    1cfa:	4791                	li	a5,4
    1cfc:	02f69763          	bne	a3,a5,1d2a <_pin_read+0x32>
    1d00:	1141                	addi	sp,sp,-16
    1d02:	c606                	sw	ra,12(sp)
    1d04:	c422                	sw	s0,8(sp)
    1d06:	c226                	sw	s1,4(sp)
    1d08:	8436                	mv	s0,a3
    1d0a:	84b2                	mv	s1,a2
    1d0c:	417c                	lw	a5,68(a0)
    1d0e:	479c                	lw	a5,8(a5)
    1d10:	00065583          	lhu	a1,0(a2) # 10000000 <__rt_init_end+0xfff827c>
    1d14:	9782                	jalr	a5
    1d16:	00a49123          	sh	a0,2(s1)
    1d1a:	8522                	mv	a0,s0
    1d1c:	40b2                	lw	ra,12(sp)
    1d1e:	4422                	lw	s0,8(sp)
    1d20:	4492                	lw	s1,4(sp)
    1d22:	0141                	addi	sp,sp,16
    1d24:	8082                	ret
    1d26:	4501                	li	a0,0
    1d28:	8082                	ret
    1d2a:	4501                	li	a0,0
    1d2c:	8082                	ret

00001d2e <_pin_write>:
    1d2e:	c60d                	beqz	a2,1d58 <_pin_write+0x2a>
    1d30:	4791                	li	a5,4
    1d32:	02f69563          	bne	a3,a5,1d5c <_pin_write+0x2e>
    1d36:	1141                	addi	sp,sp,-16
    1d38:	c606                	sw	ra,12(sp)
    1d3a:	c422                	sw	s0,8(sp)
    1d3c:	8436                	mv	s0,a3
    1d3e:	87b2                	mv	a5,a2
    1d40:	4178                	lw	a4,68(a0)
    1d42:	4358                	lw	a4,4(a4)
    1d44:	00265603          	lhu	a2,2(a2)
    1d48:	0007d583          	lhu	a1,0(a5)
    1d4c:	9702                	jalr	a4
    1d4e:	8522                	mv	a0,s0
    1d50:	40b2                	lw	ra,12(sp)
    1d52:	4422                	lw	s0,8(sp)
    1d54:	0141                	addi	sp,sp,16
    1d56:	8082                	ret
    1d58:	4501                	li	a0,0
    1d5a:	8082                	ret
    1d5c:	4501                	li	a0,0
    1d5e:	8082                	ret

00001d60 <_pin_control>:
    1d60:	ce19                	beqz	a2,1d7e <_pin_control+0x1e>
    1d62:	1141                	addi	sp,sp,-16
    1d64:	c606                	sw	ra,12(sp)
    1d66:	87b2                	mv	a5,a2
    1d68:	4178                	lw	a4,68(a0)
    1d6a:	4318                	lw	a4,0(a4)
    1d6c:	00265603          	lhu	a2,2(a2)
    1d70:	0007d583          	lhu	a1,0(a5)
    1d74:	9702                	jalr	a4
    1d76:	4501                	li	a0,0
    1d78:	40b2                	lw	ra,12(sp)
    1d7a:	0141                	addi	sp,sp,16
    1d7c:	8082                	ret
    1d7e:	557d                	li	a0,-1
    1d80:	8082                	ret

00001d82 <rt_pin_mode>:
    1d82:	1141                	addi	sp,sp,-16
    1d84:	c606                	sw	ra,12(sp)
    1d86:	1ffff797          	auipc	a5,0x1ffff
    1d8a:	57278793          	addi	a5,a5,1394 # 200012f8 <_hw_pin>
    1d8e:	43f8                	lw	a4,68(a5)
    1d90:	4318                	lw	a4,0(a4)
    1d92:	862e                	mv	a2,a1
    1d94:	85aa                	mv	a1,a0
    1d96:	853e                	mv	a0,a5
    1d98:	9702                	jalr	a4
    1d9a:	40b2                	lw	ra,12(sp)
    1d9c:	0141                	addi	sp,sp,16
    1d9e:	8082                	ret

00001da0 <rt_pin_write>:
    1da0:	1141                	addi	sp,sp,-16
    1da2:	c606                	sw	ra,12(sp)
    1da4:	1ffff797          	auipc	a5,0x1ffff
    1da8:	55478793          	addi	a5,a5,1364 # 200012f8 <_hw_pin>
    1dac:	43f8                	lw	a4,68(a5)
    1dae:	4358                	lw	a4,4(a4)
    1db0:	862e                	mv	a2,a1
    1db2:	85aa                	mv	a1,a0
    1db4:	853e                	mv	a0,a5
    1db6:	9702                	jalr	a4
    1db8:	40b2                	lw	ra,12(sp)
    1dba:	0141                	addi	sp,sp,16
    1dbc:	8082                	ret

00001dbe <rt_pin_read>:
    1dbe:	1141                	addi	sp,sp,-16
    1dc0:	c606                	sw	ra,12(sp)
    1dc2:	1ffff797          	auipc	a5,0x1ffff
    1dc6:	53678793          	addi	a5,a5,1334 # 200012f8 <_hw_pin>
    1dca:	43f8                	lw	a4,68(a5)
    1dcc:	4718                	lw	a4,8(a4)
    1dce:	85aa                	mv	a1,a0
    1dd0:	853e                	mv	a0,a5
    1dd2:	9702                	jalr	a4
    1dd4:	40b2                	lw	ra,12(sp)
    1dd6:	0141                	addi	sp,sp,16
    1dd8:	8082                	ret

00001dda <rt_device_pin_register>:
    1dda:	1141                	addi	sp,sp,-16
    1ddc:	c606                	sw	ra,12(sp)
    1dde:	1ffff797          	auipc	a5,0x1ffff
    1de2:	51a78793          	addi	a5,a5,1306 # 200012f8 <_hw_pin>
    1de6:	4749                	li	a4,18
    1de8:	cbd8                	sw	a4,20(a5)
    1dea:	0207a023          	sw	zero,32(a5)
    1dee:	0207a223          	sw	zero,36(a5)
    1df2:	0207a423          	sw	zero,40(a5)
    1df6:	0207a623          	sw	zero,44(a5)
    1dfa:	0207a823          	sw	zero,48(a5)
    1dfe:	00000717          	auipc	a4,0x0
    1e02:	efa70713          	addi	a4,a4,-262 # 1cf8 <_pin_read>
    1e06:	dbd8                	sw	a4,52(a5)
    1e08:	00000717          	auipc	a4,0x0
    1e0c:	f2670713          	addi	a4,a4,-218 # 1d2e <_pin_write>
    1e10:	df98                	sw	a4,56(a5)
    1e12:	00000717          	auipc	a4,0x0
    1e16:	f4e70713          	addi	a4,a4,-178 # 1d60 <_pin_control>
    1e1a:	dfd8                	sw	a4,60(a5)
    1e1c:	c3ec                	sw	a1,68(a5)
    1e1e:	c3b0                	sw	a2,64(a5)
    1e20:	460d                	li	a2,3
    1e22:	85aa                	mv	a1,a0
    1e24:	853e                	mv	a0,a5
    1e26:	1d1010ef          	jal	ra,37f6 <rt_device_register>
    1e2a:	4501                	li	a0,0
    1e2c:	40b2                	lw	ra,12(sp)
    1e2e:	0141                	addi	sp,sp,16
    1e30:	8082                	ret

00001e32 <rt_serial_init>:
    1e32:	04052823          	sw	zero,80(a0)
    1e36:	04052a23          	sw	zero,84(a0)
    1e3a:	417c                	lw	a5,68(a0)
    1e3c:	439c                	lw	a5,0(a5)
    1e3e:	cb89                	beqz	a5,1e50 <rt_serial_init+0x1e>
    1e40:	1141                	addi	sp,sp,-16
    1e42:	c606                	sw	ra,12(sp)
    1e44:	04850593          	addi	a1,a0,72
    1e48:	9782                	jalr	a5
    1e4a:	40b2                	lw	ra,12(sp)
    1e4c:	0141                	addi	sp,sp,16
    1e4e:	8082                	ret
    1e50:	4501                	li	a0,0
    1e52:	8082                	ret

00001e54 <rt_serial_write>:
    1e54:	e299                	bnez	a3,1e5a <rt_serial_write+0x6>
    1e56:	8536                	mv	a0,a3
    1e58:	8082                	ret
    1e5a:	1101                	addi	sp,sp,-32
    1e5c:	ce06                	sw	ra,28(sp)
    1e5e:	cc22                	sw	s0,24(sp)
    1e60:	ca26                	sw	s1,20(sp)
    1e62:	c84a                	sw	s2,16(sp)
    1e64:	c64e                	sw	s3,12(sp)
    1e66:	84aa                	mv	s1,a0
    1e68:	8932                	mv	s2,a2
    1e6a:	89b6                	mv	s3,a3
    1e6c:	8436                	mv	s0,a3
    1e6e:	a809                	j	1e80 <rt_serial_write+0x2c>
    1e70:	40fc                	lw	a5,68(s1)
    1e72:	479c                	lw	a5,8(a5)
    1e74:	00090583          	lb	a1,0(s2)
    1e78:	8526                	mv	a0,s1
    1e7a:	9782                	jalr	a5
    1e7c:	0905                	addi	s2,s2,1
    1e7e:	147d                	addi	s0,s0,-1
    1e80:	c00d                	beqz	s0,1ea2 <rt_serial_write+0x4e>
    1e82:	00094703          	lbu	a4,0(s2)
    1e86:	47a9                	li	a5,10
    1e88:	fef714e3          	bne	a4,a5,1e70 <rt_serial_write+0x1c>
    1e8c:	01a4d783          	lhu	a5,26(s1)
    1e90:	0407f793          	andi	a5,a5,64
    1e94:	dff1                	beqz	a5,1e70 <rt_serial_write+0x1c>
    1e96:	40fc                	lw	a5,68(s1)
    1e98:	479c                	lw	a5,8(a5)
    1e9a:	45b5                	li	a1,13
    1e9c:	8526                	mv	a0,s1
    1e9e:	9782                	jalr	a5
    1ea0:	bfc1                	j	1e70 <rt_serial_write+0x1c>
    1ea2:	408986b3          	sub	a3,s3,s0
    1ea6:	8536                	mv	a0,a3
    1ea8:	40f2                	lw	ra,28(sp)
    1eaa:	4462                	lw	s0,24(sp)
    1eac:	44d2                	lw	s1,20(sp)
    1eae:	4942                	lw	s2,16(sp)
    1eb0:	49b2                	lw	s3,12(sp)
    1eb2:	6105                	addi	sp,sp,32
    1eb4:	8082                	ret

00001eb6 <rt_serial_control>:
    1eb6:	4789                	li	a5,2
    1eb8:	00f58e63          	beq	a1,a5,1ed4 <rt_serial_control+0x1e>
    1ebc:	1141                	addi	sp,sp,-16
    1ebe:	c606                	sw	ra,12(sp)
    1ec0:	478d                	li	a5,3
    1ec2:	02f58b63          	beq	a1,a5,1ef8 <rt_serial_control+0x42>
    1ec6:	4785                	li	a5,1
    1ec8:	00f58e63          	beq	a1,a5,1ee4 <rt_serial_control+0x2e>
    1ecc:	417c                	lw	a5,68(a0)
    1ece:	43dc                	lw	a5,4(a5)
    1ed0:	9782                	jalr	a5
    1ed2:	a005                	j	1ef2 <rt_serial_control+0x3c>
    1ed4:	01855783          	lhu	a5,24(a0)
    1ed8:	0207e793          	ori	a5,a5,32
    1edc:	00f51c23          	sh	a5,24(a0)
    1ee0:	4501                	li	a0,0
    1ee2:	8082                	ret
    1ee4:	01855783          	lhu	a5,24(a0)
    1ee8:	fdf7f793          	andi	a5,a5,-33
    1eec:	00f51c23          	sh	a5,24(a0)
    1ef0:	4501                	li	a0,0
    1ef2:	40b2                	lw	ra,12(sp)
    1ef4:	0141                	addi	sp,sp,16
    1ef6:	8082                	ret
    1ef8:	ca1d                	beqz	a2,1f2e <rt_serial_control+0x78>
    1efa:	4258                	lw	a4,4(a2)
    1efc:	8329                	srli	a4,a4,0xa
    1efe:	0742                	slli	a4,a4,0x10
    1f00:	8341                	srli	a4,a4,0x10
    1f02:	457c                	lw	a5,76(a0)
    1f04:	83a9                	srli	a5,a5,0xa
    1f06:	07c2                	slli	a5,a5,0x10
    1f08:	83c1                	srli	a5,a5,0x10
    1f0a:	00f70563          	beq	a4,a5,1f14 <rt_serial_control+0x5e>
    1f0e:	01c54783          	lbu	a5,28(a0)
    1f12:	e385                	bnez	a5,1f32 <rt_serial_control+0x7c>
    1f14:	421c                	lw	a5,0(a2)
    1f16:	c53c                	sw	a5,72(a0)
    1f18:	425c                	lw	a5,4(a2)
    1f1a:	c57c                	sw	a5,76(a0)
    1f1c:	01c54783          	lbu	a5,28(a0)
    1f20:	cb99                	beqz	a5,1f36 <rt_serial_control+0x80>
    1f22:	417c                	lw	a5,68(a0)
    1f24:	439c                	lw	a5,0(a5)
    1f26:	85b2                	mv	a1,a2
    1f28:	9782                	jalr	a5
    1f2a:	4501                	li	a0,0
    1f2c:	b7d9                	j	1ef2 <rt_serial_control+0x3c>
    1f2e:	4501                	li	a0,0
    1f30:	b7c9                	j	1ef2 <rt_serial_control+0x3c>
    1f32:	451d                	li	a0,7
    1f34:	bf7d                	j	1ef2 <rt_serial_control+0x3c>
    1f36:	4501                	li	a0,0
    1f38:	bf6d                	j	1ef2 <rt_serial_control+0x3c>

00001f3a <rt_serial_read>:
    1f3a:	1101                	addi	sp,sp,-32
    1f3c:	ce06                	sw	ra,28(sp)
    1f3e:	cc22                	sw	s0,24(sp)
    1f40:	ca26                	sw	s1,20(sp)
    1f42:	c84a                	sw	s2,16(sp)
    1f44:	c64e                	sw	s3,12(sp)
    1f46:	c452                	sw	s4,8(sp)
    1f48:	c256                	sw	s5,4(sp)
    1f4a:	8a36                	mv	s4,a3
    1f4c:	cadd                	beqz	a3,2002 <rt_serial_read+0xc8>
    1f4e:	892a                	mv	s2,a0
    1f50:	8432                	mv	s0,a2
    1f52:	01a55783          	lhu	a5,26(a0)
    1f56:	1007f793          	andi	a5,a5,256
    1f5a:	ef8d                	bnez	a5,1f94 <rt_serial_read+0x5a>
    1f5c:	84b6                	mv	s1,a3
    1f5e:	c085                	beqz	s1,1f7e <rt_serial_read+0x44>
    1f60:	04492783          	lw	a5,68(s2)
    1f64:	47dc                	lw	a5,12(a5)
    1f66:	854a                	mv	a0,s2
    1f68:	9782                	jalr	a5
    1f6a:	57fd                	li	a5,-1
    1f6c:	00f50963          	beq	a0,a5,1f7e <rt_serial_read+0x44>
    1f70:	00a40023          	sb	a0,0(s0)
    1f74:	0405                	addi	s0,s0,1
    1f76:	14fd                	addi	s1,s1,-1
    1f78:	47a9                	li	a5,10
    1f7a:	fef512e3          	bne	a0,a5,1f5e <rt_serial_read+0x24>
    1f7e:	409a0533          	sub	a0,s4,s1
    1f82:	40f2                	lw	ra,28(sp)
    1f84:	4462                	lw	s0,24(sp)
    1f86:	44d2                	lw	s1,20(sp)
    1f88:	4942                	lw	s2,16(sp)
    1f8a:	49b2                	lw	s3,12(sp)
    1f8c:	4a22                	lw	s4,8(sp)
    1f8e:	4a92                	lw	s5,4(sp)
    1f90:	6105                	addi	sp,sp,32
    1f92:	8082                	ret
    1f94:	05052983          	lw	s3,80(a0)
    1f98:	84b6                	mv	s1,a3
    1f9a:	a025                	j	1fc2 <rt_serial_read+0x88>
    1f9c:	0089a703          	lw	a4,8(s3)
    1fa0:	eb15                	bnez	a4,1fd4 <rt_serial_read+0x9a>
    1fa2:	68c010ef          	jal	ra,362e <rt_hw_interrupt_enable>
    1fa6:	409a0533          	sub	a0,s4,s1
    1faa:	bfe1                	j	1f82 <rt_serial_read+0x48>
    1fac:	0089a703          	lw	a4,8(s3)
    1fb0:	4785                	li	a5,1
    1fb2:	04f70563          	beq	a4,a5,1ffc <rt_serial_read+0xc2>
    1fb6:	678010ef          	jal	ra,362e <rt_hw_interrupt_enable>
    1fba:	01540023          	sb	s5,0(s0)
    1fbe:	0405                	addi	s0,s0,1
    1fc0:	14fd                	addi	s1,s1,-1
    1fc2:	d0f5                	beqz	s1,1fa6 <rt_serial_read+0x6c>
    1fc4:	65e010ef          	jal	ra,3622 <rt_hw_interrupt_disable>
    1fc8:	0069d783          	lhu	a5,6(s3)
    1fcc:	0049d703          	lhu	a4,4(s3)
    1fd0:	fce786e3          	beq	a5,a4,1f9c <rt_serial_read+0x62>
    1fd4:	0009a703          	lw	a4,0(s3)
    1fd8:	973e                	add	a4,a4,a5
    1fda:	00074a83          	lbu	s5,0(a4)
    1fde:	0785                	addi	a5,a5,1
    1fe0:	07c2                	slli	a5,a5,0x10
    1fe2:	83c1                	srli	a5,a5,0x10
    1fe4:	00f99323          	sh	a5,6(s3)
    1fe8:	04c92703          	lw	a4,76(s2)
    1fec:	8329                	srli	a4,a4,0xa
    1fee:	0742                	slli	a4,a4,0x10
    1ff0:	8341                	srli	a4,a4,0x10
    1ff2:	fae7ede3          	bltu	a5,a4,1fac <rt_serial_read+0x72>
    1ff6:	00099323          	sh	zero,6(s3)
    1ffa:	bf4d                	j	1fac <rt_serial_read+0x72>
    1ffc:	0009a423          	sw	zero,8(s3)
    2000:	bf5d                	j	1fb6 <rt_serial_read+0x7c>
    2002:	8536                	mv	a0,a3
    2004:	bfbd                	j	1f82 <rt_serial_read+0x48>

00002006 <rt_serial_close>:
    2006:	01c54703          	lbu	a4,28(a0)
    200a:	4785                	li	a5,1
    200c:	00e7e763          	bltu	a5,a4,201a <rt_serial_close+0x14>
    2010:	01a55783          	lhu	a5,26(a0)
    2014:	1007f793          	andi	a5,a5,256
    2018:	e399                	bnez	a5,201e <rt_serial_close+0x18>
    201a:	4501                	li	a0,0
    201c:	8082                	ret
    201e:	1141                	addi	sp,sp,-16
    2020:	c606                	sw	ra,12(sp)
    2022:	c422                	sw	s0,8(sp)
    2024:	842a                	mv	s0,a0
    2026:	4928                	lw	a0,80(a0)
    2028:	6a8020ef          	jal	ra,46d0 <rt_free>
    202c:	04042823          	sw	zero,80(s0)
    2030:	01a45783          	lhu	a5,26(s0)
    2034:	eff7f793          	andi	a5,a5,-257
    2038:	00f41d23          	sh	a5,26(s0)
    203c:	407c                	lw	a5,68(s0)
    203e:	43dc                	lw	a5,4(a5)
    2040:	10000613          	li	a2,256
    2044:	45c5                	li	a1,17
    2046:	8522                	mv	a0,s0
    2048:	9782                	jalr	a5
    204a:	4501                	li	a0,0
    204c:	40b2                	lw	ra,12(sp)
    204e:	4422                	lw	s0,8(sp)
    2050:	0141                	addi	sp,sp,16
    2052:	8082                	ret

00002054 <rt_serial_open>:
    2054:	1005f793          	andi	a5,a1,256
    2058:	c791                	beqz	a5,2064 <rt_serial_open+0x10>
    205a:	01855703          	lhu	a4,24(a0)
    205e:	10077713          	andi	a4,a4,256
    2062:	c771                	beqz	a4,212e <rt_serial_open+0xda>
    2064:	4005f713          	andi	a4,a1,1024
    2068:	c711                	beqz	a4,2074 <rt_serial_open+0x20>
    206a:	01855703          	lhu	a4,24(a0)
    206e:	40077713          	andi	a4,a4,1024
    2072:	c361                	beqz	a4,2132 <rt_serial_open+0xde>
    2074:	1141                	addi	sp,sp,-16
    2076:	c606                	sw	ra,12(sp)
    2078:	c422                	sw	s0,8(sp)
    207a:	c226                	sw	s1,4(sp)
    207c:	c04a                	sw	s2,0(sp)
    207e:	0405f713          	andi	a4,a1,64
    2082:	eb01                	bnez	a4,2092 <rt_serial_open+0x3e>
    2084:	01a55703          	lhu	a4,26(a0)
    2088:	04077713          	andi	a4,a4,64
    208c:	ef1d                	bnez	a4,20ca <rt_serial_open+0x76>
    208e:	4481                	li	s1,0
    2090:	a019                	j	2096 <rt_serial_open+0x42>
    2092:	04000493          	li	s1,64
    2096:	842a                	mv	s0,a0
    2098:	0ff5f593          	andi	a1,a1,255
    209c:	00b51d23          	sh	a1,26(a0)
    20a0:	4938                	lw	a4,80(a0)
    20a2:	c71d                	beqz	a4,20d0 <rt_serial_open+0x7c>
    20a4:	c789                	beqz	a5,20ae <rt_serial_open+0x5a>
    20a6:	1005e593          	ori	a1,a1,256
    20aa:	00b51d23          	sh	a1,26(a0)
    20ae:	487c                	lw	a5,84(s0)
    20b0:	cfa5                	beqz	a5,2128 <rt_serial_open+0xd4>
    20b2:	01a45783          	lhu	a5,26(s0)
    20b6:	8fc5                	or	a5,a5,s1
    20b8:	00f41d23          	sh	a5,26(s0)
    20bc:	4501                	li	a0,0
    20be:	40b2                	lw	ra,12(sp)
    20c0:	4422                	lw	s0,8(sp)
    20c2:	4492                	lw	s1,4(sp)
    20c4:	4902                	lw	s2,0(sp)
    20c6:	0141                	addi	sp,sp,16
    20c8:	8082                	ret
    20ca:	04000493          	li	s1,64
    20ce:	b7e1                	j	2096 <rt_serial_open+0x42>
    20d0:	e781                	bnez	a5,20d8 <rt_serial_open+0x84>
    20d2:	04052823          	sw	zero,80(a0)
    20d6:	bfe1                	j	20ae <rt_serial_open+0x5a>
    20d8:	4568                	lw	a0,76(a0)
    20da:	8129                	srli	a0,a0,0xa
    20dc:	0542                	slli	a0,a0,0x10
    20de:	8141                	srli	a0,a0,0x10
    20e0:	0531                	addi	a0,a0,12
    20e2:	46a020ef          	jal	ra,454c <rt_malloc>
    20e6:	892a                	mv	s2,a0
    20e8:	0531                	addi	a0,a0,12
    20ea:	00a92023          	sw	a0,0(s2)
    20ee:	4470                	lw	a2,76(s0)
    20f0:	8229                	srli	a2,a2,0xa
    20f2:	0642                	slli	a2,a2,0x10
    20f4:	8241                	srli	a2,a2,0x10
    20f6:	4581                	li	a1,0
    20f8:	529010ef          	jal	ra,3e20 <rt_memset>
    20fc:	00091223          	sh	zero,4(s2)
    2100:	00091323          	sh	zero,6(s2)
    2104:	00092423          	sw	zero,8(s2)
    2108:	05242823          	sw	s2,80(s0)
    210c:	01a45783          	lhu	a5,26(s0)
    2110:	1007e793          	ori	a5,a5,256
    2114:	00f41d23          	sh	a5,26(s0)
    2118:	407c                	lw	a5,68(s0)
    211a:	43dc                	lw	a5,4(a5)
    211c:	10000613          	li	a2,256
    2120:	45c1                	li	a1,16
    2122:	8522                	mv	a0,s0
    2124:	9782                	jalr	a5
    2126:	b761                	j	20ae <rt_serial_open+0x5a>
    2128:	04042a23          	sw	zero,84(s0)
    212c:	b759                	j	20b2 <rt_serial_open+0x5e>
    212e:	5561                	li	a0,-8
    2130:	8082                	ret
    2132:	5561                	li	a0,-8
    2134:	8082                	ret

00002136 <rt_hw_serial_register>:
    2136:	1141                	addi	sp,sp,-16
    2138:	c606                	sw	ra,12(sp)
    213a:	00052a23          	sw	zero,20(a0)
    213e:	02052023          	sw	zero,32(a0)
    2142:	02052223          	sw	zero,36(a0)
    2146:	00000717          	auipc	a4,0x0
    214a:	cec70713          	addi	a4,a4,-788 # 1e32 <rt_serial_init>
    214e:	d518                	sw	a4,40(a0)
    2150:	00000717          	auipc	a4,0x0
    2154:	f0470713          	addi	a4,a4,-252 # 2054 <rt_serial_open>
    2158:	d558                	sw	a4,44(a0)
    215a:	00000717          	auipc	a4,0x0
    215e:	eac70713          	addi	a4,a4,-340 # 2006 <rt_serial_close>
    2162:	d918                	sw	a4,48(a0)
    2164:	00000717          	auipc	a4,0x0
    2168:	dd670713          	addi	a4,a4,-554 # 1f3a <rt_serial_read>
    216c:	d958                	sw	a4,52(a0)
    216e:	00000717          	auipc	a4,0x0
    2172:	ce670713          	addi	a4,a4,-794 # 1e54 <rt_serial_write>
    2176:	dd18                	sw	a4,56(a0)
    2178:	00000717          	auipc	a4,0x0
    217c:	d3e70713          	addi	a4,a4,-706 # 1eb6 <rt_serial_control>
    2180:	dd58                	sw	a4,60(a0)
    2182:	c134                	sw	a3,64(a0)
    2184:	0642                	slli	a2,a2,0x10
    2186:	8241                	srli	a2,a2,0x10
    2188:	66e010ef          	jal	ra,37f6 <rt_device_register>
    218c:	40b2                	lw	ra,12(sp)
    218e:	0141                	addi	sp,sp,16
    2190:	8082                	ret

00002192 <rt_hw_serial_isr>:
    2192:	0ff5f593          	andi	a1,a1,255
    2196:	4785                	li	a5,1
    2198:	00f58363          	beq	a1,a5,219e <rt_hw_serial_isr+0xc>
    219c:	8082                	ret
    219e:	1141                	addi	sp,sp,-16
    21a0:	c606                	sw	ra,12(sp)
    21a2:	c422                	sw	s0,8(sp)
    21a4:	c226                	sw	s1,4(sp)
    21a6:	c04a                	sw	s2,0(sp)
    21a8:	84aa                	mv	s1,a0
    21aa:	4920                	lw	s0,80(a0)
    21ac:	a809                	j	21be <rt_hw_serial_isr+0x2c>
    21ae:	00445703          	lhu	a4,4(s0)
    21b2:	00645783          	lhu	a5,6(s0)
    21b6:	04f70463          	beq	a4,a5,21fe <rt_hw_serial_isr+0x6c>
    21ba:	474010ef          	jal	ra,362e <rt_hw_interrupt_enable>
    21be:	40fc                	lw	a5,68(s1)
    21c0:	47dc                	lw	a5,12(a5)
    21c2:	8526                	mv	a0,s1
    21c4:	9782                	jalr	a5
    21c6:	892a                	mv	s2,a0
    21c8:	57fd                	li	a5,-1
    21ca:	04f50a63          	beq	a0,a5,221e <rt_hw_serial_isr+0x8c>
    21ce:	454010ef          	jal	ra,3622 <rt_hw_interrupt_disable>
    21d2:	401c                	lw	a5,0(s0)
    21d4:	00445703          	lhu	a4,4(s0)
    21d8:	97ba                	add	a5,a5,a4
    21da:	01278023          	sb	s2,0(a5)
    21de:	00445783          	lhu	a5,4(s0)
    21e2:	0785                	addi	a5,a5,1
    21e4:	07c2                	slli	a5,a5,0x10
    21e6:	83c1                	srli	a5,a5,0x10
    21e8:	00f41223          	sh	a5,4(s0)
    21ec:	44f8                	lw	a4,76(s1)
    21ee:	8329                	srli	a4,a4,0xa
    21f0:	0742                	slli	a4,a4,0x10
    21f2:	8341                	srli	a4,a4,0x10
    21f4:	fae7ede3          	bltu	a5,a4,21ae <rt_hw_serial_isr+0x1c>
    21f8:	00041223          	sh	zero,4(s0)
    21fc:	bf4d                	j	21ae <rt_hw_serial_isr+0x1c>
    21fe:	0785                	addi	a5,a5,1
    2200:	07c2                	slli	a5,a5,0x10
    2202:	83c1                	srli	a5,a5,0x10
    2204:	00f41323          	sh	a5,6(s0)
    2208:	4705                	li	a4,1
    220a:	c418                	sw	a4,8(s0)
    220c:	44f8                	lw	a4,76(s1)
    220e:	8329                	srli	a4,a4,0xa
    2210:	0742                	slli	a4,a4,0x10
    2212:	8341                	srli	a4,a4,0x10
    2214:	fae7e3e3          	bltu	a5,a4,21ba <rt_hw_serial_isr+0x28>
    2218:	00041323          	sh	zero,6(s0)
    221c:	bf79                	j	21ba <rt_hw_serial_isr+0x28>
    221e:	509c                	lw	a5,32(s1)
    2220:	c38d                	beqz	a5,2242 <rt_hw_serial_isr+0xb0>
    2222:	400010ef          	jal	ra,3622 <rt_hw_interrupt_disable>
    2226:	00445703          	lhu	a4,4(s0)
    222a:	00645783          	lhu	a5,6(s0)
    222e:	02f76063          	bltu	a4,a5,224e <rt_hw_serial_isr+0xbc>
    2232:	40f70433          	sub	s0,a4,a5
    2236:	3f8010ef          	jal	ra,362e <rt_hw_interrupt_enable>
    223a:	509c                	lw	a5,32(s1)
    223c:	85a2                	mv	a1,s0
    223e:	8526                	mv	a0,s1
    2240:	9782                	jalr	a5
    2242:	40b2                	lw	ra,12(sp)
    2244:	4422                	lw	s0,8(sp)
    2246:	4492                	lw	s1,4(sp)
    2248:	4902                	lw	s2,0(sp)
    224a:	0141                	addi	sp,sp,16
    224c:	8082                	ret
    224e:	44e0                	lw	s0,76(s1)
    2250:	8029                	srli	s0,s0,0xa
    2252:	0442                	slli	s0,s0,0x10
    2254:	8041                	srli	s0,s0,0x10
    2256:	8f99                	sub	a5,a5,a4
    2258:	8c1d                	sub	s0,s0,a5
    225a:	bff1                	j	2236 <rt_hw_serial_isr+0xa4>

0000225c <reboot>:
    225c:	e000e737          	lui	a4,0xe000e
    2260:	beef07b7          	lui	a5,0xbeef0
    2264:	08078793          	addi	a5,a5,128 # beef0080 <_eusrstack+0x9eee0080>
    2268:	c73c                	sw	a5,72(a4)
    226a:	4501                	li	a0,0
    226c:	8082                	ret

0000226e <clear>:
    226e:	1141                	addi	sp,sp,-16
    2270:	c606                	sw	ra,12(sp)
    2272:	00005517          	auipc	a0,0x5
    2276:	ede50513          	addi	a0,a0,-290 # 7150 <__fsym_pinMode_name+0x420>
    227a:	070020ef          	jal	ra,42ea <rt_kprintf>
    227e:	4501                	li	a0,0
    2280:	40b2                	lw	ra,12(sp)
    2282:	0141                	addi	sp,sp,16
    2284:	8082                	ret

00002286 <show_wait_queue>:
    2286:	1141                	addi	sp,sp,-16
    2288:	c606                	sw	ra,12(sp)
    228a:	c422                	sw	s0,8(sp)
    228c:	c226                	sw	s1,4(sp)
    228e:	84aa                	mv	s1,a0
    2290:	4100                	lw	s0,0(a0)
    2292:	a801                	j	22a2 <show_wait_queue+0x1c>
    2294:	00005517          	auipc	a0,0x5
    2298:	21450513          	addi	a0,a0,532 # 74a8 <__fsym_reboot_name+0xc>
    229c:	04e020ef          	jal	ra,42ea <rt_kprintf>
    22a0:	4000                	lw	s0,0(s0)
    22a2:	00940e63          	beq	s0,s1,22be <show_wait_queue+0x38>
    22a6:	fec40593          	addi	a1,s0,-20
    22aa:	00005517          	auipc	a0,0x5
    22ae:	1fa50513          	addi	a0,a0,506 # 74a4 <__fsym_reboot_name+0x8>
    22b2:	038020ef          	jal	ra,42ea <rt_kprintf>
    22b6:	401c                	lw	a5,0(s0)
    22b8:	fc979ee3          	bne	a5,s1,2294 <show_wait_queue+0xe>
    22bc:	b7d5                	j	22a0 <show_wait_queue+0x1a>
    22be:	40b2                	lw	ra,12(sp)
    22c0:	4422                	lw	s0,8(sp)
    22c2:	4492                	lw	s1,4(sp)
    22c4:	0141                	addi	sp,sp,16
    22c6:	8082                	ret

000022c8 <object_name_maxlen>:
    22c8:	1141                	addi	sp,sp,-16
    22ca:	c606                	sw	ra,12(sp)
    22cc:	c422                	sw	s0,8(sp)
    22ce:	c226                	sw	s1,4(sp)
    22d0:	c04a                	sw	s2,0(sp)
    22d2:	892e                	mv	s2,a1
    22d4:	443010ef          	jal	ra,3f16 <rt_strlen>
    22d8:	84aa                	mv	s1,a0
    22da:	00f020ef          	jal	ra,4ae8 <rt_enter_critical>
    22de:	00092403          	lw	s0,0(s2)
    22e2:	a011                	j	22e6 <object_name_maxlen+0x1e>
    22e4:	4000                	lw	s0,0(s0)
    22e6:	01240a63          	beq	s0,s2,22fa <object_name_maxlen+0x32>
    22ea:	ff440513          	addi	a0,s0,-12
    22ee:	429010ef          	jal	ra,3f16 <rt_strlen>
    22f2:	fea4d9e3          	bge	s1,a0,22e4 <object_name_maxlen+0x1c>
    22f6:	84aa                	mv	s1,a0
    22f8:	b7f5                	j	22e4 <object_name_maxlen+0x1c>
    22fa:	00f020ef          	jal	ra,4b08 <rt_exit_critical>
    22fe:	47a1                	li	a5,8
    2300:	0097ca63          	blt	a5,s1,2314 <object_name_maxlen+0x4c>
    2304:	c891                	beqz	s1,2318 <object_name_maxlen+0x50>
    2306:	8526                	mv	a0,s1
    2308:	40b2                	lw	ra,12(sp)
    230a:	4422                	lw	s0,8(sp)
    230c:	4492                	lw	s1,4(sp)
    230e:	4902                	lw	s2,0(sp)
    2310:	0141                	addi	sp,sp,16
    2312:	8082                	ret
    2314:	44a1                	li	s1,8
    2316:	bfc5                	j	2306 <object_name_maxlen+0x3e>
    2318:	44a1                	li	s1,8
    231a:	b7f5                	j	2306 <object_name_maxlen+0x3e>

0000231c <_list_thread>:
    231c:	1141                	addi	sp,sp,-16
    231e:	c606                	sw	ra,12(sp)
    2320:	c422                	sw	s0,8(sp)
    2322:	c226                	sw	s1,4(sp)
    2324:	c04a                	sw	s2,0(sp)
    2326:	84aa                	mv	s1,a0
    2328:	85aa                	mv	a1,a0
    232a:	00005517          	auipc	a0,0x5
    232e:	c9250513          	addi	a0,a0,-878 # 6fbc <__fsym_pinMode_name+0x28c>
    2332:	3f59                	jal	22c8 <object_name_maxlen>
    2334:	892a                	mv	s2,a0
    2336:	00005617          	auipc	a2,0x5
    233a:	c8660613          	addi	a2,a2,-890 # 6fbc <__fsym_pinMode_name+0x28c>
    233e:	85aa                	mv	a1,a0
    2340:	00005517          	auipc	a0,0x5
    2344:	c8450513          	addi	a0,a0,-892 # 6fc4 <__fsym_pinMode_name+0x294>
    2348:	7a3010ef          	jal	ra,42ea <rt_kprintf>
    234c:	87ca                	mv	a5,s2
    234e:	a801                	j	235e <_list_thread+0x42>
    2350:	00005517          	auipc	a0,0x5
    2354:	cb850513          	addi	a0,a0,-840 # 7008 <__fsym_pinMode_name+0x2d8>
    2358:	793010ef          	jal	ra,42ea <rt_kprintf>
    235c:	87a2                	mv	a5,s0
    235e:	fff78413          	addi	s0,a5,-1
    2362:	f7fd                	bnez	a5,2350 <_list_thread+0x34>
    2364:	00005517          	auipc	a0,0x5
    2368:	ca850513          	addi	a0,a0,-856 # 700c <__fsym_pinMode_name+0x2dc>
    236c:	77f010ef          	jal	ra,42ea <rt_kprintf>
    2370:	4080                	lw	s0,0(s1)
    2372:	a0ad                	j	23dc <_list_thread+0xc0>
    2374:	00005517          	auipc	a0,0x5
    2378:	ce450513          	addi	a0,a0,-796 # 7058 <__fsym_pinMode_name+0x328>
    237c:	76f010ef          	jal	ra,42ea <rt_kprintf>
    2380:	a849                	j	2412 <_list_thread+0xf6>
    2382:	00005517          	auipc	a0,0x5
    2386:	ce250513          	addi	a0,a0,-798 # 7064 <__fsym_pinMode_name+0x334>
    238a:	761010ef          	jal	ra,42ea <rt_kprintf>
    238e:	a051                	j	2412 <_list_thread+0xf6>
    2390:	00005517          	auipc	a0,0x5
    2394:	ce050513          	addi	a0,a0,-800 # 7070 <__fsym_pinMode_name+0x340>
    2398:	753010ef          	jal	ra,42ea <rt_kprintf>
    239c:	a89d                	j	2412 <_list_thread+0xf6>
    239e:	00005517          	auipc	a0,0x5
    23a2:	cde50513          	addi	a0,a0,-802 # 707c <__fsym_pinMode_name+0x34c>
    23a6:	745010ef          	jal	ra,42ea <rt_kprintf>
    23aa:	a0a5                	j	2412 <_list_thread+0xf6>
    23ac:	5008                	lw	a0,32(s0)
    23ae:	480c                	lw	a1,16(s0)
    23b0:	40b605b3          	sub	a1,a2,a1
    23b4:	40f606b3          	sub	a3,a2,a5
    23b8:	96aa                	add	a3,a3,a0
    23ba:	06400793          	li	a5,100
    23be:	02f686b3          	mul	a3,a3,a5
    23c2:	505c                	lw	a5,36(s0)
    23c4:	5c58                	lw	a4,60(s0)
    23c6:	02a6d6b3          	divu	a3,a3,a0
    23ca:	862a                	mv	a2,a0
    23cc:	95aa                	add	a1,a1,a0
    23ce:	00005517          	auipc	a0,0x5
    23d2:	cba50513          	addi	a0,a0,-838 # 7088 <__fsym_pinMode_name+0x358>
    23d6:	715010ef          	jal	ra,42ea <rt_kprintf>
    23da:	4000                	lw	s0,0(s0)
    23dc:	04940563          	beq	s0,s1,2426 <_list_thread+0x10a>
    23e0:	02944703          	lbu	a4,41(s0)
    23e4:	ff440693          	addi	a3,s0,-12
    23e8:	4621                	li	a2,8
    23ea:	85ca                	mv	a1,s2
    23ec:	00005517          	auipc	a0,0x5
    23f0:	c6050513          	addi	a0,a0,-928 # 704c <__fsym_pinMode_name+0x31c>
    23f4:	6f7010ef          	jal	ra,42ea <rt_kprintf>
    23f8:	02844783          	lbu	a5,40(s0)
    23fc:	8bbd                	andi	a5,a5,15
    23fe:	4705                	li	a4,1
    2400:	f6e78ae3          	beq	a5,a4,2374 <_list_thread+0x58>
    2404:	4709                	li	a4,2
    2406:	f6e78ee3          	beq	a5,a4,2382 <_list_thread+0x66>
    240a:	d3d9                	beqz	a5,2390 <_list_thread+0x74>
    240c:	4711                	li	a4,4
    240e:	f8e788e3          	beq	a5,a4,239e <_list_thread+0x82>
    2412:	4c50                	lw	a2,28(s0)
    2414:	87b2                	mv	a5,a2
    2416:	0007c683          	lbu	a3,0(a5)
    241a:	02300713          	li	a4,35
    241e:	f8e697e3          	bne	a3,a4,23ac <_list_thread+0x90>
    2422:	0785                	addi	a5,a5,1
    2424:	bfcd                	j	2416 <_list_thread+0xfa>
    2426:	4501                	li	a0,0
    2428:	40b2                	lw	ra,12(sp)
    242a:	4422                	lw	s0,8(sp)
    242c:	4492                	lw	s1,4(sp)
    242e:	4902                	lw	s2,0(sp)
    2430:	0141                	addi	sp,sp,16
    2432:	8082                	ret

00002434 <list_thread>:
    2434:	1141                	addi	sp,sp,-16
    2436:	c606                	sw	ra,12(sp)
    2438:	4505                	li	a0,1
    243a:	35e020ef          	jal	ra,4798 <rt_object_get_information>
    243e:	0511                	addi	a0,a0,4
    2440:	3df1                	jal	231c <_list_thread>
    2442:	40b2                	lw	ra,12(sp)
    2444:	0141                	addi	sp,sp,16
    2446:	8082                	ret

00002448 <_list_sem>:
    2448:	1101                	addi	sp,sp,-32
    244a:	ce06                	sw	ra,28(sp)
    244c:	cc22                	sw	s0,24(sp)
    244e:	ca26                	sw	s1,20(sp)
    2450:	c84a                	sw	s2,16(sp)
    2452:	c64e                	sw	s3,12(sp)
    2454:	892a                	mv	s2,a0
    2456:	85aa                	mv	a1,a0
    2458:	00005517          	auipc	a0,0x5
    245c:	b0450513          	addi	a0,a0,-1276 # 6f5c <__fsym_pinMode_name+0x22c>
    2460:	35a5                	jal	22c8 <object_name_maxlen>
    2462:	89aa                	mv	s3,a0
    2464:	00005617          	auipc	a2,0x5
    2468:	af860613          	addi	a2,a2,-1288 # 6f5c <__fsym_pinMode_name+0x22c>
    246c:	85aa                	mv	a1,a0
    246e:	00005517          	auipc	a0,0x5
    2472:	afa50513          	addi	a0,a0,-1286 # 6f68 <__fsym_pinMode_name+0x238>
    2476:	675010ef          	jal	ra,42ea <rt_kprintf>
    247a:	87ce                	mv	a5,s3
    247c:	a801                	j	248c <_list_sem+0x44>
    247e:	00005517          	auipc	a0,0x5
    2482:	b8a50513          	addi	a0,a0,-1142 # 7008 <__fsym_pinMode_name+0x2d8>
    2486:	665010ef          	jal	ra,42ea <rt_kprintf>
    248a:	87a2                	mv	a5,s0
    248c:	fff78413          	addi	s0,a5,-1
    2490:	f7fd                	bnez	a5,247e <_list_sem+0x36>
    2492:	00005517          	auipc	a0,0x5
    2496:	af250513          	addi	a0,a0,-1294 # 6f84 <__fsym_pinMode_name+0x254>
    249a:	651010ef          	jal	ra,42ea <rt_kprintf>
    249e:	00092483          	lw	s1,0(s2)
    24a2:	a015                	j	24c6 <_list_sem+0x7e>
    24a4:	4621                	li	a2,8
    24a6:	85ce                	mv	a1,s3
    24a8:	00005517          	auipc	a0,0x5
    24ac:	af450513          	addi	a0,a0,-1292 # 6f9c <__fsym_pinMode_name+0x26c>
    24b0:	63b010ef          	jal	ra,42ea <rt_kprintf>
    24b4:	8522                	mv	a0,s0
    24b6:	3bc1                	jal	2286 <show_wait_queue>
    24b8:	00004517          	auipc	a0,0x4
    24bc:	07850513          	addi	a0,a0,120 # 6530 <_read+0x90>
    24c0:	62b010ef          	jal	ra,42ea <rt_kprintf>
    24c4:	4084                	lw	s1,0(s1)
    24c6:	05248663          	beq	s1,s2,2512 <_list_sem+0xca>
    24ca:	00848413          	addi	s0,s1,8
    24ce:	449c                	lw	a5,8(s1)
    24d0:	00f40d63          	beq	s0,a5,24ea <_list_sem+0xa2>
    24d4:	ff448693          	addi	a3,s1,-12
    24d8:	0104d703          	lhu	a4,16(s1)
    24dc:	8622                	mv	a2,s0
    24de:	4781                	li	a5,0
    24e0:	4210                	lw	a2,0(a2)
    24e2:	fcc401e3          	beq	s0,a2,24a4 <_list_sem+0x5c>
    24e6:	0785                	addi	a5,a5,1
    24e8:	bfe5                	j	24e0 <_list_sem+0x98>
    24ea:	ff448693          	addi	a3,s1,-12
    24ee:	0104d703          	lhu	a4,16(s1)
    24f2:	8622                	mv	a2,s0
    24f4:	4781                	li	a5,0
    24f6:	4210                	lw	a2,0(a2)
    24f8:	00c40463          	beq	s0,a2,2500 <_list_sem+0xb8>
    24fc:	0785                	addi	a5,a5,1
    24fe:	bfe5                	j	24f6 <_list_sem+0xae>
    2500:	4621                	li	a2,8
    2502:	85ce                	mv	a1,s3
    2504:	00005517          	auipc	a0,0x5
    2508:	aa850513          	addi	a0,a0,-1368 # 6fac <__fsym_pinMode_name+0x27c>
    250c:	5df010ef          	jal	ra,42ea <rt_kprintf>
    2510:	bf55                	j	24c4 <_list_sem+0x7c>
    2512:	4501                	li	a0,0
    2514:	40f2                	lw	ra,28(sp)
    2516:	4462                	lw	s0,24(sp)
    2518:	44d2                	lw	s1,20(sp)
    251a:	4942                	lw	s2,16(sp)
    251c:	49b2                	lw	s3,12(sp)
    251e:	6105                	addi	sp,sp,32
    2520:	8082                	ret

00002522 <list_sem>:
    2522:	1141                	addi	sp,sp,-16
    2524:	c606                	sw	ra,12(sp)
    2526:	4509                	li	a0,2
    2528:	270020ef          	jal	ra,4798 <rt_object_get_information>
    252c:	0511                	addi	a0,a0,4
    252e:	3f29                	jal	2448 <_list_sem>
    2530:	40b2                	lw	ra,12(sp)
    2532:	0141                	addi	sp,sp,16
    2534:	8082                	ret

00002536 <_list_event>:
    2536:	1101                	addi	sp,sp,-32
    2538:	ce06                	sw	ra,28(sp)
    253a:	cc22                	sw	s0,24(sp)
    253c:	ca26                	sw	s1,20(sp)
    253e:	c84a                	sw	s2,16(sp)
    2540:	c64e                	sw	s3,12(sp)
    2542:	892a                	mv	s2,a0
    2544:	85aa                	mv	a1,a0
    2546:	00005517          	auipc	a0,0x5
    254a:	85a50513          	addi	a0,a0,-1958 # 6da0 <__fsym_pinMode_name+0x70>
    254e:	3bad                	jal	22c8 <object_name_maxlen>
    2550:	89aa                	mv	s3,a0
    2552:	00005617          	auipc	a2,0x5
    2556:	84e60613          	addi	a2,a2,-1970 # 6da0 <__fsym_pinMode_name+0x70>
    255a:	85aa                	mv	a1,a0
    255c:	00005517          	auipc	a0,0x5
    2560:	84c50513          	addi	a0,a0,-1972 # 6da8 <__fsym_pinMode_name+0x78>
    2564:	587010ef          	jal	ra,42ea <rt_kprintf>
    2568:	87ce                	mv	a5,s3
    256a:	fff78413          	addi	s0,a5,-1
    256e:	cb89                	beqz	a5,2580 <_list_event+0x4a>
    2570:	00005517          	auipc	a0,0x5
    2574:	a9850513          	addi	a0,a0,-1384 # 7008 <__fsym_pinMode_name+0x2d8>
    2578:	573010ef          	jal	ra,42ea <rt_kprintf>
    257c:	87a2                	mv	a5,s0
    257e:	b7f5                	j	256a <_list_event+0x34>
    2580:	00005517          	auipc	a0,0x5
    2584:	84c50513          	addi	a0,a0,-1972 # 6dcc <__fsym_pinMode_name+0x9c>
    2588:	563010ef          	jal	ra,42ea <rt_kprintf>
    258c:	00092483          	lw	s1,0(s2)
    2590:	a015                	j	25b4 <_list_event+0x7e>
    2592:	4621                	li	a2,8
    2594:	85ce                	mv	a1,s3
    2596:	00005517          	auipc	a0,0x5
    259a:	85650513          	addi	a0,a0,-1962 # 6dec <__fsym_pinMode_name+0xbc>
    259e:	54d010ef          	jal	ra,42ea <rt_kprintf>
    25a2:	8522                	mv	a0,s0
    25a4:	31cd                	jal	2286 <show_wait_queue>
    25a6:	00004517          	auipc	a0,0x4
    25aa:	f8a50513          	addi	a0,a0,-118 # 6530 <_read+0x90>
    25ae:	53d010ef          	jal	ra,42ea <rt_kprintf>
    25b2:	4084                	lw	s1,0(s1)
    25b4:	03248d63          	beq	s1,s2,25ee <_list_event+0xb8>
    25b8:	00848413          	addi	s0,s1,8
    25bc:	449c                	lw	a5,8(s1)
    25be:	00f40c63          	beq	s0,a5,25d6 <_list_event+0xa0>
    25c2:	ff448693          	addi	a3,s1,-12
    25c6:	4898                	lw	a4,16(s1)
    25c8:	8622                	mv	a2,s0
    25ca:	4781                	li	a5,0
    25cc:	4210                	lw	a2,0(a2)
    25ce:	fcc402e3          	beq	s0,a2,2592 <_list_event+0x5c>
    25d2:	0785                	addi	a5,a5,1
    25d4:	bfe5                	j	25cc <_list_event+0x96>
    25d6:	4898                	lw	a4,16(s1)
    25d8:	ff448693          	addi	a3,s1,-12
    25dc:	4621                	li	a2,8
    25de:	85ce                	mv	a1,s3
    25e0:	00005517          	auipc	a0,0x5
    25e4:	82450513          	addi	a0,a0,-2012 # 6e04 <__fsym_pinMode_name+0xd4>
    25e8:	503010ef          	jal	ra,42ea <rt_kprintf>
    25ec:	b7d9                	j	25b2 <_list_event+0x7c>
    25ee:	4501                	li	a0,0
    25f0:	40f2                	lw	ra,28(sp)
    25f2:	4462                	lw	s0,24(sp)
    25f4:	44d2                	lw	s1,20(sp)
    25f6:	4942                	lw	s2,16(sp)
    25f8:	49b2                	lw	s3,12(sp)
    25fa:	6105                	addi	sp,sp,32
    25fc:	8082                	ret

000025fe <list_event>:
    25fe:	1141                	addi	sp,sp,-16
    2600:	c606                	sw	ra,12(sp)
    2602:	4511                	li	a0,4
    2604:	194020ef          	jal	ra,4798 <rt_object_get_information>
    2608:	0511                	addi	a0,a0,4
    260a:	3735                	jal	2536 <_list_event>
    260c:	40b2                	lw	ra,12(sp)
    260e:	0141                	addi	sp,sp,16
    2610:	8082                	ret

00002612 <_list_mutex>:
    2612:	1141                	addi	sp,sp,-16
    2614:	c606                	sw	ra,12(sp)
    2616:	c422                	sw	s0,8(sp)
    2618:	c226                	sw	s1,4(sp)
    261a:	c04a                	sw	s2,0(sp)
    261c:	84aa                	mv	s1,a0
    261e:	85aa                	mv	a1,a0
    2620:	00005517          	auipc	a0,0x5
    2624:	8d850513          	addi	a0,a0,-1832 # 6ef8 <__fsym_pinMode_name+0x1c8>
    2628:	3145                	jal	22c8 <object_name_maxlen>
    262a:	892a                	mv	s2,a0
    262c:	00005617          	auipc	a2,0x5
    2630:	8cc60613          	addi	a2,a2,-1844 # 6ef8 <__fsym_pinMode_name+0x1c8>
    2634:	85aa                	mv	a1,a0
    2636:	00005517          	auipc	a0,0x5
    263a:	8ca50513          	addi	a0,a0,-1846 # 6f00 <__fsym_pinMode_name+0x1d0>
    263e:	4ad010ef          	jal	ra,42ea <rt_kprintf>
    2642:	87ca                	mv	a5,s2
    2644:	fff78413          	addi	s0,a5,-1
    2648:	cb89                	beqz	a5,265a <_list_mutex+0x48>
    264a:	00005517          	auipc	a0,0x5
    264e:	9be50513          	addi	a0,a0,-1602 # 7008 <__fsym_pinMode_name+0x2d8>
    2652:	499010ef          	jal	ra,42ea <rt_kprintf>
    2656:	87a2                	mv	a5,s0
    2658:	b7f5                	j	2644 <_list_mutex+0x32>
    265a:	00005517          	auipc	a0,0x5
    265e:	8ca50513          	addi	a0,a0,-1846 # 6f24 <__fsym_pinMode_name+0x1f4>
    2662:	489010ef          	jal	ra,42ea <rt_kprintf>
    2666:	4080                	lw	s0,0(s1)
    2668:	a819                	j	267e <_list_mutex+0x6c>
    266a:	4721                	li	a4,8
    266c:	4621                	li	a2,8
    266e:	85ca                	mv	a1,s2
    2670:	00005517          	auipc	a0,0x5
    2674:	8d450513          	addi	a0,a0,-1836 # 6f44 <__fsym_pinMode_name+0x214>
    2678:	473010ef          	jal	ra,42ea <rt_kprintf>
    267c:	4000                	lw	s0,0(s0)
    267e:	02940063          	beq	s0,s1,269e <_list_mutex+0x8c>
    2682:	ff440693          	addi	a3,s0,-12
    2686:	485c                	lw	a5,20(s0)
    2688:	01344803          	lbu	a6,19(s0)
    268c:	00840613          	addi	a2,s0,8
    2690:	8732                	mv	a4,a2
    2692:	4881                	li	a7,0
    2694:	4318                	lw	a4,0(a4)
    2696:	fce60ae3          	beq	a2,a4,266a <_list_mutex+0x58>
    269a:	0885                	addi	a7,a7,1
    269c:	bfe5                	j	2694 <_list_mutex+0x82>
    269e:	4501                	li	a0,0
    26a0:	40b2                	lw	ra,12(sp)
    26a2:	4422                	lw	s0,8(sp)
    26a4:	4492                	lw	s1,4(sp)
    26a6:	4902                	lw	s2,0(sp)
    26a8:	0141                	addi	sp,sp,16
    26aa:	8082                	ret

000026ac <list_mutex>:
    26ac:	1141                	addi	sp,sp,-16
    26ae:	c606                	sw	ra,12(sp)
    26b0:	450d                	li	a0,3
    26b2:	0e6020ef          	jal	ra,4798 <rt_object_get_information>
    26b6:	0511                	addi	a0,a0,4
    26b8:	3fa9                	jal	2612 <_list_mutex>
    26ba:	40b2                	lw	ra,12(sp)
    26bc:	0141                	addi	sp,sp,16
    26be:	8082                	ret

000026c0 <_list_mailbox>:
    26c0:	1101                	addi	sp,sp,-32
    26c2:	ce06                	sw	ra,28(sp)
    26c4:	cc22                	sw	s0,24(sp)
    26c6:	ca26                	sw	s1,20(sp)
    26c8:	c84a                	sw	s2,16(sp)
    26ca:	c64e                	sw	s3,12(sp)
    26cc:	892a                	mv	s2,a0
    26ce:	85aa                	mv	a1,a0
    26d0:	00004517          	auipc	a0,0x4
    26d4:	74850513          	addi	a0,a0,1864 # 6e18 <__fsym_pinMode_name+0xe8>
    26d8:	3ec5                	jal	22c8 <object_name_maxlen>
    26da:	89aa                	mv	s3,a0
    26dc:	00004617          	auipc	a2,0x4
    26e0:	73c60613          	addi	a2,a2,1852 # 6e18 <__fsym_pinMode_name+0xe8>
    26e4:	85aa                	mv	a1,a0
    26e6:	00004517          	auipc	a0,0x4
    26ea:	73a50513          	addi	a0,a0,1850 # 6e20 <__fsym_pinMode_name+0xf0>
    26ee:	3fd010ef          	jal	ra,42ea <rt_kprintf>
    26f2:	87ce                	mv	a5,s3
    26f4:	a801                	j	2704 <_list_mailbox+0x44>
    26f6:	00005517          	auipc	a0,0x5
    26fa:	91250513          	addi	a0,a0,-1774 # 7008 <__fsym_pinMode_name+0x2d8>
    26fe:	3ed010ef          	jal	ra,42ea <rt_kprintf>
    2702:	87a2                	mv	a5,s0
    2704:	fff78413          	addi	s0,a5,-1
    2708:	f7fd                	bnez	a5,26f6 <_list_mailbox+0x36>
    270a:	00004517          	auipc	a0,0x4
    270e:	73a50513          	addi	a0,a0,1850 # 6e44 <__fsym_pinMode_name+0x114>
    2712:	3d9010ef          	jal	ra,42ea <rt_kprintf>
    2716:	00092483          	lw	s1,0(s2)
    271a:	a01d                	j	2740 <_list_mailbox+0x80>
    271c:	4621                	li	a2,8
    271e:	85ce                	mv	a1,s3
    2720:	00004517          	auipc	a0,0x4
    2724:	74050513          	addi	a0,a0,1856 # 6e60 <__fsym_pinMode_name+0x130>
    2728:	3c3010ef          	jal	ra,42ea <rt_kprintf>
    272c:	8522                	mv	a0,s0
    272e:	b59ff0ef          	jal	ra,2286 <show_wait_queue>
    2732:	00004517          	auipc	a0,0x4
    2736:	dfe50513          	addi	a0,a0,-514 # 6530 <_read+0x90>
    273a:	3b1010ef          	jal	ra,42ea <rt_kprintf>
    273e:	4084                	lw	s1,0(s1)
    2740:	05248a63          	beq	s1,s2,2794 <_list_mailbox+0xd4>
    2744:	00848413          	addi	s0,s1,8
    2748:	449c                	lw	a5,8(s1)
    274a:	00f40f63          	beq	s0,a5,2768 <_list_mailbox+0xa8>
    274e:	ff448693          	addi	a3,s1,-12
    2752:	0164d703          	lhu	a4,22(s1)
    2756:	0144d783          	lhu	a5,20(s1)
    275a:	8622                	mv	a2,s0
    275c:	4801                	li	a6,0
    275e:	4210                	lw	a2,0(a2)
    2760:	fac40ee3          	beq	s0,a2,271c <_list_mailbox+0x5c>
    2764:	0805                	addi	a6,a6,1
    2766:	bfe5                	j	275e <_list_mailbox+0x9e>
    2768:	ff448693          	addi	a3,s1,-12
    276c:	0164d703          	lhu	a4,22(s1)
    2770:	0144d783          	lhu	a5,20(s1)
    2774:	8622                	mv	a2,s0
    2776:	4801                	li	a6,0
    2778:	4210                	lw	a2,0(a2)
    277a:	00c40463          	beq	s0,a2,2782 <_list_mailbox+0xc2>
    277e:	0805                	addi	a6,a6,1
    2780:	bfe5                	j	2778 <_list_mailbox+0xb8>
    2782:	4621                	li	a2,8
    2784:	85ce                	mv	a1,s3
    2786:	00004517          	auipc	a0,0x4
    278a:	6f250513          	addi	a0,a0,1778 # 6e78 <__fsym_pinMode_name+0x148>
    278e:	35d010ef          	jal	ra,42ea <rt_kprintf>
    2792:	b775                	j	273e <_list_mailbox+0x7e>
    2794:	4501                	li	a0,0
    2796:	40f2                	lw	ra,28(sp)
    2798:	4462                	lw	s0,24(sp)
    279a:	44d2                	lw	s1,20(sp)
    279c:	4942                	lw	s2,16(sp)
    279e:	49b2                	lw	s3,12(sp)
    27a0:	6105                	addi	sp,sp,32
    27a2:	8082                	ret

000027a4 <list_mailbox>:
    27a4:	1141                	addi	sp,sp,-16
    27a6:	c606                	sw	ra,12(sp)
    27a8:	4515                	li	a0,5
    27aa:	7ef010ef          	jal	ra,4798 <rt_object_get_information>
    27ae:	0511                	addi	a0,a0,4
    27b0:	3f01                	jal	26c0 <_list_mailbox>
    27b2:	40b2                	lw	ra,12(sp)
    27b4:	0141                	addi	sp,sp,16
    27b6:	8082                	ret

000027b8 <_list_msgqueue>:
    27b8:	1101                	addi	sp,sp,-32
    27ba:	ce06                	sw	ra,28(sp)
    27bc:	cc22                	sw	s0,24(sp)
    27be:	ca26                	sw	s1,20(sp)
    27c0:	c84a                	sw	s2,16(sp)
    27c2:	c64e                	sw	s3,12(sp)
    27c4:	892a                	mv	s2,a0
    27c6:	85aa                	mv	a1,a0
    27c8:	00004517          	auipc	a0,0x4
    27cc:	6c850513          	addi	a0,a0,1736 # 6e90 <__fsym_pinMode_name+0x160>
    27d0:	af9ff0ef          	jal	ra,22c8 <object_name_maxlen>
    27d4:	89aa                	mv	s3,a0
    27d6:	00004617          	auipc	a2,0x4
    27da:	6ba60613          	addi	a2,a2,1722 # 6e90 <__fsym_pinMode_name+0x160>
    27de:	85aa                	mv	a1,a0
    27e0:	00004517          	auipc	a0,0x4
    27e4:	6bc50513          	addi	a0,a0,1724 # 6e9c <__fsym_pinMode_name+0x16c>
    27e8:	303010ef          	jal	ra,42ea <rt_kprintf>
    27ec:	87ce                	mv	a5,s3
    27ee:	a801                	j	27fe <_list_msgqueue+0x46>
    27f0:	00005517          	auipc	a0,0x5
    27f4:	81850513          	addi	a0,a0,-2024 # 7008 <__fsym_pinMode_name+0x2d8>
    27f8:	2f3010ef          	jal	ra,42ea <rt_kprintf>
    27fc:	87a2                	mv	a5,s0
    27fe:	fff78413          	addi	s0,a5,-1
    2802:	f7fd                	bnez	a5,27f0 <_list_msgqueue+0x38>
    2804:	00004517          	auipc	a0,0x4
    2808:	6b450513          	addi	a0,a0,1716 # 6eb8 <__fsym_pinMode_name+0x188>
    280c:	2df010ef          	jal	ra,42ea <rt_kprintf>
    2810:	00092483          	lw	s1,0(s2)
    2814:	a01d                	j	283a <_list_msgqueue+0x82>
    2816:	4621                	li	a2,8
    2818:	85ce                	mv	a1,s3
    281a:	00004517          	auipc	a0,0x4
    281e:	6b650513          	addi	a0,a0,1718 # 6ed0 <__fsym_pinMode_name+0x1a0>
    2822:	2c9010ef          	jal	ra,42ea <rt_kprintf>
    2826:	8522                	mv	a0,s0
    2828:	a5fff0ef          	jal	ra,2286 <show_wait_queue>
    282c:	00004517          	auipc	a0,0x4
    2830:	d0450513          	addi	a0,a0,-764 # 6530 <_read+0x90>
    2834:	2b7010ef          	jal	ra,42ea <rt_kprintf>
    2838:	4084                	lw	s1,0(s1)
    283a:	05248663          	beq	s1,s2,2886 <_list_msgqueue+0xce>
    283e:	00848413          	addi	s0,s1,8
    2842:	449c                	lw	a5,8(s1)
    2844:	00f40d63          	beq	s0,a5,285e <_list_msgqueue+0xa6>
    2848:	ff448693          	addi	a3,s1,-12
    284c:	0184d703          	lhu	a4,24(s1)
    2850:	8622                	mv	a2,s0
    2852:	4781                	li	a5,0
    2854:	4210                	lw	a2,0(a2)
    2856:	fcc400e3          	beq	s0,a2,2816 <_list_msgqueue+0x5e>
    285a:	0785                	addi	a5,a5,1
    285c:	bfe5                	j	2854 <_list_msgqueue+0x9c>
    285e:	ff448693          	addi	a3,s1,-12
    2862:	0184d703          	lhu	a4,24(s1)
    2866:	8622                	mv	a2,s0
    2868:	4781                	li	a5,0
    286a:	4210                	lw	a2,0(a2)
    286c:	00c40463          	beq	s0,a2,2874 <_list_msgqueue+0xbc>
    2870:	0785                	addi	a5,a5,1
    2872:	bfe5                	j	286a <_list_msgqueue+0xb2>
    2874:	4621                	li	a2,8
    2876:	85ce                	mv	a1,s3
    2878:	00004517          	auipc	a0,0x4
    287c:	66c50513          	addi	a0,a0,1644 # 6ee4 <__fsym_pinMode_name+0x1b4>
    2880:	26b010ef          	jal	ra,42ea <rt_kprintf>
    2884:	bf55                	j	2838 <_list_msgqueue+0x80>
    2886:	4501                	li	a0,0
    2888:	40f2                	lw	ra,28(sp)
    288a:	4462                	lw	s0,24(sp)
    288c:	44d2                	lw	s1,20(sp)
    288e:	4942                	lw	s2,16(sp)
    2890:	49b2                	lw	s3,12(sp)
    2892:	6105                	addi	sp,sp,32
    2894:	8082                	ret

00002896 <list_msgqueue>:
    2896:	1141                	addi	sp,sp,-16
    2898:	c606                	sw	ra,12(sp)
    289a:	4519                	li	a0,6
    289c:	6fd010ef          	jal	ra,4798 <rt_object_get_information>
    28a0:	0511                	addi	a0,a0,4
    28a2:	3f19                	jal	27b8 <_list_msgqueue>
    28a4:	40b2                	lw	ra,12(sp)
    28a6:	0141                	addi	sp,sp,16
    28a8:	8082                	ret

000028aa <_list_device>:
    28aa:	711d                	addi	sp,sp,-96
    28ac:	ce86                	sw	ra,92(sp)
    28ae:	cca2                	sw	s0,88(sp)
    28b0:	caa6                	sw	s1,84(sp)
    28b2:	c8ca                	sw	s2,80(sp)
    28b4:	84aa                	mv	s1,a0
    28b6:	00004797          	auipc	a5,0x4
    28ba:	bfa78793          	addi	a5,a5,-1030 # 64b0 <_read+0x10>
    28be:	870a                	mv	a4,sp
    28c0:	00004817          	auipc	a6,0x4
    28c4:	c4080813          	addi	a6,a6,-960 # 6500 <_read+0x60>
    28c8:	4388                	lw	a0,0(a5)
    28ca:	43cc                	lw	a1,4(a5)
    28cc:	4790                	lw	a2,8(a5)
    28ce:	47d4                	lw	a3,12(a5)
    28d0:	c308                	sw	a0,0(a4)
    28d2:	c34c                	sw	a1,4(a4)
    28d4:	c710                	sw	a2,8(a4)
    28d6:	c754                	sw	a3,12(a4)
    28d8:	07c1                	addi	a5,a5,16
    28da:	0741                	addi	a4,a4,16
    28dc:	ff0796e3          	bne	a5,a6,28c8 <_list_device+0x1e>
    28e0:	85a6                	mv	a1,s1
    28e2:	00004517          	auipc	a0,0x4
    28e6:	45650513          	addi	a0,a0,1110 # 6d38 <__fsym_pinMode_name+0x8>
    28ea:	9dfff0ef          	jal	ra,22c8 <object_name_maxlen>
    28ee:	892a                	mv	s2,a0
    28f0:	00004617          	auipc	a2,0x4
    28f4:	44860613          	addi	a2,a2,1096 # 6d38 <__fsym_pinMode_name+0x8>
    28f8:	85aa                	mv	a1,a0
    28fa:	00004517          	auipc	a0,0x4
    28fe:	44650513          	addi	a0,a0,1094 # 6d40 <__fsym_pinMode_name+0x10>
    2902:	1e9010ef          	jal	ra,42ea <rt_kprintf>
    2906:	87ca                	mv	a5,s2
    2908:	fff78413          	addi	s0,a5,-1
    290c:	cb89                	beqz	a5,291e <_list_device+0x74>
    290e:	00004517          	auipc	a0,0x4
    2912:	6fa50513          	addi	a0,a0,1786 # 7008 <__fsym_pinMode_name+0x2d8>
    2916:	1d5010ef          	jal	ra,42ea <rt_kprintf>
    291a:	87a2                	mv	a5,s0
    291c:	b7f5                	j	2908 <_list_device+0x5e>
    291e:	00004517          	auipc	a0,0x4
    2922:	44a50513          	addi	a0,a0,1098 # 6d68 <__fsym_pinMode_name+0x38>
    2926:	1c5010ef          	jal	ra,42ea <rt_kprintf>
    292a:	4080                	lw	s0,0(s1)
    292c:	a005                	j	294c <_list_device+0xa2>
    292e:	00005717          	auipc	a4,0x5
    2932:	b7e70713          	addi	a4,a4,-1154 # 74ac <__fsym_reboot_name+0x10>
    2936:	01044783          	lbu	a5,16(s0)
    293a:	4621                	li	a2,8
    293c:	85ca                	mv	a1,s2
    293e:	00004517          	auipc	a0,0x4
    2942:	44e50513          	addi	a0,a0,1102 # 6d8c <__fsym_pinMode_name+0x5c>
    2946:	1a5010ef          	jal	ra,42ea <rt_kprintf>
    294a:	4000                	lw	s0,0(s0)
    294c:	00940e63          	beq	s0,s1,2968 <_list_device+0xbe>
    2950:	ff440693          	addi	a3,s0,-12
    2954:	441c                	lw	a5,8(s0)
    2956:	4751                	li	a4,20
    2958:	fcf76be3          	bltu	a4,a5,292e <_list_device+0x84>
    295c:	078a                	slli	a5,a5,0x2
    295e:	0898                	addi	a4,sp,80
    2960:	97ba                	add	a5,a5,a4
    2962:	fb07a703          	lw	a4,-80(a5)
    2966:	bfc1                	j	2936 <_list_device+0x8c>
    2968:	4501                	li	a0,0
    296a:	40f6                	lw	ra,92(sp)
    296c:	4466                	lw	s0,88(sp)
    296e:	44d6                	lw	s1,84(sp)
    2970:	4946                	lw	s2,80(sp)
    2972:	6125                	addi	sp,sp,96
    2974:	8082                	ret

00002976 <list_device>:
    2976:	1141                	addi	sp,sp,-16
    2978:	c606                	sw	ra,12(sp)
    297a:	4525                	li	a0,9
    297c:	61d010ef          	jal	ra,4798 <rt_object_get_information>
    2980:	0511                	addi	a0,a0,4
    2982:	3725                	jal	28aa <_list_device>
    2984:	40b2                	lw	ra,12(sp)
    2986:	0141                	addi	sp,sp,16
    2988:	8082                	ret

0000298a <_list_timer>:
    298a:	1141                	addi	sp,sp,-16
    298c:	c606                	sw	ra,12(sp)
    298e:	c422                	sw	s0,8(sp)
    2990:	c226                	sw	s1,4(sp)
    2992:	c04a                	sw	s2,0(sp)
    2994:	84aa                	mv	s1,a0
    2996:	85aa                	mv	a1,a0
    2998:	00004517          	auipc	a0,0x4
    299c:	71850513          	addi	a0,a0,1816 # 70b0 <__fsym_pinMode_name+0x380>
    29a0:	929ff0ef          	jal	ra,22c8 <object_name_maxlen>
    29a4:	892a                	mv	s2,a0
    29a6:	00004617          	auipc	a2,0x4
    29aa:	70a60613          	addi	a2,a2,1802 # 70b0 <__fsym_pinMode_name+0x380>
    29ae:	85aa                	mv	a1,a0
    29b0:	00004517          	auipc	a0,0x4
    29b4:	70850513          	addi	a0,a0,1800 # 70b8 <__fsym_pinMode_name+0x388>
    29b8:	133010ef          	jal	ra,42ea <rt_kprintf>
    29bc:	87ca                	mv	a5,s2
    29be:	fff78413          	addi	s0,a5,-1
    29c2:	cb89                	beqz	a5,29d4 <_list_timer+0x4a>
    29c4:	00004517          	auipc	a0,0x4
    29c8:	64450513          	addi	a0,a0,1604 # 7008 <__fsym_pinMode_name+0x2d8>
    29cc:	11f010ef          	jal	ra,42ea <rt_kprintf>
    29d0:	87a2                	mv	a5,s0
    29d2:	b7f5                	j	29be <_list_timer+0x34>
    29d4:	00004517          	auipc	a0,0x4
    29d8:	70c50513          	addi	a0,a0,1804 # 70e0 <__fsym_pinMode_name+0x3b0>
    29dc:	10f010ef          	jal	ra,42ea <rt_kprintf>
    29e0:	4080                	lw	s0,0(s1)
    29e2:	a801                	j	29f2 <_list_timer+0x68>
    29e4:	00004517          	auipc	a0,0x4
    29e8:	74450513          	addi	a0,a0,1860 # 7128 <__fsym_pinMode_name+0x3f8>
    29ec:	0ff010ef          	jal	ra,42ea <rt_kprintf>
    29f0:	4000                	lw	s0,0(s0)
    29f2:	02940963          	beq	s0,s1,2a24 <_list_timer+0x9a>
    29f6:	4c5c                	lw	a5,28(s0)
    29f8:	4c18                	lw	a4,24(s0)
    29fa:	ff440693          	addi	a3,s0,-12
    29fe:	4621                	li	a2,8
    2a00:	85ca                	mv	a1,s2
    2a02:	00004517          	auipc	a0,0x4
    2a06:	70250513          	addi	a0,a0,1794 # 7104 <__fsym_pinMode_name+0x3d4>
    2a0a:	0e1010ef          	jal	ra,42ea <rt_kprintf>
    2a0e:	ffd44783          	lbu	a5,-3(s0)
    2a12:	8b85                	andi	a5,a5,1
    2a14:	dbe1                	beqz	a5,29e4 <_list_timer+0x5a>
    2a16:	00004517          	auipc	a0,0x4
    2a1a:	70650513          	addi	a0,a0,1798 # 711c <__fsym_pinMode_name+0x3ec>
    2a1e:	0cd010ef          	jal	ra,42ea <rt_kprintf>
    2a22:	b7f9                	j	29f0 <_list_timer+0x66>
    2a24:	433000ef          	jal	ra,3656 <rt_tick_get>
    2a28:	85aa                	mv	a1,a0
    2a2a:	00004517          	auipc	a0,0x4
    2a2e:	70e50513          	addi	a0,a0,1806 # 7138 <__fsym_pinMode_name+0x408>
    2a32:	0b9010ef          	jal	ra,42ea <rt_kprintf>
    2a36:	4501                	li	a0,0
    2a38:	40b2                	lw	ra,12(sp)
    2a3a:	4422                	lw	s0,8(sp)
    2a3c:	4492                	lw	s1,4(sp)
    2a3e:	4902                	lw	s2,0(sp)
    2a40:	0141                	addi	sp,sp,16
    2a42:	8082                	ret

00002a44 <list_timer>:
    2a44:	1141                	addi	sp,sp,-16
    2a46:	c606                	sw	ra,12(sp)
    2a48:	4529                	li	a0,10
    2a4a:	54f010ef          	jal	ra,4798 <rt_object_get_information>
    2a4e:	0511                	addi	a0,a0,4
    2a50:	3f2d                	jal	298a <_list_timer>
    2a52:	40b2                	lw	ra,12(sp)
    2a54:	0141                	addi	sp,sp,16
    2a56:	8082                	ret

00002a58 <list>:
    2a58:	1141                	addi	sp,sp,-16
    2a5a:	c606                	sw	ra,12(sp)
    2a5c:	c422                	sw	s0,8(sp)
    2a5e:	c226                	sw	s1,4(sp)
    2a60:	00004517          	auipc	a0,0x4
    2a64:	6f850513          	addi	a0,a0,1784 # 7158 <__fsym_pinMode_name+0x428>
    2a68:	083010ef          	jal	ra,42ea <rt_kprintf>
    2a6c:	81c18793          	addi	a5,gp,-2020 # 200001dc <_syscall_table_begin>
    2a70:	4380                	lw	s0,0(a5)
    2a72:	a011                	j	2a76 <list+0x1e>
    2a74:	0431                	addi	s0,s0,12
    2a76:	82018793          	addi	a5,gp,-2016 # 200001e0 <_syscall_table_end>
    2a7a:	439c                	lw	a5,0(a5)
    2a7c:	02f47563          	bgeu	s0,a5,2aa6 <list+0x4e>
    2a80:	4004                	lw	s1,0(s0)
    2a82:	4609                	li	a2,2
    2a84:	00004597          	auipc	a1,0x4
    2a88:	6e858593          	addi	a1,a1,1768 # 716c <__fsym_pinMode_name+0x43c>
    2a8c:	8526                	mv	a0,s1
    2a8e:	237020ef          	jal	ra,54c4 <strncmp>
    2a92:	d16d                	beqz	a0,2a74 <list+0x1c>
    2a94:	4050                	lw	a2,4(s0)
    2a96:	85a6                	mv	a1,s1
    2a98:	00004517          	auipc	a0,0x4
    2a9c:	6d850513          	addi	a0,a0,1752 # 7170 <__fsym_pinMode_name+0x440>
    2aa0:	04b010ef          	jal	ra,42ea <rt_kprintf>
    2aa4:	bfc1                	j	2a74 <list+0x1c>
    2aa6:	4501                	li	a0,0
    2aa8:	40b2                	lw	ra,12(sp)
    2aaa:	4422                	lw	s0,8(sp)
    2aac:	4492                	lw	s1,4(sp)
    2aae:	0141                	addi	sp,sp,16
    2ab0:	8082                	ret

00002ab2 <str_common>:
    2ab2:	87aa                	mv	a5,a0
    2ab4:	a019                	j	2aba <str_common+0x8>
    2ab6:	0785                	addi	a5,a5,1
    2ab8:	0585                	addi	a1,a1,1
    2aba:	00078703          	lb	a4,0(a5)
    2abe:	c711                	beqz	a4,2aca <str_common+0x18>
    2ac0:	00058683          	lb	a3,0(a1)
    2ac4:	c299                	beqz	a3,2aca <str_common+0x18>
    2ac6:	fed708e3          	beq	a4,a3,2ab6 <str_common+0x4>
    2aca:	40a78533          	sub	a0,a5,a0
    2ace:	8082                	ret

00002ad0 <msh_split>:
    2ad0:	1141                	addi	sp,sp,-16
    2ad2:	c606                	sw	ra,12(sp)
    2ad4:	c422                	sw	s0,8(sp)
    2ad6:	c226                	sw	s1,4(sp)
    2ad8:	c04a                	sw	s2,0(sp)
    2ada:	84b2                	mv	s1,a2
    2adc:	4401                	li	s0,0
    2ade:	4781                	li	a5,0
    2ae0:	a0f5                	j	2bcc <msh_split+0xfc>
    2ae2:	00b7ff63          	bgeu	a5,a1,2b00 <msh_split+0x30>
    2ae6:	00050023          	sb	zero,0(a0)
    2aea:	0505                	addi	a0,a0,1
    2aec:	0785                	addi	a5,a5,1
    2aee:	00050703          	lb	a4,0(a0)
    2af2:	02000693          	li	a3,32
    2af6:	fed706e3          	beq	a4,a3,2ae2 <msh_split+0x12>
    2afa:	46a5                	li	a3,9
    2afc:	fed703e3          	beq	a4,a3,2ae2 <msh_split+0x12>
    2b00:	46a5                	li	a3,9
    2b02:	0086ee63          	bltu	a3,s0,2b1e <msh_split+0x4e>
    2b06:	04b7f763          	bgeu	a5,a1,2b54 <msh_split+0x84>
    2b0a:	02200693          	li	a3,34
    2b0e:	04d70a63          	beq	a4,a3,2b62 <msh_split+0x92>
    2b12:	00241713          	slli	a4,s0,0x2
    2b16:	9726                	add	a4,a4,s1
    2b18:	c308                	sw	a0,0(a4)
    2b1a:	0405                	addi	s0,s0,1
    2b1c:	a859                	j	2bb2 <msh_split+0xe2>
    2b1e:	00005517          	auipc	a0,0x5
    2b22:	af250513          	addi	a0,a0,-1294 # 7610 <__fsym_reboot_name+0x174>
    2b26:	7c4010ef          	jal	ra,42ea <rt_kprintf>
    2b2a:	4901                	li	s2,0
    2b2c:	a821                	j	2b44 <msh_split+0x74>
    2b2e:	00291793          	slli	a5,s2,0x2
    2b32:	97a6                	add	a5,a5,s1
    2b34:	438c                	lw	a1,0(a5)
    2b36:	00005517          	auipc	a0,0x5
    2b3a:	afa50513          	addi	a0,a0,-1286 # 7630 <__fsym_reboot_name+0x194>
    2b3e:	7ac010ef          	jal	ra,42ea <rt_kprintf>
    2b42:	0905                	addi	s2,s2,1
    2b44:	fe8965e3          	bltu	s2,s0,2b2e <msh_split+0x5e>
    2b48:	00004517          	auipc	a0,0x4
    2b4c:	9e850513          	addi	a0,a0,-1560 # 6530 <_read+0x90>
    2b50:	79a010ef          	jal	ra,42ea <rt_kprintf>
    2b54:	8522                	mv	a0,s0
    2b56:	40b2                	lw	ra,12(sp)
    2b58:	4422                	lw	s0,8(sp)
    2b5a:	4492                	lw	s1,4(sp)
    2b5c:	4902                	lw	s2,0(sp)
    2b5e:	0141                	addi	sp,sp,16
    2b60:	8082                	ret
    2b62:	0505                	addi	a0,a0,1
    2b64:	0785                	addi	a5,a5,1
    2b66:	00241713          	slli	a4,s0,0x2
    2b6a:	9726                	add	a4,a4,s1
    2b6c:	c308                	sw	a0,0(a4)
    2b6e:	0405                	addi	s0,s0,1
    2b70:	a019                	j	2b76 <msh_split+0xa6>
    2b72:	0505                	addi	a0,a0,1
    2b74:	0785                	addi	a5,a5,1
    2b76:	00050703          	lb	a4,0(a0)
    2b7a:	02200693          	li	a3,34
    2b7e:	02d70163          	beq	a4,a3,2ba0 <msh_split+0xd0>
    2b82:	00b7ff63          	bgeu	a5,a1,2ba0 <msh_split+0xd0>
    2b86:	05c00693          	li	a3,92
    2b8a:	fed714e3          	bne	a4,a3,2b72 <msh_split+0xa2>
    2b8e:	00150683          	lb	a3,1(a0)
    2b92:	02200713          	li	a4,34
    2b96:	fce69ee3          	bne	a3,a4,2b72 <msh_split+0xa2>
    2b9a:	0505                	addi	a0,a0,1
    2b9c:	0785                	addi	a5,a5,1
    2b9e:	bfd1                	j	2b72 <msh_split+0xa2>
    2ba0:	fab7fae3          	bgeu	a5,a1,2b54 <msh_split+0x84>
    2ba4:	00050023          	sb	zero,0(a0)
    2ba8:	0505                	addi	a0,a0,1
    2baa:	0785                	addi	a5,a5,1
    2bac:	a005                	j	2bcc <msh_split+0xfc>
    2bae:	0505                	addi	a0,a0,1
    2bb0:	0785                	addi	a5,a5,1
    2bb2:	00050703          	lb	a4,0(a0)
    2bb6:	02000693          	li	a3,32
    2bba:	00d70763          	beq	a4,a3,2bc8 <msh_split+0xf8>
    2bbe:	46a5                	li	a3,9
    2bc0:	00d70463          	beq	a4,a3,2bc8 <msh_split+0xf8>
    2bc4:	feb7e5e3          	bltu	a5,a1,2bae <msh_split+0xde>
    2bc8:	f8b7f6e3          	bgeu	a5,a1,2b54 <msh_split+0x84>
    2bcc:	f2b7e1e3          	bltu	a5,a1,2aee <msh_split+0x1e>
    2bd0:	b751                	j	2b54 <msh_split+0x84>

00002bd2 <msh_help>:
    2bd2:	1141                	addi	sp,sp,-16
    2bd4:	c606                	sw	ra,12(sp)
    2bd6:	c422                	sw	s0,8(sp)
    2bd8:	c226                	sw	s1,4(sp)
    2bda:	00005517          	auipc	a0,0x5
    2bde:	a0650513          	addi	a0,a0,-1530 # 75e0 <__fsym_reboot_name+0x144>
    2be2:	708010ef          	jal	ra,42ea <rt_kprintf>
    2be6:	81c18793          	addi	a5,gp,-2020 # 200001dc <_syscall_table_begin>
    2bea:	4380                	lw	s0,0(a5)
    2bec:	a011                	j	2bf0 <msh_help+0x1e>
    2bee:	0431                	addi	s0,s0,12
    2bf0:	82018793          	addi	a5,gp,-2016 # 200001e0 <_syscall_table_end>
    2bf4:	439c                	lw	a5,0(a5)
    2bf6:	02f47663          	bgeu	s0,a5,2c22 <msh_help+0x50>
    2bfa:	4004                	lw	s1,0(s0)
    2bfc:	4619                	li	a2,6
    2bfe:	00005597          	auipc	a1,0x5
    2c02:	9fe58593          	addi	a1,a1,-1538 # 75fc <__fsym_reboot_name+0x160>
    2c06:	8526                	mv	a0,s1
    2c08:	0bd020ef          	jal	ra,54c4 <strncmp>
    2c0c:	f16d                	bnez	a0,2bee <msh_help+0x1c>
    2c0e:	4050                	lw	a2,4(s0)
    2c10:	00648593          	addi	a1,s1,6
    2c14:	00005517          	auipc	a0,0x5
    2c18:	9f050513          	addi	a0,a0,-1552 # 7604 <__fsym_reboot_name+0x168>
    2c1c:	6ce010ef          	jal	ra,42ea <rt_kprintf>
    2c20:	b7f9                	j	2bee <msh_help+0x1c>
    2c22:	00004517          	auipc	a0,0x4
    2c26:	90e50513          	addi	a0,a0,-1778 # 6530 <_read+0x90>
    2c2a:	6c0010ef          	jal	ra,42ea <rt_kprintf>
    2c2e:	4501                	li	a0,0
    2c30:	40b2                	lw	ra,12(sp)
    2c32:	4422                	lw	s0,8(sp)
    2c34:	4492                	lw	s1,4(sp)
    2c36:	0141                	addi	sp,sp,16
    2c38:	8082                	ret

00002c3a <msh_get_cmd>:
    2c3a:	1101                	addi	sp,sp,-32
    2c3c:	ce06                	sw	ra,28(sp)
    2c3e:	cc22                	sw	s0,24(sp)
    2c40:	ca26                	sw	s1,20(sp)
    2c42:	c84a                	sw	s2,16(sp)
    2c44:	c64e                	sw	s3,12(sp)
    2c46:	89aa                	mv	s3,a0
    2c48:	892e                	mv	s2,a1
    2c4a:	81c18793          	addi	a5,gp,-2020 # 200001dc <_syscall_table_begin>
    2c4e:	4380                	lw	s0,0(a5)
    2c50:	a011                	j	2c54 <msh_get_cmd+0x1a>
    2c52:	0431                	addi	s0,s0,12
    2c54:	82018793          	addi	a5,gp,-2016 # 200001e0 <_syscall_table_end>
    2c58:	439c                	lw	a5,0(a5)
    2c5a:	02f47b63          	bgeu	s0,a5,2c90 <msh_get_cmd+0x56>
    2c5e:	4004                	lw	s1,0(s0)
    2c60:	4619                	li	a2,6
    2c62:	00005597          	auipc	a1,0x5
    2c66:	99a58593          	addi	a1,a1,-1638 # 75fc <__fsym_reboot_name+0x160>
    2c6a:	8526                	mv	a0,s1
    2c6c:	059020ef          	jal	ra,54c4 <strncmp>
    2c70:	f16d                	bnez	a0,2c52 <msh_get_cmd+0x18>
    2c72:	864a                	mv	a2,s2
    2c74:	85ce                	mv	a1,s3
    2c76:	00648513          	addi	a0,s1,6
    2c7a:	04b020ef          	jal	ra,54c4 <strncmp>
    2c7e:	f971                	bnez	a0,2c52 <msh_get_cmd+0x18>
    2c80:	00690793          	addi	a5,s2,6
    2c84:	94be                	add	s1,s1,a5
    2c86:	00048783          	lb	a5,0(s1)
    2c8a:	f7e1                	bnez	a5,2c52 <msh_get_cmd+0x18>
    2c8c:	4408                	lw	a0,8(s0)
    2c8e:	a011                	j	2c92 <msh_get_cmd+0x58>
    2c90:	4501                	li	a0,0
    2c92:	40f2                	lw	ra,28(sp)
    2c94:	4462                	lw	s0,24(sp)
    2c96:	44d2                	lw	s1,20(sp)
    2c98:	4942                	lw	s2,16(sp)
    2c9a:	49b2                	lw	s3,12(sp)
    2c9c:	6105                	addi	sp,sp,32
    2c9e:	8082                	ret

00002ca0 <_msh_exec_cmd>:
    2ca0:	4781                	li	a5,0
    2ca2:	a011                	j	2ca6 <_msh_exec_cmd+0x6>
    2ca4:	0785                	addi	a5,a5,1
    2ca6:	00f50733          	add	a4,a0,a5
    2caa:	00070703          	lb	a4,0(a4)
    2cae:	02000693          	li	a3,32
    2cb2:	00d70763          	beq	a4,a3,2cc0 <_msh_exec_cmd+0x20>
    2cb6:	46a5                	li	a3,9
    2cb8:	00d70463          	beq	a4,a3,2cc0 <_msh_exec_cmd+0x20>
    2cbc:	feb7e4e3          	bltu	a5,a1,2ca4 <_msh_exec_cmd+0x4>
    2cc0:	cba9                	beqz	a5,2d12 <_msh_exec_cmd+0x72>
    2cc2:	715d                	addi	sp,sp,-80
    2cc4:	c686                	sw	ra,76(sp)
    2cc6:	c4a2                	sw	s0,72(sp)
    2cc8:	c2a6                	sw	s1,68(sp)
    2cca:	c0ca                	sw	s2,64(sp)
    2ccc:	de4e                	sw	s3,60(sp)
    2cce:	8932                	mv	s2,a2
    2cd0:	84ae                	mv	s1,a1
    2cd2:	842a                	mv	s0,a0
    2cd4:	85be                	mv	a1,a5
    2cd6:	3795                	jal	2c3a <msh_get_cmd>
    2cd8:	89aa                	mv	s3,a0
    2cda:	cd15                	beqz	a0,2d16 <_msh_exec_cmd+0x76>
    2cdc:	c402                	sw	zero,8(sp)
    2cde:	c602                	sw	zero,12(sp)
    2ce0:	c802                	sw	zero,16(sp)
    2ce2:	ca02                	sw	zero,20(sp)
    2ce4:	cc02                	sw	zero,24(sp)
    2ce6:	ce02                	sw	zero,28(sp)
    2ce8:	d002                	sw	zero,32(sp)
    2cea:	d202                	sw	zero,36(sp)
    2cec:	d402                	sw	zero,40(sp)
    2cee:	d602                	sw	zero,44(sp)
    2cf0:	0030                	addi	a2,sp,8
    2cf2:	85a6                	mv	a1,s1
    2cf4:	8522                	mv	a0,s0
    2cf6:	3be9                	jal	2ad0 <msh_split>
    2cf8:	c10d                	beqz	a0,2d1a <_msh_exec_cmd+0x7a>
    2cfa:	002c                	addi	a1,sp,8
    2cfc:	9982                	jalr	s3
    2cfe:	00a92023          	sw	a0,0(s2)
    2d02:	4501                	li	a0,0
    2d04:	40b6                	lw	ra,76(sp)
    2d06:	4426                	lw	s0,72(sp)
    2d08:	4496                	lw	s1,68(sp)
    2d0a:	4906                	lw	s2,64(sp)
    2d0c:	59f2                	lw	s3,60(sp)
    2d0e:	6161                	addi	sp,sp,80
    2d10:	8082                	ret
    2d12:	557d                	li	a0,-1
    2d14:	8082                	ret
    2d16:	557d                	li	a0,-1
    2d18:	b7f5                	j	2d04 <_msh_exec_cmd+0x64>
    2d1a:	557d                	li	a0,-1
    2d1c:	b7e5                	j	2d04 <_msh_exec_cmd+0x64>

00002d1e <msh_is_used>:
    2d1e:	4505                	li	a0,1
    2d20:	8082                	ret

00002d22 <msh_exec>:
    2d22:	1101                	addi	sp,sp,-32
    2d24:	ce06                	sw	ra,28(sp)
    2d26:	cc22                	sw	s0,24(sp)
    2d28:	842a                	mv	s0,a0
    2d2a:	a019                	j	2d30 <msh_exec+0xe>
    2d2c:	0405                	addi	s0,s0,1
    2d2e:	15fd                	addi	a1,a1,-1
    2d30:	00040783          	lb	a5,0(s0)
    2d34:	02000713          	li	a4,32
    2d38:	fee78ae3          	beq	a5,a4,2d2c <msh_exec+0xa>
    2d3c:	4725                	li	a4,9
    2d3e:	fee787e3          	beq	a5,a4,2d2c <msh_exec+0xa>
    2d42:	e591                	bnez	a1,2d4e <msh_exec+0x2c>
    2d44:	4501                	li	a0,0
    2d46:	40f2                	lw	ra,28(sp)
    2d48:	4462                	lw	s0,24(sp)
    2d4a:	6105                	addi	sp,sp,32
    2d4c:	8082                	ret
    2d4e:	0070                	addi	a2,sp,12
    2d50:	8522                	mv	a0,s0
    2d52:	37b9                	jal	2ca0 <_msh_exec_cmd>
    2d54:	e515                	bnez	a0,2d80 <msh_exec+0x5e>
    2d56:	4532                	lw	a0,12(sp)
    2d58:	b7fd                	j	2d46 <msh_exec+0x24>
    2d5a:	0785                	addi	a5,a5,1
    2d5c:	00078703          	lb	a4,0(a5)
    2d60:	02000693          	li	a3,32
    2d64:	00d70363          	beq	a4,a3,2d6a <msh_exec+0x48>
    2d68:	fb6d                	bnez	a4,2d5a <msh_exec+0x38>
    2d6a:	00078023          	sb	zero,0(a5)
    2d6e:	85a2                	mv	a1,s0
    2d70:	00005517          	auipc	a0,0x5
    2d74:	85850513          	addi	a0,a0,-1960 # 75c8 <__fsym_reboot_name+0x12c>
    2d78:	572010ef          	jal	ra,42ea <rt_kprintf>
    2d7c:	557d                	li	a0,-1
    2d7e:	b7e1                	j	2d46 <msh_exec+0x24>
    2d80:	87a2                	mv	a5,s0
    2d82:	bfe9                	j	2d5c <msh_exec+0x3a>

00002d84 <msh_auto_complete>:
    2d84:	1101                	addi	sp,sp,-32
    2d86:	ce06                	sw	ra,28(sp)
    2d88:	cc22                	sw	s0,24(sp)
    2d8a:	ca26                	sw	s1,20(sp)
    2d8c:	c84a                	sw	s2,16(sp)
    2d8e:	c64e                	sw	s3,12(sp)
    2d90:	c452                	sw	s4,8(sp)
    2d92:	c256                	sw	s5,4(sp)
    2d94:	00050783          	lb	a5,0(a0)
    2d98:	cb81                	beqz	a5,2da8 <msh_auto_complete+0x24>
    2d9a:	892a                	mv	s2,a0
    2d9c:	81c18793          	addi	a5,gp,-2020 # 200001dc <_syscall_table_begin>
    2da0:	4384                	lw	s1,0(a5)
    2da2:	4a81                	li	s5,0
    2da4:	4981                	li	s3,0
    2da6:	a02d                	j	2dd0 <msh_auto_complete+0x4c>
    2da8:	4581                	li	a1,0
    2daa:	4501                	li	a0,0
    2dac:	351d                	jal	2bd2 <msh_help>
    2dae:	a88d                	j	2e20 <msh_auto_complete+0x9c>
    2db0:	85a2                	mv	a1,s0
    2db2:	8556                	mv	a0,s5
    2db4:	39fd                	jal	2ab2 <str_common>
    2db6:	8a2a                	mv	s4,a0
    2db8:	01354363          	blt	a0,s3,2dbe <msh_auto_complete+0x3a>
    2dbc:	8a4e                	mv	s4,s3
    2dbe:	85a2                	mv	a1,s0
    2dc0:	00005517          	auipc	a0,0x5
    2dc4:	84c50513          	addi	a0,a0,-1972 # 760c <__fsym_reboot_name+0x170>
    2dc8:	522010ef          	jal	ra,42ea <rt_kprintf>
    2dcc:	89d2                	mv	s3,s4
    2dce:	04b1                	addi	s1,s1,12
    2dd0:	82018793          	addi	a5,gp,-2016 # 200001e0 <_syscall_table_end>
    2dd4:	439c                	lw	a5,0(a5)
    2dd6:	02f4fe63          	bgeu	s1,a5,2e12 <msh_auto_complete+0x8e>
    2dda:	4080                	lw	s0,0(s1)
    2ddc:	4619                	li	a2,6
    2dde:	00005597          	auipc	a1,0x5
    2de2:	81e58593          	addi	a1,a1,-2018 # 75fc <__fsym_reboot_name+0x160>
    2de6:	8522                	mv	a0,s0
    2de8:	6dc020ef          	jal	ra,54c4 <strncmp>
    2dec:	f16d                	bnez	a0,2dce <msh_auto_complete+0x4a>
    2dee:	0419                	addi	s0,s0,6
    2df0:	854a                	mv	a0,s2
    2df2:	6c0020ef          	jal	ra,54b2 <strlen>
    2df6:	862a                	mv	a2,a0
    2df8:	85a2                	mv	a1,s0
    2dfa:	854a                	mv	a0,s2
    2dfc:	6c8020ef          	jal	ra,54c4 <strncmp>
    2e00:	f579                	bnez	a0,2dce <msh_auto_complete+0x4a>
    2e02:	fa0997e3          	bnez	s3,2db0 <msh_auto_complete+0x2c>
    2e06:	8522                	mv	a0,s0
    2e08:	6aa020ef          	jal	ra,54b2 <strlen>
    2e0c:	89aa                	mv	s3,a0
    2e0e:	8aa2                	mv	s5,s0
    2e10:	b745                	j	2db0 <msh_auto_complete+0x2c>
    2e12:	000a8763          	beqz	s5,2e20 <msh_auto_complete+0x9c>
    2e16:	864e                	mv	a2,s3
    2e18:	85d6                	mv	a1,s5
    2e1a:	854a                	mv	a0,s2
    2e1c:	0a4010ef          	jal	ra,3ec0 <rt_strncpy>
    2e20:	40f2                	lw	ra,28(sp)
    2e22:	4462                	lw	s0,24(sp)
    2e24:	44d2                	lw	s1,20(sp)
    2e26:	4942                	lw	s2,16(sp)
    2e28:	49b2                	lw	s3,12(sp)
    2e2a:	4a22                	lw	s4,8(sp)
    2e2c:	4a92                	lw	s5,4(sp)
    2e2e:	6105                	addi	sp,sp,32
    2e30:	8082                	ret

00002e32 <cmd_ps>:
    2e32:	1141                	addi	sp,sp,-16
    2e34:	c606                	sw	ra,12(sp)
    2e36:	dfeff0ef          	jal	ra,2434 <list_thread>
    2e3a:	4501                	li	a0,0
    2e3c:	40b2                	lw	ra,12(sp)
    2e3e:	0141                	addi	sp,sp,16
    2e40:	8082                	ret

00002e42 <cmd_free>:
    2e42:	1141                	addi	sp,sp,-16
    2e44:	c606                	sw	ra,12(sp)
    2e46:	636010ef          	jal	ra,447c <list_mem>
    2e4a:	4501                	li	a0,0
    2e4c:	40b2                	lw	ra,12(sp)
    2e4e:	0141                	addi	sp,sp,16
    2e50:	8082                	ret

00002e52 <finsh_rx_ind>:
    2e52:	1141                	addi	sp,sp,-16
    2e54:	c606                	sw	ra,12(sp)
    2e56:	81818793          	addi	a5,gp,-2024 # 200001d8 <_edata>
    2e5a:	4388                	lw	a0,0(a5)
    2e5c:	55d000ef          	jal	ra,3bb8 <rt_sem_release>
    2e60:	4501                	li	a0,0
    2e62:	40b2                	lw	ra,12(sp)
    2e64:	0141                	addi	sp,sp,16
    2e66:	8082                	ret

00002e68 <finsh_getchar>:
    2e68:	1101                	addi	sp,sp,-32
    2e6a:	ce06                	sw	ra,28(sp)
    2e6c:	81818793          	addi	a5,gp,-2024 # 200001d8 <_edata>
    2e70:	439c                	lw	a5,0(a5)
    2e72:	4685                	li	a3,1
    2e74:	00f10613          	addi	a2,sp,15
    2e78:	55fd                	li	a1,-1
    2e7a:	20c7a503          	lw	a0,524(a5)
    2e7e:	29f000ef          	jal	ra,391c <rt_device_read>
    2e82:	4785                	li	a5,1
    2e84:	00f50963          	beq	a0,a5,2e96 <finsh_getchar+0x2e>
    2e88:	55fd                	li	a1,-1
    2e8a:	81818793          	addi	a5,gp,-2024 # 200001d8 <_edata>
    2e8e:	4388                	lw	a0,0(a5)
    2e90:	41f000ef          	jal	ra,3aae <rt_sem_take>
    2e94:	bfe1                	j	2e6c <finsh_getchar+0x4>
    2e96:	00f10503          	lb	a0,15(sp)
    2e9a:	40f2                	lw	ra,28(sp)
    2e9c:	6105                	addi	sp,sp,32
    2e9e:	8082                	ret

00002ea0 <shell_push_history>:
    2ea0:	1141                	addi	sp,sp,-16
    2ea2:	c606                	sw	ra,12(sp)
    2ea4:	c422                	sw	s0,8(sp)
    2ea6:	c226                	sw	s1,4(sp)
    2ea8:	c04a                	sw	s2,0(sp)
    2eaa:	842a                	mv	s0,a0
    2eac:	20a54783          	lbu	a5,522(a0)
    2eb0:	0e078d63          	beqz	a5,2faa <shell_push_history+0x10a>
    2eb4:	02855483          	lhu	s1,40(a0)
    2eb8:	4791                	li	a5,4
    2eba:	0897f163          	bgeu	a5,s1,2f3c <shell_push_history+0x9c>
    2ebe:	1ba50913          	addi	s2,a0,442
    2ec2:	05000613          	li	a2,80
    2ec6:	85ca                	mv	a1,s2
    2ec8:	16a50513          	addi	a0,a0,362
    2ecc:	328020ef          	jal	ra,51f4 <memcmp>
    2ed0:	cd69                	beqz	a0,2faa <shell_push_history+0x10a>
    2ed2:	4481                	li	s1,0
    2ed4:	a805                	j	2f04 <shell_push_history+0x64>
    2ed6:	00249793          	slli	a5,s1,0x2
    2eda:	97a6                	add	a5,a5,s1
    2edc:	00479513          	slli	a0,a5,0x4
    2ee0:	02050513          	addi	a0,a0,32
    2ee4:	9522                	add	a0,a0,s0
    2ee6:	0485                	addi	s1,s1,1
    2ee8:	00249793          	slli	a5,s1,0x2
    2eec:	97a6                	add	a5,a5,s1
    2eee:	00479593          	slli	a1,a5,0x4
    2ef2:	02058593          	addi	a1,a1,32
    2ef6:	95a2                	add	a1,a1,s0
    2ef8:	05000613          	li	a2,80
    2efc:	05a9                	addi	a1,a1,10
    2efe:	0529                	addi	a0,a0,10
    2f00:	31a020ef          	jal	ra,521a <memcpy>
    2f04:	478d                	li	a5,3
    2f06:	fc97d8e3          	bge	a5,s1,2ed6 <shell_push_history+0x36>
    2f0a:	00249793          	slli	a5,s1,0x2
    2f0e:	94be                	add	s1,s1,a5
    2f10:	00449793          	slli	a5,s1,0x4
    2f14:	02078493          	addi	s1,a5,32
    2f18:	94a2                	add	s1,s1,s0
    2f1a:	04a9                	addi	s1,s1,10
    2f1c:	05000613          	li	a2,80
    2f20:	4581                	li	a1,0
    2f22:	8526                	mv	a0,s1
    2f24:	c4efd0ef          	jal	ra,372 <memset>
    2f28:	20a44603          	lbu	a2,522(s0)
    2f2c:	85ca                	mv	a1,s2
    2f2e:	8526                	mv	a0,s1
    2f30:	2ea020ef          	jal	ra,521a <memcpy>
    2f34:	4795                	li	a5,5
    2f36:	02f41423          	sh	a5,40(s0)
    2f3a:	a885                	j	2faa <shell_push_history+0x10a>
    2f3c:	c09d                	beqz	s1,2f62 <shell_push_history+0xc2>
    2f3e:	fff48713          	addi	a4,s1,-1
    2f42:	00271793          	slli	a5,a4,0x2
    2f46:	97ba                	add	a5,a5,a4
    2f48:	00479513          	slli	a0,a5,0x4
    2f4c:	02050513          	addi	a0,a0,32
    2f50:	9522                	add	a0,a0,s0
    2f52:	05000613          	li	a2,80
    2f56:	1ba40593          	addi	a1,s0,442
    2f5a:	0529                	addi	a0,a0,10
    2f5c:	298020ef          	jal	ra,51f4 <memcmp>
    2f60:	c529                	beqz	a0,2faa <shell_push_history+0x10a>
    2f62:	00249793          	slli	a5,s1,0x2
    2f66:	94be                	add	s1,s1,a5
    2f68:	00449513          	slli	a0,s1,0x4
    2f6c:	02050513          	addi	a0,a0,32
    2f70:	9522                	add	a0,a0,s0
    2f72:	05000613          	li	a2,80
    2f76:	4581                	li	a1,0
    2f78:	0529                	addi	a0,a0,10
    2f7a:	bf8fd0ef          	jal	ra,372 <memset>
    2f7e:	02845703          	lhu	a4,40(s0)
    2f82:	00271793          	slli	a5,a4,0x2
    2f86:	97ba                	add	a5,a5,a4
    2f88:	00479513          	slli	a0,a5,0x4
    2f8c:	02050513          	addi	a0,a0,32
    2f90:	9522                	add	a0,a0,s0
    2f92:	20a44603          	lbu	a2,522(s0)
    2f96:	1ba40593          	addi	a1,s0,442
    2f9a:	0529                	addi	a0,a0,10
    2f9c:	27e020ef          	jal	ra,521a <memcpy>
    2fa0:	02845783          	lhu	a5,40(s0)
    2fa4:	0785                	addi	a5,a5,1
    2fa6:	02f41423          	sh	a5,40(s0)
    2faa:	02845783          	lhu	a5,40(s0)
    2fae:	02f41323          	sh	a5,38(s0)
    2fb2:	40b2                	lw	ra,12(sp)
    2fb4:	4422                	lw	s0,8(sp)
    2fb6:	4492                	lw	s1,4(sp)
    2fb8:	4902                	lw	s2,0(sp)
    2fba:	0141                	addi	sp,sp,16
    2fbc:	8082                	ret

00002fbe <finsh_get_prompt>:
    2fbe:	1141                	addi	sp,sp,-16
    2fc0:	c606                	sw	ra,12(sp)
    2fc2:	c422                	sw	s0,8(sp)
    2fc4:	3ba9                	jal	2d1e <msh_is_used>
    2fc6:	cd1d                	beqz	a0,3004 <finsh_get_prompt+0x46>
    2fc8:	1fffe717          	auipc	a4,0x1fffe
    2fcc:	37870713          	addi	a4,a4,888 # 20001340 <finsh_prompt.4329>
    2fd0:	206877b7          	lui	a5,0x20687
    2fd4:	36d78793          	addi	a5,a5,877 # 2068736d <_eusrstack+0x67736d>
    2fd8:	c31c                	sw	a5,0(a4)
    2fda:	00070223          	sb	zero,4(a4)
    2fde:	1fffe417          	auipc	s0,0x1fffe
    2fe2:	36240413          	addi	s0,s0,866 # 20001340 <finsh_prompt.4329>
    2fe6:	8522                	mv	a0,s0
    2fe8:	4ca020ef          	jal	ra,54b2 <strlen>
    2fec:	9522                	add	a0,a0,s0
    2fee:	03e00793          	li	a5,62
    2ff2:	00f50023          	sb	a5,0(a0)
    2ff6:	000500a3          	sb	zero,1(a0)
    2ffa:	8522                	mv	a0,s0
    2ffc:	40b2                	lw	ra,12(sp)
    2ffe:	4422                	lw	s0,8(sp)
    3000:	0141                	addi	sp,sp,16
    3002:	8082                	ret
    3004:	1fffe797          	auipc	a5,0x1fffe
    3008:	33c78793          	addi	a5,a5,828 # 20001340 <finsh_prompt.4329>
    300c:	736e7737          	lui	a4,0x736e7
    3010:	96670713          	addi	a4,a4,-1690 # 736e6966 <_eusrstack+0x536d6966>
    3014:	c398                	sw	a4,0(a5)
    3016:	6709                	lui	a4,0x2
    3018:	06870713          	addi	a4,a4,104 # 2068 <rt_serial_open+0x14>
    301c:	00e79223          	sh	a4,4(a5)
    3020:	00078323          	sb	zero,6(a5)
    3024:	bf6d                	j	2fde <finsh_get_prompt+0x20>

00003026 <shell_handle_history>:
    3026:	1141                	addi	sp,sp,-16
    3028:	c606                	sw	ra,12(sp)
    302a:	c422                	sw	s0,8(sp)
    302c:	842a                	mv	s0,a0
    302e:	00004517          	auipc	a0,0x4
    3032:	6de50513          	addi	a0,a0,1758 # 770c <__fsym___cmd_ps_name+0x68>
    3036:	2b4010ef          	jal	ra,42ea <rt_kprintf>
    303a:	3751                	jal	2fbe <finsh_get_prompt>
    303c:	1ba40613          	addi	a2,s0,442
    3040:	85aa                	mv	a1,a0
    3042:	00004517          	auipc	a0,0x4
    3046:	6d250513          	addi	a0,a0,1746 # 7714 <__fsym___cmd_ps_name+0x70>
    304a:	2a0010ef          	jal	ra,42ea <rt_kprintf>
    304e:	4501                	li	a0,0
    3050:	40b2                	lw	ra,12(sp)
    3052:	4422                	lw	s0,8(sp)
    3054:	0141                	addi	sp,sp,16
    3056:	8082                	ret

00003058 <shell_auto_complete>:
    3058:	1141                	addi	sp,sp,-16
    305a:	c606                	sw	ra,12(sp)
    305c:	c422                	sw	s0,8(sp)
    305e:	842a                	mv	s0,a0
    3060:	00003517          	auipc	a0,0x3
    3064:	4d050513          	addi	a0,a0,1232 # 6530 <_read+0x90>
    3068:	282010ef          	jal	ra,42ea <rt_kprintf>
    306c:	cb3ff0ef          	jal	ra,2d1e <msh_is_used>
    3070:	4785                	li	a5,1
    3072:	00f50f63          	beq	a0,a5,3090 <shell_auto_complete+0x38>
    3076:	37a1                	jal	2fbe <finsh_get_prompt>
    3078:	8622                	mv	a2,s0
    307a:	85aa                	mv	a1,a0
    307c:	00004517          	auipc	a0,0x4
    3080:	69850513          	addi	a0,a0,1688 # 7714 <__fsym___cmd_ps_name+0x70>
    3084:	266010ef          	jal	ra,42ea <rt_kprintf>
    3088:	40b2                	lw	ra,12(sp)
    308a:	4422                	lw	s0,8(sp)
    308c:	0141                	addi	sp,sp,16
    308e:	8082                	ret
    3090:	8522                	mv	a0,s0
    3092:	cf3ff0ef          	jal	ra,2d84 <msh_auto_complete>
    3096:	b7c5                	j	3076 <shell_auto_complete+0x1e>

00003098 <finsh_set_device>:
    3098:	1141                	addi	sp,sp,-16
    309a:	c606                	sw	ra,12(sp)
    309c:	c422                	sw	s0,8(sp)
    309e:	c226                	sw	s1,4(sp)
    30a0:	84aa                	mv	s1,a0
    30a2:	6ea000ef          	jal	ra,378c <rt_device_find>
    30a6:	c935                	beqz	a0,311a <finsh_set_device+0x82>
    30a8:	842a                	mv	s0,a0
    30aa:	81818793          	addi	a5,gp,-2024 # 200001d8 <_edata>
    30ae:	439c                	lw	a5,0(a5)
    30b0:	20c7a783          	lw	a5,524(a5)
    30b4:	04a78e63          	beq	a5,a0,3110 <finsh_set_device+0x78>
    30b8:	14300593          	li	a1,323
    30bc:	77e000ef          	jal	ra,383a <rt_device_open>
    30c0:	e921                	bnez	a0,3110 <finsh_set_device+0x78>
    30c2:	81818793          	addi	a5,gp,-2024 # 200001d8 <_edata>
    30c6:	439c                	lw	a5,0(a5)
    30c8:	20c7a503          	lw	a0,524(a5)
    30cc:	c919                	beqz	a0,30e2 <finsh_set_device+0x4a>
    30ce:	00f000ef          	jal	ra,38dc <rt_device_close>
    30d2:	81818793          	addi	a5,gp,-2024 # 200001d8 <_edata>
    30d6:	439c                	lw	a5,0(a5)
    30d8:	4581                	li	a1,0
    30da:	20c7a503          	lw	a0,524(a5)
    30de:	08b000ef          	jal	ra,3968 <rt_device_set_rx_indicate>
    30e2:	81818793          	addi	a5,gp,-2024 # 200001d8 <_edata>
    30e6:	4384                	lw	s1,0(a5)
    30e8:	05000613          	li	a2,80
    30ec:	4581                	li	a1,0
    30ee:	1ba48513          	addi	a0,s1,442
    30f2:	a80fd0ef          	jal	ra,372 <memset>
    30f6:	20048523          	sb	zero,522(s1)
    30fa:	200485a3          	sb	zero,523(s1)
    30fe:	2084a623          	sw	s0,524(s1)
    3102:	00000597          	auipc	a1,0x0
    3106:	d5058593          	addi	a1,a1,-688 # 2e52 <finsh_rx_ind>
    310a:	8522                	mv	a0,s0
    310c:	05d000ef          	jal	ra,3968 <rt_device_set_rx_indicate>
    3110:	40b2                	lw	ra,12(sp)
    3112:	4422                	lw	s0,8(sp)
    3114:	4492                	lw	s1,4(sp)
    3116:	0141                	addi	sp,sp,16
    3118:	8082                	ret
    311a:	85a6                	mv	a1,s1
    311c:	00004517          	auipc	a0,0x4
    3120:	59450513          	addi	a0,a0,1428 # 76b0 <__fsym___cmd_ps_name+0xc>
    3124:	1c6010ef          	jal	ra,42ea <rt_kprintf>
    3128:	b7e5                	j	3110 <finsh_set_device+0x78>

0000312a <finsh_thread_entry>:
    312a:	1141                	addi	sp,sp,-16
    312c:	c606                	sw	ra,12(sp)
    312e:	c422                	sw	s0,8(sp)
    3130:	c226                	sw	s1,4(sp)
    3132:	81818793          	addi	a5,gp,-2024 # 200001d8 <_edata>
    3136:	439c                	lw	a5,0(a5)
    3138:	0247c703          	lbu	a4,36(a5)
    313c:	00176713          	ori	a4,a4,1
    3140:	02e78223          	sb	a4,36(a5)
    3144:	20c7a783          	lw	a5,524(a5)
    3148:	c789                	beqz	a5,3152 <finsh_thread_entry+0x28>
    314a:	3d95                	jal	2fbe <finsh_get_prompt>
    314c:	19e010ef          	jal	ra,42ea <rt_kprintf>
    3150:	a819                	j	3166 <finsh_thread_entry+0x3c>
    3152:	152010ef          	jal	ra,42a4 <rt_console_get_device>
    3156:	d975                	beqz	a0,314a <finsh_thread_entry+0x20>
    3158:	3781                	jal	3098 <finsh_set_device>
    315a:	bfc5                	j	314a <finsh_thread_entry+0x20>
    315c:	81818793          	addi	a5,gp,-2024 # 200001d8 <_edata>
    3160:	439c                	lw	a5,0(a5)
    3162:	4705                	li	a4,1
    3164:	d398                	sw	a4,32(a5)
    3166:	d03ff0ef          	jal	ra,2e68 <finsh_getchar>
    316a:	842a                	mv	s0,a0
    316c:	47ed                	li	a5,27
    316e:	fef507e3          	beq	a0,a5,315c <finsh_thread_entry+0x32>
    3172:	81818793          	addi	a5,gp,-2024 # 200001d8 <_edata>
    3176:	4384                	lw	s1,0(a5)
    3178:	509c                	lw	a5,32(s1)
    317a:	4705                	li	a4,1
    317c:	08e78463          	beq	a5,a4,3204 <finsh_thread_entry+0xda>
    3180:	4709                	li	a4,2
    3182:	08e78b63          	beq	a5,a4,3218 <finsh_thread_entry+0xee>
    3186:	d065                	beqz	s0,3166 <finsh_thread_entry+0x3c>
    3188:	47a5                	li	a5,9
    318a:	1ef40d63          	beq	s0,a5,3384 <finsh_thread_entry+0x25a>
    318e:	07f00793          	li	a5,127
    3192:	1ef40b63          	beq	s0,a5,3388 <finsh_thread_entry+0x25e>
    3196:	47a1                	li	a5,8
    3198:	1ef40863          	beq	s0,a5,3388 <finsh_thread_entry+0x25e>
    319c:	47b5                	li	a5,13
    319e:	28f40863          	beq	s0,a5,342e <finsh_thread_entry+0x304>
    31a2:	47a9                	li	a5,10
    31a4:	28f40563          	beq	s0,a5,342e <finsh_thread_entry+0x304>
    31a8:	20a4c703          	lbu	a4,522(s1)
    31ac:	04f00793          	li	a5,79
    31b0:	00e7f463          	bgeu	a5,a4,31b8 <finsh_thread_entry+0x8e>
    31b4:	20048523          	sb	zero,522(s1)
    31b8:	20b4c603          	lbu	a2,523(s1)
    31bc:	20a4c783          	lbu	a5,522(s1)
    31c0:	2cf66a63          	bltu	a2,a5,3494 <finsh_thread_entry+0x36a>
    31c4:	97a6                	add	a5,a5,s1
    31c6:	1a878d23          	sb	s0,442(a5)
    31ca:	0244c783          	lbu	a5,36(s1)
    31ce:	8b85                	andi	a5,a5,1
    31d0:	32079b63          	bnez	a5,3506 <finsh_thread_entry+0x3dc>
    31d4:	81818793          	addi	a5,gp,-2024 # 200001d8 <_edata>
    31d8:	4398                	lw	a4,0(a5)
    31da:	20a74783          	lbu	a5,522(a4)
    31de:	0785                	addi	a5,a5,1
    31e0:	0ff7f793          	andi	a5,a5,255
    31e4:	20f70523          	sb	a5,522(a4)
    31e8:	20b74683          	lbu	a3,523(a4)
    31ec:	0685                	addi	a3,a3,1
    31ee:	20d705a3          	sb	a3,523(a4)
    31f2:	04f00693          	li	a3,79
    31f6:	f6f6f8e3          	bgeu	a3,a5,3166 <finsh_thread_entry+0x3c>
    31fa:	20070523          	sb	zero,522(a4)
    31fe:	200705a3          	sb	zero,523(a4)
    3202:	b795                	j	3166 <finsh_thread_entry+0x3c>
    3204:	05b00793          	li	a5,91
    3208:	00f50563          	beq	a0,a5,3212 <finsh_thread_entry+0xe8>
    320c:	0204a023          	sw	zero,32(s1)
    3210:	bf9d                	j	3186 <finsh_thread_entry+0x5c>
    3212:	4789                	li	a5,2
    3214:	d09c                	sw	a5,32(s1)
    3216:	bf81                	j	3166 <finsh_thread_entry+0x3c>
    3218:	0204a023          	sw	zero,32(s1)
    321c:	04100793          	li	a5,65
    3220:	04f50663          	beq	a0,a5,326c <finsh_thread_entry+0x142>
    3224:	04200793          	li	a5,66
    3228:	08f50a63          	beq	a0,a5,32bc <finsh_thread_entry+0x192>
    322c:	04400793          	li	a5,68
    3230:	0ef50763          	beq	a0,a5,331e <finsh_thread_entry+0x1f4>
    3234:	04300793          	li	a5,67
    3238:	f4f517e3          	bne	a0,a5,3186 <finsh_thread_entry+0x5c>
    323c:	20b4c783          	lbu	a5,523(s1)
    3240:	20a4c703          	lbu	a4,522(s1)
    3244:	f2e7f1e3          	bgeu	a5,a4,3166 <finsh_thread_entry+0x3c>
    3248:	97a6                	add	a5,a5,s1
    324a:	1ba78583          	lb	a1,442(a5)
    324e:	00004517          	auipc	a0,0x4
    3252:	4ae50513          	addi	a0,a0,1198 # 76fc <__fsym___cmd_ps_name+0x58>
    3256:	094010ef          	jal	ra,42ea <rt_kprintf>
    325a:	81818793          	addi	a5,gp,-2024 # 200001d8 <_edata>
    325e:	4398                	lw	a4,0(a5)
    3260:	20b74783          	lbu	a5,523(a4)
    3264:	0785                	addi	a5,a5,1
    3266:	20f705a3          	sb	a5,523(a4)
    326a:	bdf5                	j	3166 <finsh_thread_entry+0x3c>
    326c:	0264d783          	lhu	a5,38(s1)
    3270:	e781                	bnez	a5,3278 <finsh_thread_entry+0x14e>
    3272:	02049323          	sh	zero,38(s1)
    3276:	bdc5                	j	3166 <finsh_thread_entry+0x3c>
    3278:	17fd                	addi	a5,a5,-1
    327a:	07c2                	slli	a5,a5,0x10
    327c:	83c1                	srli	a5,a5,0x10
    327e:	02f49323          	sh	a5,38(s1)
    3282:	1ba48413          	addi	s0,s1,442
    3286:	00279713          	slli	a4,a5,0x2
    328a:	97ba                	add	a5,a5,a4
    328c:	00479713          	slli	a4,a5,0x4
    3290:	02070713          	addi	a4,a4,32
    3294:	00e485b3          	add	a1,s1,a4
    3298:	05000613          	li	a2,80
    329c:	05a9                	addi	a1,a1,10
    329e:	8522                	mv	a0,s0
    32a0:	77b010ef          	jal	ra,521a <memcpy>
    32a4:	8522                	mv	a0,s0
    32a6:	20c020ef          	jal	ra,54b2 <strlen>
    32aa:	0ff57513          	andi	a0,a0,255
    32ae:	20a48523          	sb	a0,522(s1)
    32b2:	20a485a3          	sb	a0,523(s1)
    32b6:	8526                	mv	a0,s1
    32b8:	33bd                	jal	3026 <shell_handle_history>
    32ba:	b575                	j	3166 <finsh_thread_entry+0x3c>
    32bc:	0264d703          	lhu	a4,38(s1)
    32c0:	0284d783          	lhu	a5,40(s1)
    32c4:	fff78693          	addi	a3,a5,-1
    32c8:	04d74763          	blt	a4,a3,3316 <finsh_thread_entry+0x1ec>
    32cc:	e8078de3          	beqz	a5,3166 <finsh_thread_entry+0x3c>
    32d0:	17fd                	addi	a5,a5,-1
    32d2:	02f49323          	sh	a5,38(s1)
    32d6:	1ba48413          	addi	s0,s1,442
    32da:	0264d783          	lhu	a5,38(s1)
    32de:	00279713          	slli	a4,a5,0x2
    32e2:	973e                	add	a4,a4,a5
    32e4:	00471793          	slli	a5,a4,0x4
    32e8:	02078793          	addi	a5,a5,32
    32ec:	00f485b3          	add	a1,s1,a5
    32f0:	05000613          	li	a2,80
    32f4:	05a9                	addi	a1,a1,10
    32f6:	8522                	mv	a0,s0
    32f8:	723010ef          	jal	ra,521a <memcpy>
    32fc:	8522                	mv	a0,s0
    32fe:	1b4020ef          	jal	ra,54b2 <strlen>
    3302:	0ff57513          	andi	a0,a0,255
    3306:	20a48523          	sb	a0,522(s1)
    330a:	20a485a3          	sb	a0,523(s1)
    330e:	8526                	mv	a0,s1
    3310:	d17ff0ef          	jal	ra,3026 <shell_handle_history>
    3314:	bd89                	j	3166 <finsh_thread_entry+0x3c>
    3316:	0705                	addi	a4,a4,1
    3318:	02e49323          	sh	a4,38(s1)
    331c:	bf6d                	j	32d6 <finsh_thread_entry+0x1ac>
    331e:	20b4c783          	lbu	a5,523(s1)
    3322:	e40782e3          	beqz	a5,3166 <finsh_thread_entry+0x3c>
    3326:	00004517          	auipc	a0,0x4
    332a:	3d250513          	addi	a0,a0,978 # 76f8 <__fsym___cmd_ps_name+0x54>
    332e:	7bd000ef          	jal	ra,42ea <rt_kprintf>
    3332:	81818793          	addi	a5,gp,-2024 # 200001d8 <_edata>
    3336:	4398                	lw	a4,0(a5)
    3338:	20b74783          	lbu	a5,523(a4)
    333c:	17fd                	addi	a5,a5,-1
    333e:	20f705a3          	sb	a5,523(a4)
    3342:	b515                	j	3166 <finsh_thread_entry+0x3c>
    3344:	00004517          	auipc	a0,0x4
    3348:	3b450513          	addi	a0,a0,948 # 76f8 <__fsym___cmd_ps_name+0x54>
    334c:	79f000ef          	jal	ra,42ea <rt_kprintf>
    3350:	0405                	addi	s0,s0,1
    3352:	81818793          	addi	a5,gp,-2024 # 200001d8 <_edata>
    3356:	4388                	lw	a0,0(a5)
    3358:	20b54783          	lbu	a5,523(a0)
    335c:	fef444e3          	blt	s0,a5,3344 <finsh_thread_entry+0x21a>
    3360:	1ba50513          	addi	a0,a0,442
    3364:	cf5ff0ef          	jal	ra,3058 <shell_auto_complete>
    3368:	81818793          	addi	a5,gp,-2024 # 200001d8 <_edata>
    336c:	4380                	lw	s0,0(a5)
    336e:	1ba40513          	addi	a0,s0,442
    3372:	140020ef          	jal	ra,54b2 <strlen>
    3376:	0ff57513          	andi	a0,a0,255
    337a:	20a40523          	sb	a0,522(s0)
    337e:	20a405a3          	sb	a0,523(s0)
    3382:	b3d5                	j	3166 <finsh_thread_entry+0x3c>
    3384:	4401                	li	s0,0
    3386:	b7f1                	j	3352 <finsh_thread_entry+0x228>
    3388:	20b4c783          	lbu	a5,523(s1)
    338c:	dc078de3          	beqz	a5,3166 <finsh_thread_entry+0x3c>
    3390:	20a4c603          	lbu	a2,522(s1)
    3394:	167d                	addi	a2,a2,-1
    3396:	0ff67613          	andi	a2,a2,255
    339a:	20c48523          	sb	a2,522(s1)
    339e:	17fd                	addi	a5,a5,-1
    33a0:	0ff7f793          	andi	a5,a5,255
    33a4:	20f485a3          	sb	a5,523(s1)
    33a8:	02c7e163          	bltu	a5,a2,33ca <finsh_thread_entry+0x2a0>
    33ac:	00004517          	auipc	a0,0x4
    33b0:	35c50513          	addi	a0,a0,860 # 7708 <__fsym___cmd_ps_name+0x64>
    33b4:	737000ef          	jal	ra,42ea <rt_kprintf>
    33b8:	81818793          	addi	a5,gp,-2024 # 200001d8 <_edata>
    33bc:	439c                	lw	a5,0(a5)
    33be:	20a7c703          	lbu	a4,522(a5)
    33c2:	97ba                	add	a5,a5,a4
    33c4:	1a078d23          	sb	zero,442(a5)
    33c8:	bb79                	j	3166 <finsh_thread_entry+0x3c>
    33ca:	1b078513          	addi	a0,a5,432
    33ce:	9526                	add	a0,a0,s1
    33d0:	1b178593          	addi	a1,a5,433
    33d4:	95a6                	add	a1,a1,s1
    33d6:	8e1d                	sub	a2,a2,a5
    33d8:	05a9                	addi	a1,a1,10
    33da:	0529                	addi	a0,a0,10
    33dc:	29f000ef          	jal	ra,3e7a <rt_memmove>
    33e0:	81818413          	addi	s0,gp,-2024 # 200001d8 <_edata>
    33e4:	400c                	lw	a1,0(s0)
    33e6:	20a5c783          	lbu	a5,522(a1)
    33ea:	97ae                	add	a5,a5,a1
    33ec:	1a078d23          	sb	zero,442(a5)
    33f0:	20b5c783          	lbu	a5,523(a1)
    33f4:	1b078793          	addi	a5,a5,432
    33f8:	95be                	add	a1,a1,a5
    33fa:	05a9                	addi	a1,a1,10
    33fc:	00004517          	auipc	a0,0x4
    3400:	30450513          	addi	a0,a0,772 # 7700 <__fsym___cmd_ps_name+0x5c>
    3404:	6e7000ef          	jal	ra,42ea <rt_kprintf>
    3408:	401c                	lw	a5,0(s0)
    340a:	20b7c403          	lbu	s0,523(a5)
    340e:	a801                	j	341e <finsh_thread_entry+0x2f4>
    3410:	00004517          	auipc	a0,0x4
    3414:	2e850513          	addi	a0,a0,744 # 76f8 <__fsym___cmd_ps_name+0x54>
    3418:	6d3000ef          	jal	ra,42ea <rt_kprintf>
    341c:	0405                	addi	s0,s0,1
    341e:	81818793          	addi	a5,gp,-2024 # 200001d8 <_edata>
    3422:	439c                	lw	a5,0(a5)
    3424:	20a7c783          	lbu	a5,522(a5)
    3428:	fe87d4e3          	bge	a5,s0,3410 <finsh_thread_entry+0x2e6>
    342c:	bb2d                	j	3166 <finsh_thread_entry+0x3c>
    342e:	8526                	mv	a0,s1
    3430:	a71ff0ef          	jal	ra,2ea0 <shell_push_history>
    3434:	8ebff0ef          	jal	ra,2d1e <msh_is_used>
    3438:	4785                	li	a5,1
    343a:	02f50563          	beq	a0,a5,3464 <finsh_thread_entry+0x33a>
    343e:	b81ff0ef          	jal	ra,2fbe <finsh_get_prompt>
    3442:	6a9000ef          	jal	ra,42ea <rt_kprintf>
    3446:	81818793          	addi	a5,gp,-2024 # 200001d8 <_edata>
    344a:	4380                	lw	s0,0(a5)
    344c:	05000613          	li	a2,80
    3450:	4581                	li	a1,0
    3452:	1ba40513          	addi	a0,s0,442
    3456:	f1dfc0ef          	jal	ra,372 <memset>
    345a:	20040523          	sb	zero,522(s0)
    345e:	200405a3          	sb	zero,523(s0)
    3462:	b311                	j	3166 <finsh_thread_entry+0x3c>
    3464:	81818793          	addi	a5,gp,-2024 # 200001d8 <_edata>
    3468:	439c                	lw	a5,0(a5)
    346a:	0247c783          	lbu	a5,36(a5)
    346e:	8b85                	andi	a5,a5,1
    3470:	eb99                	bnez	a5,3486 <finsh_thread_entry+0x35c>
    3472:	81818793          	addi	a5,gp,-2024 # 200001d8 <_edata>
    3476:	4388                	lw	a0,0(a5)
    3478:	20a54583          	lbu	a1,522(a0)
    347c:	1ba50513          	addi	a0,a0,442
    3480:	8a3ff0ef          	jal	ra,2d22 <msh_exec>
    3484:	bf6d                	j	343e <finsh_thread_entry+0x314>
    3486:	00003517          	auipc	a0,0x3
    348a:	0aa50513          	addi	a0,a0,170 # 6530 <_read+0x90>
    348e:	65d000ef          	jal	ra,42ea <rt_kprintf>
    3492:	b7c5                	j	3472 <finsh_thread_entry+0x348>
    3494:	1b160513          	addi	a0,a2,433
    3498:	9526                	add	a0,a0,s1
    349a:	1b060593          	addi	a1,a2,432
    349e:	95a6                	add	a1,a1,s1
    34a0:	40c78633          	sub	a2,a5,a2
    34a4:	05a9                	addi	a1,a1,10
    34a6:	0529                	addi	a0,a0,10
    34a8:	1d3000ef          	jal	ra,3e7a <rt_memmove>
    34ac:	81818793          	addi	a5,gp,-2024 # 200001d8 <_edata>
    34b0:	439c                	lw	a5,0(a5)
    34b2:	20b7c683          	lbu	a3,523(a5)
    34b6:	00d78733          	add	a4,a5,a3
    34ba:	1a870d23          	sb	s0,442(a4)
    34be:	0247c703          	lbu	a4,36(a5)
    34c2:	8b05                	andi	a4,a4,1
    34c4:	e70d                	bnez	a4,34ee <finsh_thread_entry+0x3c4>
    34c6:	81818793          	addi	a5,gp,-2024 # 200001d8 <_edata>
    34ca:	439c                	lw	a5,0(a5)
    34cc:	20b7c403          	lbu	s0,523(a5)
    34d0:	81818793          	addi	a5,gp,-2024 # 200001d8 <_edata>
    34d4:	439c                	lw	a5,0(a5)
    34d6:	20a7c783          	lbu	a5,522(a5)
    34da:	cef45de3          	bge	s0,a5,31d4 <finsh_thread_entry+0xaa>
    34de:	00004517          	auipc	a0,0x4
    34e2:	21a50513          	addi	a0,a0,538 # 76f8 <__fsym___cmd_ps_name+0x54>
    34e6:	605000ef          	jal	ra,42ea <rt_kprintf>
    34ea:	0405                	addi	s0,s0,1
    34ec:	b7d5                	j	34d0 <finsh_thread_entry+0x3a6>
    34ee:	1b068693          	addi	a3,a3,432 # e000e1b0 <_eusrstack+0xbfffe1b0>
    34f2:	97b6                	add	a5,a5,a3
    34f4:	00a78593          	addi	a1,a5,10
    34f8:	00004517          	auipc	a0,0x4
    34fc:	fac50513          	addi	a0,a0,-84 # 74a4 <__fsym_reboot_name+0x8>
    3500:	5eb000ef          	jal	ra,42ea <rt_kprintf>
    3504:	b7c9                	j	34c6 <finsh_thread_entry+0x39c>
    3506:	85a2                	mv	a1,s0
    3508:	00004517          	auipc	a0,0x4
    350c:	1f450513          	addi	a0,a0,500 # 76fc <__fsym___cmd_ps_name+0x58>
    3510:	5db000ef          	jal	ra,42ea <rt_kprintf>
    3514:	b1c1                	j	31d4 <finsh_thread_entry+0xaa>

00003516 <finsh_system_function_init>:
    3516:	80a1ae23          	sw	a0,-2020(gp) # 200001dc <_syscall_table_begin>
    351a:	82b1a023          	sw	a1,-2016(gp) # 200001e0 <_syscall_table_end>
    351e:	8082                	ret

00003520 <finsh_system_var_init>:
    3520:	82a1a223          	sw	a0,-2012(gp) # 200001e4 <_sysvar_table_begin>
    3524:	82b1a423          	sw	a1,-2008(gp) # 200001e8 <_sysvar_table_end>
    3528:	8082                	ret

0000352a <finsh_system_init>:
    352a:	1141                	addi	sp,sp,-16
    352c:	c606                	sw	ra,12(sp)
    352e:	c422                	sw	s0,8(sp)
    3530:	00005597          	auipc	a1,0x5
    3534:	83858593          	addi	a1,a1,-1992 # 7d68 <__rt_init_rti_start>
    3538:	00004517          	auipc	a0,0x4
    353c:	6d450513          	addi	a0,a0,1748 # 7c0c <__fsym___cmd_led>
    3540:	3fd9                	jal	3516 <finsh_system_function_init>
    3542:	00005597          	auipc	a1,0x5
    3546:	82658593          	addi	a1,a1,-2010 # 7d68 <__rt_init_rti_start>
    354a:	00005517          	auipc	a0,0x5
    354e:	81e50513          	addi	a0,a0,-2018 # 7d68 <__rt_init_rti_start>
    3552:	37f9                	jal	3520 <finsh_system_var_init>
    3554:	21000593          	li	a1,528
    3558:	4505                	li	a0,1
    355a:	14c010ef          	jal	ra,46a6 <rt_calloc>
    355e:	80a1ac23          	sw	a0,-2024(gp) # 200001d8 <_edata>
    3562:	c521                	beqz	a0,35aa <finsh_system_init+0x80>
    3564:	47a9                	li	a5,10
    3566:	472d                	li	a4,11
    3568:	40000693          	li	a3,1024
    356c:	4601                	li	a2,0
    356e:	00000597          	auipc	a1,0x0
    3572:	bbc58593          	addi	a1,a1,-1092 # 312a <finsh_thread_entry>
    3576:	00004517          	auipc	a0,0x4
    357a:	17250513          	addi	a0,a0,370 # 76e8 <__fsym___cmd_ps_name+0x44>
    357e:	748010ef          	jal	ra,4cc6 <rt_thread_create>
    3582:	842a                	mv	s0,a0
    3584:	4681                	li	a3,0
    3586:	4601                	li	a2,0
    3588:	00004597          	auipc	a1,0x4
    358c:	16858593          	addi	a1,a1,360 # 76f0 <__fsym___cmd_ps_name+0x4c>
    3590:	81818793          	addi	a5,gp,-2024 # 200001d8 <_edata>
    3594:	4388                	lw	a0,0(a5)
    3596:	21cd                	jal	3a78 <rt_sem_init>
    3598:	c00d                	beqz	s0,35ba <finsh_system_init+0x90>
    359a:	8522                	mv	a0,s0
    359c:	119010ef          	jal	ra,4eb4 <rt_thread_startup>
    35a0:	4501                	li	a0,0
    35a2:	40b2                	lw	ra,12(sp)
    35a4:	4422                	lw	s0,8(sp)
    35a6:	0141                	addi	sp,sp,16
    35a8:	8082                	ret
    35aa:	00004517          	auipc	a0,0x4
    35ae:	12650513          	addi	a0,a0,294 # 76d0 <__fsym___cmd_ps_name+0x2c>
    35b2:	539000ef          	jal	ra,42ea <rt_kprintf>
    35b6:	557d                	li	a0,-1
    35b8:	b7ed                	j	35a2 <finsh_system_init+0x78>
    35ba:	4501                	li	a0,0
    35bc:	b7dd                	j	35a2 <finsh_system_init+0x78>

000035be <rt_hw_stack_init>:
    35be:	88aa                	mv	a7,a0
    35c0:	0611                	addi	a2,a2,4
    35c2:	ffc67813          	andi	a6,a2,-4
    35c6:	f8080513          	addi	a0,a6,-128
    35ca:	4781                	li	a5,0
    35cc:	477d                	li	a4,31
    35ce:	00f76c63          	bltu	a4,a5,35e6 <rt_hw_stack_init+0x28>
    35d2:	00279713          	slli	a4,a5,0x2
    35d6:	972a                	add	a4,a4,a0
    35d8:	deadc637          	lui	a2,0xdeadc
    35dc:	eef60613          	addi	a2,a2,-273 # deadbeef <_eusrstack+0xbeacbeef>
    35e0:	c310                	sw	a2,0(a4)
    35e2:	0785                	addi	a5,a5,1
    35e4:	b7e5                	j	35cc <rt_hw_stack_init+0xe>
    35e6:	f8d82223          	sw	a3,-124(a6)
    35ea:	fab82423          	sw	a1,-88(a6)
    35ee:	f9182023          	sw	a7,-128(a6)
    35f2:	67a1                	lui	a5,0x8
    35f4:	88078793          	addi	a5,a5,-1920 # 7880 <__fsym___cmd_ps_name+0x1dc>
    35f8:	f8f82423          	sw	a5,-120(a6)
    35fc:	8082                	ret

000035fe <sw_setpend>:
    35fe:	e000f737          	lui	a4,0xe000f
    3602:	431c                	lw	a5,0(a4)
    3604:	800006b7          	lui	a3,0x80000
    3608:	8fd5                	or	a5,a5,a3
    360a:	c31c                	sw	a5,0(a4)
    360c:	8082                	ret

0000360e <sw_clearpend>:
    360e:	e000f6b7          	lui	a3,0xe000f
    3612:	429c                	lw	a5,0(a3)
    3614:	80000737          	lui	a4,0x80000
    3618:	fff74713          	not	a4,a4
    361c:	8ff9                	and	a5,a5,a4
    361e:	c29c                	sw	a5,0(a3)
    3620:	8082                	ret

00003622 <rt_hw_interrupt_disable>:
    3622:	6521                	lui	a0,0x8
    3624:	80050513          	addi	a0,a0,-2048 # 7800 <__fsym___cmd_ps_name+0x15c>
    3628:	30051573          	csrrw	a0,mstatus,a0
    362c:	8082                	ret

0000362e <rt_hw_interrupt_enable>:
    362e:	30051073          	csrw	mstatus,a0
    3632:	8082                	ret

00003634 <rt_hw_context_switch_interrupt>:
    3634:	1141                	addi	sp,sp,-16
    3636:	c606                	sw	ra,12(sp)
    3638:	83418793          	addi	a5,gp,-1996 # 200001f4 <rt_thread_switch_interrupt_flag>
    363c:	439c                	lw	a5,0(a5)
    363e:	e399                	bnez	a5,3644 <rt_hw_context_switch_interrupt+0x10>
    3640:	82a1a623          	sw	a0,-2004(gp) # 200001ec <rt_interrupt_from_thread>
    3644:	82b1a823          	sw	a1,-2000(gp) # 200001f0 <rt_interrupt_to_thread>
    3648:	4785                	li	a5,1
    364a:	82f1aa23          	sw	a5,-1996(gp) # 200001f4 <rt_thread_switch_interrupt_flag>
    364e:	3f45                	jal	35fe <sw_setpend>
    3650:	40b2                	lw	ra,12(sp)
    3652:	0141                	addi	sp,sp,16
    3654:	8082                	ret

00003656 <rt_tick_get>:
    3656:	83818793          	addi	a5,gp,-1992 # 200001f8 <rt_tick>
    365a:	4388                	lw	a0,0(a5)
    365c:	8082                	ret

0000365e <rt_tick_increase>:
    365e:	1141                	addi	sp,sp,-16
    3660:	c606                	sw	ra,12(sp)
    3662:	83818713          	addi	a4,gp,-1992 # 200001f8 <rt_tick>
    3666:	431c                	lw	a5,0(a4)
    3668:	0785                	addi	a5,a5,1
    366a:	c31c                	sw	a5,0(a4)
    366c:	652010ef          	jal	ra,4cbe <rt_thread_self>
    3670:	453c                	lw	a5,72(a0)
    3672:	17fd                	addi	a5,a5,-1
    3674:	c53c                	sw	a5,72(a0)
    3676:	c791                	beqz	a5,3682 <rt_tick_increase+0x24>
    3678:	29d010ef          	jal	ra,5114 <rt_timer_check>
    367c:	40b2                	lw	ra,12(sp)
    367e:	0141                	addi	sp,sp,16
    3680:	8082                	ret
    3682:	417c                	lw	a5,68(a0)
    3684:	c53c                	sw	a5,72(a0)
    3686:	6aa010ef          	jal	ra,4d30 <rt_thread_yield>
    368a:	b7fd                	j	3678 <rt_tick_increase+0x1a>

0000368c <rt_tick_from_millisecond>:
    368c:	02054263          	bltz	a0,36b0 <rt_tick_from_millisecond+0x24>
    3690:	3e800793          	li	a5,1000
    3694:	02f54733          	div	a4,a0,a5
    3698:	02f70733          	mul	a4,a4,a5
    369c:	02f56533          	rem	a0,a0,a5
    36a0:	02f50533          	mul	a0,a0,a5
    36a4:	3e750513          	addi	a0,a0,999
    36a8:	02f54533          	div	a0,a0,a5
    36ac:	953a                	add	a0,a0,a4
    36ae:	8082                	ret
    36b0:	557d                	li	a0,-1
    36b2:	8082                	ret

000036b4 <rti_start>:
    36b4:	4501                	li	a0,0
    36b6:	8082                	ret

000036b8 <rti_board_start>:
    36b8:	4501                	li	a0,0
    36ba:	8082                	ret

000036bc <rti_board_end>:
    36bc:	4501                	li	a0,0
    36be:	8082                	ret

000036c0 <rti_end>:
    36c0:	4501                	li	a0,0
    36c2:	8082                	ret

000036c4 <rt_components_board_init>:
    36c4:	1141                	addi	sp,sp,-16
    36c6:	c606                	sw	ra,12(sp)
    36c8:	c422                	sw	s0,8(sp)
    36ca:	00004417          	auipc	s0,0x4
    36ce:	6a240413          	addi	s0,s0,1698 # 7d6c <__rt_init_rti_board_start>
    36d2:	00004797          	auipc	a5,0x4
    36d6:	6a678793          	addi	a5,a5,1702 # 7d78 <__rt_init_rti_board_end>
    36da:	00f47663          	bgeu	s0,a5,36e6 <rt_components_board_init+0x22>
    36de:	401c                	lw	a5,0(s0)
    36e0:	9782                	jalr	a5
    36e2:	0411                	addi	s0,s0,4
    36e4:	b7fd                	j	36d2 <rt_components_board_init+0xe>
    36e6:	40b2                	lw	ra,12(sp)
    36e8:	4422                	lw	s0,8(sp)
    36ea:	0141                	addi	sp,sp,16
    36ec:	8082                	ret

000036ee <rt_components_init>:
    36ee:	1141                	addi	sp,sp,-16
    36f0:	c606                	sw	ra,12(sp)
    36f2:	c422                	sw	s0,8(sp)
    36f4:	00004417          	auipc	s0,0x4
    36f8:	68440413          	addi	s0,s0,1668 # 7d78 <__rt_init_rti_board_end>
    36fc:	00004797          	auipc	a5,0x4
    3700:	68478793          	addi	a5,a5,1668 # 7d80 <__rt_init_rti_end>
    3704:	00f47663          	bgeu	s0,a5,3710 <rt_components_init+0x22>
    3708:	401c                	lw	a5,0(s0)
    370a:	9782                	jalr	a5
    370c:	0411                	addi	s0,s0,4
    370e:	b7fd                	j	36fc <rt_components_init+0xe>
    3710:	40b2                	lw	ra,12(sp)
    3712:	4422                	lw	s0,8(sp)
    3714:	0141                	addi	sp,sp,16
    3716:	8082                	ret

00003718 <main_thread_entry>:
    3718:	1141                	addi	sp,sp,-16
    371a:	c606                	sw	ra,12(sp)
    371c:	3fc9                	jal	36ee <rt_components_init>
    371e:	d2afd0ef          	jal	ra,c48 <main>
    3722:	40b2                	lw	ra,12(sp)
    3724:	0141                	addi	sp,sp,16
    3726:	8082                	ret

00003728 <rt_application_init>:
    3728:	1141                	addi	sp,sp,-16
    372a:	c606                	sw	ra,12(sp)
    372c:	47d1                	li	a5,20
    372e:	4715                	li	a4,5
    3730:	20000693          	li	a3,512
    3734:	4601                	li	a2,0
    3736:	00000597          	auipc	a1,0x0
    373a:	fe258593          	addi	a1,a1,-30 # 3718 <main_thread_entry>
    373e:	00004517          	auipc	a0,0x4
    3742:	fde50513          	addi	a0,a0,-34 # 771c <__fsym___cmd_ps_name+0x78>
    3746:	580010ef          	jal	ra,4cc6 <rt_thread_create>
    374a:	76a010ef          	jal	ra,4eb4 <rt_thread_startup>
    374e:	40b2                	lw	ra,12(sp)
    3750:	0141                	addi	sp,sp,16
    3752:	8082                	ret

00003754 <rtthread_startup>:
    3754:	1141                	addi	sp,sp,-16
    3756:	c606                	sw	ra,12(sp)
    3758:	35e9                	jal	3622 <rt_hw_interrupt_disable>
    375a:	ceefe0ef          	jal	ra,1c48 <rt_hw_board_init>
    375e:	407000ef          	jal	ra,4364 <rt_show_version>
    3762:	279010ef          	jal	ra,51da <rt_system_timer_init>
    3766:	1d4010ef          	jal	ra,493a <rt_system_scheduler_init>
    376a:	3f7d                	jal	3728 <rt_application_init>
    376c:	287010ef          	jal	ra,51f2 <rt_system_timer_thread_init>
    3770:	24c9                	jal	3a32 <rt_thread_idle_init>
    3772:	200010ef          	jal	ra,4972 <rt_system_scheduler_start>
    3776:	4501                	li	a0,0
    3778:	40b2                	lw	ra,12(sp)
    377a:	0141                	addi	sp,sp,16
    377c:	8082                	ret

0000377e <entry>:
    377e:	1141                	addi	sp,sp,-16
    3780:	c606                	sw	ra,12(sp)
    3782:	3fc9                	jal	3754 <rtthread_startup>
    3784:	4501                	li	a0,0
    3786:	40b2                	lw	ra,12(sp)
    3788:	0141                	addi	sp,sp,16
    378a:	8082                	ret

0000378c <rt_device_find>:
    378c:	1101                	addi	sp,sp,-32
    378e:	ce06                	sw	ra,28(sp)
    3790:	cc22                	sw	s0,24(sp)
    3792:	ca26                	sw	s1,20(sp)
    3794:	c84a                	sw	s2,16(sp)
    3796:	c64e                	sw	s3,12(sp)
    3798:	89aa                	mv	s3,a0
    379a:	524010ef          	jal	ra,4cbe <rt_thread_self>
    379e:	c119                	beqz	a0,37a4 <rt_device_find+0x18>
    37a0:	348010ef          	jal	ra,4ae8 <rt_enter_critical>
    37a4:	4525                	li	a0,9
    37a6:	7f3000ef          	jal	ra,4798 <rt_object_get_information>
    37aa:	892a                	mv	s2,a0
    37ac:	4140                	lw	s0,4(a0)
    37ae:	00490793          	addi	a5,s2,4
    37b2:	02878263          	beq	a5,s0,37d6 <rt_device_find+0x4a>
    37b6:	ff440493          	addi	s1,s0,-12
    37ba:	4621                	li	a2,8
    37bc:	85ce                	mv	a1,s3
    37be:	8526                	mv	a0,s1
    37c0:	72c000ef          	jal	ra,3eec <rt_strncmp>
    37c4:	c119                	beqz	a0,37ca <rt_device_find+0x3e>
    37c6:	4000                	lw	s0,0(s0)
    37c8:	b7dd                	j	37ae <rt_device_find+0x22>
    37ca:	4f4010ef          	jal	ra,4cbe <rt_thread_self>
    37ce:	c911                	beqz	a0,37e2 <rt_device_find+0x56>
    37d0:	338010ef          	jal	ra,4b08 <rt_exit_critical>
    37d4:	a039                	j	37e2 <rt_device_find+0x56>
    37d6:	4e8010ef          	jal	ra,4cbe <rt_thread_self>
    37da:	cd01                	beqz	a0,37f2 <rt_device_find+0x66>
    37dc:	32c010ef          	jal	ra,4b08 <rt_exit_critical>
    37e0:	4481                	li	s1,0
    37e2:	8526                	mv	a0,s1
    37e4:	40f2                	lw	ra,28(sp)
    37e6:	4462                	lw	s0,24(sp)
    37e8:	44d2                	lw	s1,20(sp)
    37ea:	4942                	lw	s2,16(sp)
    37ec:	49b2                	lw	s3,12(sp)
    37ee:	6105                	addi	sp,sp,32
    37f0:	8082                	ret
    37f2:	4481                	li	s1,0
    37f4:	b7fd                	j	37e2 <rt_device_find+0x56>

000037f6 <rt_device_register>:
    37f6:	cd15                	beqz	a0,3832 <rt_device_register+0x3c>
    37f8:	1141                	addi	sp,sp,-16
    37fa:	c606                	sw	ra,12(sp)
    37fc:	c422                	sw	s0,8(sp)
    37fe:	c226                	sw	s1,4(sp)
    3800:	c04a                	sw	s2,0(sp)
    3802:	8932                	mv	s2,a2
    3804:	84ae                	mv	s1,a1
    3806:	842a                	mv	s0,a0
    3808:	852e                	mv	a0,a1
    380a:	3749                	jal	378c <rt_device_find>
    380c:	e50d                	bnez	a0,3836 <rt_device_register+0x40>
    380e:	8626                	mv	a2,s1
    3810:	45a5                	li	a1,9
    3812:	8522                	mv	a0,s0
    3814:	7b5000ef          	jal	ra,47c8 <rt_object_init>
    3818:	01241c23          	sh	s2,24(s0)
    381c:	00040e23          	sb	zero,28(s0)
    3820:	00041d23          	sh	zero,26(s0)
    3824:	4501                	li	a0,0
    3826:	40b2                	lw	ra,12(sp)
    3828:	4422                	lw	s0,8(sp)
    382a:	4492                	lw	s1,4(sp)
    382c:	4902                	lw	s2,0(sp)
    382e:	0141                	addi	sp,sp,16
    3830:	8082                	ret
    3832:	557d                	li	a0,-1
    3834:	8082                	ret
    3836:	557d                	li	a0,-1
    3838:	b7fd                	j	3826 <rt_device_register+0x30>

0000383a <rt_device_open>:
    383a:	1141                	addi	sp,sp,-16
    383c:	c606                	sw	ra,12(sp)
    383e:	c422                	sw	s0,8(sp)
    3840:	c226                	sw	s1,4(sp)
    3842:	c04a                	sw	s2,0(sp)
    3844:	842a                	mv	s0,a0
    3846:	892e                	mv	s2,a1
    3848:	01855783          	lhu	a5,24(a0)
    384c:	8bc1                	andi	a5,a5,16
    384e:	eb85                	bnez	a5,387e <rt_device_open+0x44>
    3850:	551c                	lw	a5,40(a0)
    3852:	c785                	beqz	a5,387a <rt_device_open+0x40>
    3854:	9782                	jalr	a5
    3856:	84aa                	mv	s1,a0
    3858:	e901                	bnez	a0,3868 <rt_device_open+0x2e>
    385a:	01845783          	lhu	a5,24(s0)
    385e:	0107e793          	ori	a5,a5,16
    3862:	00f41c23          	sh	a5,24(s0)
    3866:	a829                	j	3880 <rt_device_open+0x46>
    3868:	862a                	mv	a2,a0
    386a:	85a2                	mv	a1,s0
    386c:	00004517          	auipc	a0,0x4
    3870:	eb850513          	addi	a0,a0,-328 # 7724 <__fsym___cmd_ps_name+0x80>
    3874:	277000ef          	jal	ra,42ea <rt_kprintf>
    3878:	a089                	j	38ba <rt_device_open+0x80>
    387a:	4481                	li	s1,0
    387c:	bff9                	j	385a <rt_device_open+0x20>
    387e:	4481                	li	s1,0
    3880:	01845783          	lhu	a5,24(s0)
    3884:	8ba1                	andi	a5,a5,8
    3886:	c789                	beqz	a5,3890 <rt_device_open+0x56>
    3888:	01a45783          	lhu	a5,26(s0)
    388c:	8ba1                	andi	a5,a5,8
    388e:	e7a9                	bnez	a5,38d8 <rt_device_open+0x9e>
    3890:	545c                	lw	a5,44(s0)
    3892:	cb9d                	beqz	a5,38c8 <rt_device_open+0x8e>
    3894:	85ca                	mv	a1,s2
    3896:	8522                	mv	a0,s0
    3898:	9782                	jalr	a5
    389a:	84aa                	mv	s1,a0
    389c:	c481                	beqz	s1,38a4 <rt_device_open+0x6a>
    389e:	57e9                	li	a5,-6
    38a0:	00f49d63          	bne	s1,a5,38ba <rt_device_open+0x80>
    38a4:	01a45783          	lhu	a5,26(s0)
    38a8:	0087e793          	ori	a5,a5,8
    38ac:	00f41d23          	sh	a5,26(s0)
    38b0:	01c44783          	lbu	a5,28(s0)
    38b4:	0785                	addi	a5,a5,1
    38b6:	00f40e23          	sb	a5,28(s0)
    38ba:	8526                	mv	a0,s1
    38bc:	40b2                	lw	ra,12(sp)
    38be:	4422                	lw	s0,8(sp)
    38c0:	4492                	lw	s1,4(sp)
    38c2:	4902                	lw	s2,0(sp)
    38c4:	0141                	addi	sp,sp,16
    38c6:	8082                	ret
    38c8:	6785                	lui	a5,0x1
    38ca:	f0f78793          	addi	a5,a5,-241 # f0f <SystemCoreClockUpdate+0x12f>
    38ce:	00f97933          	and	s2,s2,a5
    38d2:	01241d23          	sh	s2,26(s0)
    38d6:	b7d9                	j	389c <rt_device_open+0x62>
    38d8:	54e5                	li	s1,-7
    38da:	b7c5                	j	38ba <rt_device_open+0x80>

000038dc <rt_device_close>:
    38dc:	01c54783          	lbu	a5,28(a0)
    38e0:	cb95                	beqz	a5,3914 <rt_device_close+0x38>
    38e2:	17fd                	addi	a5,a5,-1
    38e4:	0ff7f793          	andi	a5,a5,255
    38e8:	00f50e23          	sb	a5,28(a0)
    38ec:	e795                	bnez	a5,3918 <rt_device_close+0x3c>
    38ee:	1141                	addi	sp,sp,-16
    38f0:	c606                	sw	ra,12(sp)
    38f2:	c422                	sw	s0,8(sp)
    38f4:	842a                	mv	s0,a0
    38f6:	591c                	lw	a5,48(a0)
    38f8:	c799                	beqz	a5,3906 <rt_device_close+0x2a>
    38fa:	9782                	jalr	a5
    38fc:	c511                	beqz	a0,3908 <rt_device_close+0x2c>
    38fe:	57e9                	li	a5,-6
    3900:	00f51663          	bne	a0,a5,390c <rt_device_close+0x30>
    3904:	a011                	j	3908 <rt_device_close+0x2c>
    3906:	4501                	li	a0,0
    3908:	00041d23          	sh	zero,26(s0)
    390c:	40b2                	lw	ra,12(sp)
    390e:	4422                	lw	s0,8(sp)
    3910:	0141                	addi	sp,sp,16
    3912:	8082                	ret
    3914:	557d                	li	a0,-1
    3916:	8082                	ret
    3918:	4501                	li	a0,0
    391a:	8082                	ret

0000391c <rt_device_read>:
    391c:	1141                	addi	sp,sp,-16
    391e:	c606                	sw	ra,12(sp)
    3920:	01c54783          	lbu	a5,28(a0)
    3924:	c799                	beqz	a5,3932 <rt_device_read+0x16>
    3926:	595c                	lw	a5,52(a0)
    3928:	cb89                	beqz	a5,393a <rt_device_read+0x1e>
    392a:	9782                	jalr	a5
    392c:	40b2                	lw	ra,12(sp)
    392e:	0141                	addi	sp,sp,16
    3930:	8082                	ret
    3932:	557d                	li	a0,-1
    3934:	21c9                	jal	3df6 <rt_set_errno>
    3936:	4501                	li	a0,0
    3938:	bfd5                	j	392c <rt_device_read+0x10>
    393a:	5569                	li	a0,-6
    393c:	296d                	jal	3df6 <rt_set_errno>
    393e:	4501                	li	a0,0
    3940:	b7f5                	j	392c <rt_device_read+0x10>

00003942 <rt_device_write>:
    3942:	1141                	addi	sp,sp,-16
    3944:	c606                	sw	ra,12(sp)
    3946:	01c54783          	lbu	a5,28(a0)
    394a:	c799                	beqz	a5,3958 <rt_device_write+0x16>
    394c:	5d1c                	lw	a5,56(a0)
    394e:	cb89                	beqz	a5,3960 <rt_device_write+0x1e>
    3950:	9782                	jalr	a5
    3952:	40b2                	lw	ra,12(sp)
    3954:	0141                	addi	sp,sp,16
    3956:	8082                	ret
    3958:	557d                	li	a0,-1
    395a:	2971                	jal	3df6 <rt_set_errno>
    395c:	4501                	li	a0,0
    395e:	bfd5                	j	3952 <rt_device_write+0x10>
    3960:	5569                	li	a0,-6
    3962:	2951                	jal	3df6 <rt_set_errno>
    3964:	4501                	li	a0,0
    3966:	b7f5                	j	3952 <rt_device_write+0x10>

00003968 <rt_device_set_rx_indicate>:
    3968:	d10c                	sw	a1,32(a0)
    396a:	4501                	li	a0,0
    396c:	8082                	ret

0000396e <rt_thread_idle_excute>:
    396e:	89418793          	addi	a5,gp,-1900 # 20000254 <rt_thread_defunct>
    3972:	4398                	lw	a4,0(a5)
    3974:	08f70863          	beq	a4,a5,3a04 <rt_thread_idle_excute+0x96>
    3978:	1141                	addi	sp,sp,-16
    397a:	c606                	sw	ra,12(sp)
    397c:	c422                	sw	s0,8(sp)
    397e:	c226                	sw	s1,4(sp)
    3980:	c04a                	sw	s2,0(sp)
    3982:	a03d                	j	39b0 <rt_thread_idle_excute+0x42>
    3984:	8526                	mv	a0,s1
    3986:	7a5000ef          	jal	ra,492a <rt_object_is_systemobject>
    398a:	4785                	li	a5,1
    398c:	04f50b63          	beq	a0,a5,39e2 <rt_thread_idle_excute+0x74>
    3990:	178010ef          	jal	ra,4b08 <rt_exit_critical>
    3994:	854a                	mv	a0,s2
    3996:	c99ff0ef          	jal	ra,362e <rt_hw_interrupt_enable>
    399a:	4848                	lw	a0,20(s0)
    399c:	535000ef          	jal	ra,46d0 <rt_free>
    39a0:	8526                	mv	a0,s1
    39a2:	74b000ef          	jal	ra,48ec <rt_object_delete>
    39a6:	89418793          	addi	a5,gp,-1900 # 20000254 <rt_thread_defunct>
    39aa:	4398                	lw	a4,0(a5)
    39ac:	04f70663          	beq	a4,a5,39f8 <rt_thread_idle_excute+0x8a>
    39b0:	c73ff0ef          	jal	ra,3622 <rt_hw_interrupt_disable>
    39b4:	892a                	mv	s2,a0
    39b6:	89418793          	addi	a5,gp,-1900 # 20000254 <rt_thread_defunct>
    39ba:	4398                	lw	a4,0(a5)
    39bc:	02f70c63          	beq	a4,a5,39f4 <rt_thread_idle_excute+0x86>
    39c0:	4380                	lw	s0,0(a5)
    39c2:	fec40493          	addi	s1,s0,-20
    39c6:	4018                	lw	a4,0(s0)
    39c8:	405c                	lw	a5,4(s0)
    39ca:	c35c                	sw	a5,4(a4)
    39cc:	4018                	lw	a4,0(s0)
    39ce:	c398                	sw	a4,0(a5)
    39d0:	c040                	sw	s0,4(s0)
    39d2:	c000                	sw	s0,0(s0)
    39d4:	114010ef          	jal	ra,4ae8 <rt_enter_critical>
    39d8:	507c                	lw	a5,100(s0)
    39da:	d7cd                	beqz	a5,3984 <rt_thread_idle_excute+0x16>
    39dc:	8526                	mv	a0,s1
    39de:	9782                	jalr	a5
    39e0:	b755                	j	3984 <rt_thread_idle_excute+0x16>
    39e2:	8526                	mv	a0,s1
    39e4:	65b000ef          	jal	ra,483e <rt_object_detach>
    39e8:	120010ef          	jal	ra,4b08 <rt_exit_critical>
    39ec:	854a                	mv	a0,s2
    39ee:	c41ff0ef          	jal	ra,362e <rt_hw_interrupt_enable>
    39f2:	a019                	j	39f8 <rt_thread_idle_excute+0x8a>
    39f4:	c3bff0ef          	jal	ra,362e <rt_hw_interrupt_enable>
    39f8:	40b2                	lw	ra,12(sp)
    39fa:	4422                	lw	s0,8(sp)
    39fc:	4492                	lw	s1,4(sp)
    39fe:	4902                	lw	s2,0(sp)
    3a00:	0141                	addi	sp,sp,16
    3a02:	8082                	ret
    3a04:	8082                	ret

00003a06 <rt_thread_idle_entry>:
    3a06:	1141                	addi	sp,sp,-16
    3a08:	c606                	sw	ra,12(sp)
    3a0a:	c422                	sw	s0,8(sp)
    3a0c:	a00d                	j	3a2e <rt_thread_idle_entry+0x28>
    3a0e:	0405                	addi	s0,s0,1
    3a10:	478d                	li	a5,3
    3a12:	0087ed63          	bltu	a5,s0,3a2c <rt_thread_idle_entry+0x26>
    3a16:	00241713          	slli	a4,s0,0x2
    3a1a:	1fffe797          	auipc	a5,0x1fffe
    3a1e:	a2a78793          	addi	a5,a5,-1494 # 20001444 <idle_hook_list>
    3a22:	97ba                	add	a5,a5,a4
    3a24:	439c                	lw	a5,0(a5)
    3a26:	d7e5                	beqz	a5,3a0e <rt_thread_idle_entry+0x8>
    3a28:	9782                	jalr	a5
    3a2a:	b7d5                	j	3a0e <rt_thread_idle_entry+0x8>
    3a2c:	3789                	jal	396e <rt_thread_idle_excute>
    3a2e:	4401                	li	s0,0
    3a30:	b7c5                	j	3a10 <rt_thread_idle_entry+0xa>

00003a32 <rt_thread_idle_init>:
    3a32:	1141                	addi	sp,sp,-16
    3a34:	c606                	sw	ra,12(sp)
    3a36:	c422                	sw	s0,8(sp)
    3a38:	1fffe417          	auipc	s0,0x1fffe
    3a3c:	98c40413          	addi	s0,s0,-1652 # 200013c4 <idle>
    3a40:	02000893          	li	a7,32
    3a44:	483d                	li	a6,15
    3a46:	20000793          	li	a5,512
    3a4a:	1fffe717          	auipc	a4,0x1fffe
    3a4e:	a0a70713          	addi	a4,a4,-1526 # 20001454 <rt_thread_stack>
    3a52:	4681                	li	a3,0
    3a54:	00000617          	auipc	a2,0x0
    3a58:	fb260613          	addi	a2,a2,-78 # 3a06 <rt_thread_idle_entry>
    3a5c:	00004597          	auipc	a1,0x4
    3a60:	d0058593          	addi	a1,a1,-768 # 775c <__fsym___cmd_ps_name+0xb8>
    3a64:	8522                	mv	a0,s0
    3a66:	202010ef          	jal	ra,4c68 <rt_thread_init>
    3a6a:	8522                	mv	a0,s0
    3a6c:	448010ef          	jal	ra,4eb4 <rt_thread_startup>
    3a70:	40b2                	lw	ra,12(sp)
    3a72:	4422                	lw	s0,8(sp)
    3a74:	0141                	addi	sp,sp,16
    3a76:	8082                	ret

00003a78 <rt_sem_init>:
    3a78:	1141                	addi	sp,sp,-16
    3a7a:	c606                	sw	ra,12(sp)
    3a7c:	c422                	sw	s0,8(sp)
    3a7e:	c226                	sw	s1,4(sp)
    3a80:	c04a                	sw	s2,0(sp)
    3a82:	842a                	mv	s0,a0
    3a84:	8932                	mv	s2,a2
    3a86:	84b6                	mv	s1,a3
    3a88:	862e                	mv	a2,a1
    3a8a:	4589                	li	a1,2
    3a8c:	53d000ef          	jal	ra,47c8 <rt_object_init>
    3a90:	01440793          	addi	a5,s0,20
    3a94:	cc1c                	sw	a5,24(s0)
    3a96:	c85c                	sw	a5,20(s0)
    3a98:	01241e23          	sh	s2,28(s0)
    3a9c:	009404a3          	sb	s1,9(s0)
    3aa0:	4501                	li	a0,0
    3aa2:	40b2                	lw	ra,12(sp)
    3aa4:	4422                	lw	s0,8(sp)
    3aa6:	4492                	lw	s1,4(sp)
    3aa8:	4902                	lw	s2,0(sp)
    3aaa:	0141                	addi	sp,sp,16
    3aac:	8082                	ret

00003aae <rt_sem_take>:
    3aae:	7179                	addi	sp,sp,-48
    3ab0:	d606                	sw	ra,44(sp)
    3ab2:	d422                	sw	s0,40(sp)
    3ab4:	d226                	sw	s1,36(sp)
    3ab6:	d04a                	sw	s2,32(sp)
    3ab8:	ce4e                	sw	s3,28(sp)
    3aba:	cc52                	sw	s4,24(sp)
    3abc:	842a                	mv	s0,a0
    3abe:	c62e                	sw	a1,12(sp)
    3ac0:	88018793          	addi	a5,gp,-1920 # 20000240 <rt_object_trytake_hook>
    3ac4:	439c                	lw	a5,0(a5)
    3ac6:	c391                	beqz	a5,3aca <rt_sem_take+0x1c>
    3ac8:	9782                	jalr	a5
    3aca:	b59ff0ef          	jal	ra,3622 <rt_hw_interrupt_disable>
    3ace:	89aa                	mv	s3,a0
    3ad0:	01c45783          	lhu	a5,28(s0)
    3ad4:	efa1                	bnez	a5,3b2c <rt_sem_take+0x7e>
    3ad6:	47b2                	lw	a5,12(sp)
    3ad8:	c3a5                	beqz	a5,3b38 <rt_sem_take+0x8a>
    3ada:	1e4010ef          	jal	ra,4cbe <rt_thread_self>
    3ade:	84aa                	mv	s1,a0
    3ae0:	02052823          	sw	zero,48(a0)
    3ae4:	01440913          	addi	s2,s0,20
    3ae8:	00944a03          	lbu	s4,9(s0)
    3aec:	2a6010ef          	jal	ra,4d92 <rt_thread_suspend>
    3af0:	040a0863          	beqz	s4,3b40 <rt_sem_take+0x92>
    3af4:	4785                	li	a5,1
    3af6:	06fa0263          	beq	s4,a5,3b5a <rt_sem_take+0xac>
    3afa:	47b2                	lw	a5,12(sp)
    3afc:	0af04163          	bgtz	a5,3b9e <rt_sem_take+0xf0>
    3b00:	854e                	mv	a0,s3
    3b02:	b2dff0ef          	jal	ra,362e <rt_hw_interrupt_enable>
    3b06:	6a1000ef          	jal	ra,49a6 <rt_schedule>
    3b0a:	5888                	lw	a0,48(s1)
    3b0c:	e901                	bnez	a0,3b1c <rt_sem_take+0x6e>
    3b0e:	87c18793          	addi	a5,gp,-1924 # 2000023c <rt_object_take_hook>
    3b12:	439c                	lw	a5,0(a5)
    3b14:	c3c5                	beqz	a5,3bb4 <rt_sem_take+0x106>
    3b16:	8522                	mv	a0,s0
    3b18:	9782                	jalr	a5
    3b1a:	4501                	li	a0,0
    3b1c:	50b2                	lw	ra,44(sp)
    3b1e:	5422                	lw	s0,40(sp)
    3b20:	5492                	lw	s1,36(sp)
    3b22:	5902                	lw	s2,32(sp)
    3b24:	49f2                	lw	s3,28(sp)
    3b26:	4a62                	lw	s4,24(sp)
    3b28:	6145                	addi	sp,sp,48
    3b2a:	8082                	ret
    3b2c:	17fd                	addi	a5,a5,-1
    3b2e:	00f41e23          	sh	a5,28(s0)
    3b32:	afdff0ef          	jal	ra,362e <rt_hw_interrupt_enable>
    3b36:	bfe1                	j	3b0e <rt_sem_take+0x60>
    3b38:	af7ff0ef          	jal	ra,362e <rt_hw_interrupt_enable>
    3b3c:	5579                	li	a0,-2
    3b3e:	bff9                	j	3b1c <rt_sem_take+0x6e>
    3b40:	01448793          	addi	a5,s1,20
    3b44:	00492703          	lw	a4,4(s2)
    3b48:	c31c                	sw	a5,0(a4)
    3b4a:	00492703          	lw	a4,4(s2)
    3b4e:	cc98                	sw	a4,24(s1)
    3b50:	00f92223          	sw	a5,4(s2)
    3b54:	0124aa23          	sw	s2,20(s1)
    3b58:	b74d                	j	3afa <rt_sem_take+0x4c>
    3b5a:	485c                	lw	a5,20(s0)
    3b5c:	02f90263          	beq	s2,a5,3b80 <rt_sem_take+0xd2>
    3b60:	0354c683          	lbu	a3,53(s1)
    3b64:	0217c703          	lbu	a4,33(a5)
    3b68:	00e6e463          	bltu	a3,a4,3b70 <rt_sem_take+0xc2>
    3b6c:	439c                	lw	a5,0(a5)
    3b6e:	b7fd                	j	3b5c <rt_sem_take+0xae>
    3b70:	01448713          	addi	a4,s1,20
    3b74:	43d4                	lw	a3,4(a5)
    3b76:	c298                	sw	a4,0(a3)
    3b78:	43d4                	lw	a3,4(a5)
    3b7a:	cc94                	sw	a3,24(s1)
    3b7c:	c3d8                	sw	a4,4(a5)
    3b7e:	c8dc                	sw	a5,20(s1)
    3b80:	f6f91de3          	bne	s2,a5,3afa <rt_sem_take+0x4c>
    3b84:	01448793          	addi	a5,s1,20
    3b88:	00492703          	lw	a4,4(s2)
    3b8c:	c31c                	sw	a5,0(a4)
    3b8e:	00492703          	lw	a4,4(s2)
    3b92:	cc98                	sw	a4,24(s1)
    3b94:	00f92223          	sw	a5,4(s2)
    3b98:	0124aa23          	sw	s2,20(s1)
    3b9c:	bfb9                	j	3afa <rt_sem_take+0x4c>
    3b9e:	04c48913          	addi	s2,s1,76
    3ba2:	0070                	addi	a2,sp,12
    3ba4:	4581                	li	a1,0
    3ba6:	854a                	mv	a0,s2
    3ba8:	52c010ef          	jal	ra,50d4 <rt_timer_control>
    3bac:	854a                	mv	a0,s2
    3bae:	3e6010ef          	jal	ra,4f94 <rt_timer_start>
    3bb2:	b7b9                	j	3b00 <rt_sem_take+0x52>
    3bb4:	4501                	li	a0,0
    3bb6:	b79d                	j	3b1c <rt_sem_take+0x6e>

00003bb8 <rt_sem_release>:
    3bb8:	1141                	addi	sp,sp,-16
    3bba:	c606                	sw	ra,12(sp)
    3bbc:	c422                	sw	s0,8(sp)
    3bbe:	c226                	sw	s1,4(sp)
    3bc0:	842a                	mv	s0,a0
    3bc2:	87818793          	addi	a5,gp,-1928 # 20000238 <rt_object_put_hook>
    3bc6:	439c                	lw	a5,0(a5)
    3bc8:	c391                	beqz	a5,3bcc <rt_sem_release+0x14>
    3bca:	9782                	jalr	a5
    3bcc:	a57ff0ef          	jal	ra,3622 <rt_hw_interrupt_disable>
    3bd0:	84aa                	mv	s1,a0
    3bd2:	01440793          	addi	a5,s0,20
    3bd6:	4848                	lw	a0,20(s0)
    3bd8:	02a78063          	beq	a5,a0,3bf8 <rt_sem_release+0x40>
    3bdc:	1531                	addi	a0,a0,-20
    3bde:	276010ef          	jal	ra,4e54 <rt_thread_resume>
    3be2:	4405                	li	s0,1
    3be4:	8526                	mv	a0,s1
    3be6:	a49ff0ef          	jal	ra,362e <rt_hw_interrupt_enable>
    3bea:	ec11                	bnez	s0,3c06 <rt_sem_release+0x4e>
    3bec:	4501                	li	a0,0
    3bee:	40b2                	lw	ra,12(sp)
    3bf0:	4422                	lw	s0,8(sp)
    3bf2:	4492                	lw	s1,4(sp)
    3bf4:	0141                	addi	sp,sp,16
    3bf6:	8082                	ret
    3bf8:	01c45783          	lhu	a5,28(s0)
    3bfc:	0785                	addi	a5,a5,1
    3bfe:	00f41e23          	sh	a5,28(s0)
    3c02:	4401                	li	s0,0
    3c04:	b7c5                	j	3be4 <rt_sem_release+0x2c>
    3c06:	5a1000ef          	jal	ra,49a6 <rt_schedule>
    3c0a:	b7cd                	j	3bec <rt_sem_release+0x34>

00003c0c <rt_interrupt_enter>:
    3c0c:	1141                	addi	sp,sp,-16
    3c0e:	c606                	sw	ra,12(sp)
    3c10:	c422                	sw	s0,8(sp)
    3c12:	a11ff0ef          	jal	ra,3622 <rt_hw_interrupt_disable>
    3c16:	842a                	mv	s0,a0
    3c18:	84418713          	addi	a4,gp,-1980 # 20000204 <rt_interrupt_nest>
    3c1c:	00074783          	lbu	a5,0(a4)
    3c20:	0785                	addi	a5,a5,1
    3c22:	0ff7f793          	andi	a5,a5,255
    3c26:	00f70023          	sb	a5,0(a4)
    3c2a:	83c18793          	addi	a5,gp,-1988 # 200001fc <rt_interrupt_enter_hook>
    3c2e:	439c                	lw	a5,0(a5)
    3c30:	c391                	beqz	a5,3c34 <rt_interrupt_enter+0x28>
    3c32:	9782                	jalr	a5
    3c34:	8522                	mv	a0,s0
    3c36:	9f9ff0ef          	jal	ra,362e <rt_hw_interrupt_enable>
    3c3a:	40b2                	lw	ra,12(sp)
    3c3c:	4422                	lw	s0,8(sp)
    3c3e:	0141                	addi	sp,sp,16
    3c40:	8082                	ret

00003c42 <rt_interrupt_leave>:
    3c42:	1141                	addi	sp,sp,-16
    3c44:	c606                	sw	ra,12(sp)
    3c46:	c422                	sw	s0,8(sp)
    3c48:	9dbff0ef          	jal	ra,3622 <rt_hw_interrupt_disable>
    3c4c:	842a                	mv	s0,a0
    3c4e:	84418713          	addi	a4,gp,-1980 # 20000204 <rt_interrupt_nest>
    3c52:	00074783          	lbu	a5,0(a4)
    3c56:	17fd                	addi	a5,a5,-1
    3c58:	0ff7f793          	andi	a5,a5,255
    3c5c:	00f70023          	sb	a5,0(a4)
    3c60:	84018793          	addi	a5,gp,-1984 # 20000200 <rt_interrupt_leave_hook>
    3c64:	439c                	lw	a5,0(a5)
    3c66:	c391                	beqz	a5,3c6a <rt_interrupt_leave+0x28>
    3c68:	9782                	jalr	a5
    3c6a:	8522                	mv	a0,s0
    3c6c:	9c3ff0ef          	jal	ra,362e <rt_hw_interrupt_enable>
    3c70:	40b2                	lw	ra,12(sp)
    3c72:	4422                	lw	s0,8(sp)
    3c74:	0141                	addi	sp,sp,16
    3c76:	8082                	ret

00003c78 <rt_interrupt_get_nest>:
    3c78:	84418793          	addi	a5,gp,-1980 # 20000204 <rt_interrupt_nest>
    3c7c:	0007c503          	lbu	a0,0(a5)
    3c80:	8082                	ret

00003c82 <print_number>:
    3c82:	1141                	addi	sp,sp,-16
    3c84:	04087893          	andi	a7,a6,64
    3c88:	04088263          	beqz	a7,3ccc <print_number+0x4a>
    3c8c:	00004e97          	auipc	t4,0x4
    3c90:	d28e8e93          	addi	t4,t4,-728 # 79b4 <large_digits.2585>
    3c94:	01087893          	andi	a7,a6,16
    3c98:	00088463          	beqz	a7,3ca0 <print_number+0x1e>
    3c9c:	ffe87813          	andi	a6,a6,-2
    3ca0:	00187893          	andi	a7,a6,1
    3ca4:	02088963          	beqz	a7,3cd6 <print_number+0x54>
    3ca8:	03000f13          	li	t5,48
    3cac:	00287893          	andi	a7,a6,2
    3cb0:	02088b63          	beqz	a7,3ce6 <print_number+0x64>
    3cb4:	02064463          	bltz	a2,3cdc <print_number+0x5a>
    3cb8:	00487893          	andi	a7,a6,4
    3cbc:	04089a63          	bnez	a7,3d10 <print_number+0x8e>
    3cc0:	00887893          	andi	a7,a6,8
    3cc4:	04089963          	bnez	a7,3d16 <print_number+0x94>
    3cc8:	4f81                	li	t6,0
    3cca:	a839                	j	3ce8 <print_number+0x66>
    3ccc:	00004e97          	auipc	t4,0x4
    3cd0:	d8ce8e93          	addi	t4,t4,-628 # 7a58 <small_digits.2584>
    3cd4:	b7c1                	j	3c94 <print_number+0x12>
    3cd6:	02000f13          	li	t5,32
    3cda:	bfc9                	j	3cac <print_number+0x2a>
    3cdc:	40c00633          	neg	a2,a2
    3ce0:	02d00f93          	li	t6,45
    3ce4:	a011                	j	3ce8 <print_number+0x66>
    3ce6:	4f81                	li	t6,0
    3ce8:	e225                	bnez	a2,3d48 <print_number+0xc6>
    3cea:	03000693          	li	a3,48
    3cee:	00d10023          	sb	a3,0(sp)
    3cf2:	4885                	li	a7,1
    3cf4:	0517cc63          	blt	a5,a7,3d4c <print_number+0xca>
    3cf8:	86be                	mv	a3,a5
    3cfa:	8f15                	sub	a4,a4,a3
    3cfc:	01187613          	andi	a2,a6,17
    3d00:	e62d                	bnez	a2,3d6a <print_number+0xe8>
    3d02:	000f8563          	beqz	t6,3d0c <print_number+0x8a>
    3d06:	00e05363          	blez	a4,3d0c <print_number+0x8a>
    3d0a:	177d                	addi	a4,a4,-1
    3d0c:	863a                	mv	a2,a4
    3d0e:	a099                	j	3d54 <print_number+0xd2>
    3d10:	02b00f93          	li	t6,43
    3d14:	bfd1                	j	3ce8 <print_number+0x66>
    3d16:	02000f93          	li	t6,32
    3d1a:	b7f9                	j	3ce8 <print_number+0x66>
    3d1c:	00f67313          	andi	t1,a2,15
    3d20:	8211                	srli	a2,a2,0x4
    3d22:	9376                	add	t1,t1,t4
    3d24:	00030e03          	lb	t3,0(t1)
    3d28:	01010313          	addi	t1,sp,16
    3d2c:	9346                	add	t1,t1,a7
    3d2e:	ffc30823          	sb	t3,-16(t1)
    3d32:	0885                	addi	a7,a7,1
    3d34:	d261                	beqz	a2,3cf4 <print_number+0x72>
    3d36:	4329                	li	t1,10
    3d38:	fe6692e3          	bne	a3,t1,3d1c <print_number+0x9a>
    3d3c:	4e29                	li	t3,10
    3d3e:	03c67333          	remu	t1,a2,t3
    3d42:	03c65633          	divu	a2,a2,t3
    3d46:	bff1                	j	3d22 <print_number+0xa0>
    3d48:	4881                	li	a7,0
    3d4a:	b7ed                	j	3d34 <print_number+0xb2>
    3d4c:	86c6                	mv	a3,a7
    3d4e:	b775                	j	3cfa <print_number+0x78>
    3d50:	0505                	addi	a0,a0,1
    3d52:	863a                	mv	a2,a4
    3d54:	fff60713          	addi	a4,a2,-1
    3d58:	00c05963          	blez	a2,3d6a <print_number+0xe8>
    3d5c:	feb57ae3          	bgeu	a0,a1,3d50 <print_number+0xce>
    3d60:	02000613          	li	a2,32
    3d64:	00c50023          	sb	a2,0(a0)
    3d68:	b7e5                	j	3d50 <print_number+0xce>
    3d6a:	000f8863          	beqz	t6,3d7a <print_number+0xf8>
    3d6e:	00b57463          	bgeu	a0,a1,3d76 <print_number+0xf4>
    3d72:	01f50023          	sb	t6,0(a0)
    3d76:	177d                	addi	a4,a4,-1
    3d78:	0505                	addi	a0,a0,1
    3d7a:	01087813          	andi	a6,a6,16
    3d7e:	00080563          	beqz	a6,3d88 <print_number+0x106>
    3d82:	a005                	j	3da2 <print_number+0x120>
    3d84:	0505                	addi	a0,a0,1
    3d86:	8732                	mv	a4,a2
    3d88:	fff70613          	addi	a2,a4,-1
    3d8c:	00e05763          	blez	a4,3d9a <print_number+0x118>
    3d90:	feb57ae3          	bgeu	a0,a1,3d84 <print_number+0x102>
    3d94:	01e50023          	sb	t5,0(a0)
    3d98:	b7f5                	j	3d84 <print_number+0x102>
    3d9a:	8732                	mv	a4,a2
    3d9c:	a019                	j	3da2 <print_number+0x120>
    3d9e:	0505                	addi	a0,a0,1
    3da0:	86b2                	mv	a3,a2
    3da2:	fff68613          	addi	a2,a3,-1 # e000efff <_eusrstack+0xbfffefff>
    3da6:	00d8db63          	bge	a7,a3,3dbc <print_number+0x13a>
    3daa:	feb57ae3          	bgeu	a0,a1,3d9e <print_number+0x11c>
    3dae:	03000693          	li	a3,48
    3db2:	00d50023          	sb	a3,0(a0)
    3db6:	b7e5                	j	3d9e <print_number+0x11c>
    3db8:	0505                	addi	a0,a0,1
    3dba:	88b6                	mv	a7,a3
    3dbc:	fff88693          	addi	a3,a7,-1
    3dc0:	01105e63          	blez	a7,3ddc <print_number+0x15a>
    3dc4:	cf81                	beqz	a5,3ddc <print_number+0x15a>
    3dc6:	feb579e3          	bgeu	a0,a1,3db8 <print_number+0x136>
    3dca:	0810                	addi	a2,sp,16
    3dcc:	9636                	add	a2,a2,a3
    3dce:	ff060603          	lb	a2,-16(a2)
    3dd2:	00c50023          	sb	a2,0(a0)
    3dd6:	b7cd                	j	3db8 <print_number+0x136>
    3dd8:	0505                	addi	a0,a0,1
    3dda:	873e                	mv	a4,a5
    3ddc:	fff70793          	addi	a5,a4,-1
    3de0:	00e05963          	blez	a4,3df2 <print_number+0x170>
    3de4:	feb57ae3          	bgeu	a0,a1,3dd8 <print_number+0x156>
    3de8:	02000713          	li	a4,32
    3dec:	00e50023          	sb	a4,0(a0)
    3df0:	b7e5                	j	3dd8 <print_number+0x156>
    3df2:	0141                	addi	sp,sp,16
    3df4:	8082                	ret

00003df6 <rt_set_errno>:
    3df6:	1141                	addi	sp,sp,-16
    3df8:	c606                	sw	ra,12(sp)
    3dfa:	c422                	sw	s0,8(sp)
    3dfc:	842a                	mv	s0,a0
    3dfe:	e7bff0ef          	jal	ra,3c78 <rt_interrupt_get_nest>
    3e02:	c519                	beqz	a0,3e10 <rt_set_errno+0x1a>
    3e04:	8481a423          	sw	s0,-1976(gp) # 20000208 <__rt_errno>
    3e08:	40b2                	lw	ra,12(sp)
    3e0a:	4422                	lw	s0,8(sp)
    3e0c:	0141                	addi	sp,sp,16
    3e0e:	8082                	ret
    3e10:	6af000ef          	jal	ra,4cbe <rt_thread_self>
    3e14:	c119                	beqz	a0,3e1a <rt_set_errno+0x24>
    3e16:	d900                	sw	s0,48(a0)
    3e18:	bfc5                	j	3e08 <rt_set_errno+0x12>
    3e1a:	8481a423          	sw	s0,-1976(gp) # 20000208 <__rt_errno>
    3e1e:	b7ed                	j	3e08 <rt_set_errno+0x12>

00003e20 <rt_memset>:
    3e20:	0ff5f713          	andi	a4,a1,255
    3e24:	478d                	li	a5,3
    3e26:	02c7fe63          	bgeu	a5,a2,3e62 <rt_memset+0x42>
    3e2a:	00357793          	andi	a5,a0,3
    3e2e:	e3b9                	bnez	a5,3e74 <rt_memset+0x54>
    3e30:	00871793          	slli	a5,a4,0x8
    3e34:	8fd9                	or	a5,a5,a4
    3e36:	01079713          	slli	a4,a5,0x10
    3e3a:	8f5d                	or	a4,a4,a5
    3e3c:	87aa                	mv	a5,a0
    3e3e:	a039                	j	3e4c <rt_memset+0x2c>
    3e40:	c398                	sw	a4,0(a5)
    3e42:	c3d8                	sw	a4,4(a5)
    3e44:	c798                	sw	a4,8(a5)
    3e46:	c7d8                	sw	a4,12(a5)
    3e48:	1641                	addi	a2,a2,-16
    3e4a:	07c1                	addi	a5,a5,16
    3e4c:	46bd                	li	a3,15
    3e4e:	fec6e9e3          	bltu	a3,a2,3e40 <rt_memset+0x20>
    3e52:	a021                	j	3e5a <rt_memset+0x3a>
    3e54:	c398                	sw	a4,0(a5)
    3e56:	1671                	addi	a2,a2,-4
    3e58:	0791                	addi	a5,a5,4
    3e5a:	468d                	li	a3,3
    3e5c:	fec6ece3          	bltu	a3,a2,3e54 <rt_memset+0x34>
    3e60:	a011                	j	3e64 <rt_memset+0x44>
    3e62:	87aa                	mv	a5,a0
    3e64:	fff60713          	addi	a4,a2,-1
    3e68:	ca01                	beqz	a2,3e78 <rt_memset+0x58>
    3e6a:	00b78023          	sb	a1,0(a5)
    3e6e:	0785                	addi	a5,a5,1
    3e70:	863a                	mv	a2,a4
    3e72:	bfcd                	j	3e64 <rt_memset+0x44>
    3e74:	87aa                	mv	a5,a0
    3e76:	b7fd                	j	3e64 <rt_memset+0x44>
    3e78:	8082                	ret

00003e7a <rt_memmove>:
    3e7a:	02a5f463          	bgeu	a1,a0,3ea2 <rt_memmove+0x28>
    3e7e:	00c587b3          	add	a5,a1,a2
    3e82:	02f57c63          	bgeu	a0,a5,3eba <rt_memmove+0x40>
    3e86:	00c50733          	add	a4,a0,a2
    3e8a:	a801                	j	3e9a <rt_memmove+0x20>
    3e8c:	17fd                	addi	a5,a5,-1
    3e8e:	177d                	addi	a4,a4,-1
    3e90:	00078603          	lb	a2,0(a5)
    3e94:	00c70023          	sb	a2,0(a4)
    3e98:	8636                	mv	a2,a3
    3e9a:	fff60693          	addi	a3,a2,-1
    3e9e:	f67d                	bnez	a2,3e8c <rt_memmove+0x12>
    3ea0:	8082                	ret
    3ea2:	87aa                	mv	a5,a0
    3ea4:	fff60713          	addi	a4,a2,-1
    3ea8:	ca19                	beqz	a2,3ebe <rt_memmove+0x44>
    3eaa:	00058683          	lb	a3,0(a1)
    3eae:	00d78023          	sb	a3,0(a5)
    3eb2:	0585                	addi	a1,a1,1
    3eb4:	0785                	addi	a5,a5,1
    3eb6:	863a                	mv	a2,a4
    3eb8:	b7f5                	j	3ea4 <rt_memmove+0x2a>
    3eba:	87aa                	mv	a5,a0
    3ebc:	b7e5                	j	3ea4 <rt_memmove+0x2a>
    3ebe:	8082                	ret

00003ec0 <rt_strncpy>:
    3ec0:	ce19                	beqz	a2,3ede <rt_strncpy+0x1e>
    3ec2:	872a                	mv	a4,a0
    3ec4:	00158813          	addi	a6,a1,1
    3ec8:	00170793          	addi	a5,a4,1
    3ecc:	00058683          	lb	a3,0(a1)
    3ed0:	00d70023          	sb	a3,0(a4)
    3ed4:	ca89                	beqz	a3,3ee6 <rt_strncpy+0x26>
    3ed6:	167d                	addi	a2,a2,-1
    3ed8:	873e                	mv	a4,a5
    3eda:	85c2                	mv	a1,a6
    3edc:	f665                	bnez	a2,3ec4 <rt_strncpy+0x4>
    3ede:	8082                	ret
    3ee0:	00078023          	sb	zero,0(a5)
    3ee4:	0785                	addi	a5,a5,1
    3ee6:	167d                	addi	a2,a2,-1
    3ee8:	fe65                	bnez	a2,3ee0 <rt_strncpy+0x20>
    3eea:	8082                	ret

00003eec <rt_strncmp>:
    3eec:	4781                	li	a5,0
    3eee:	c215                	beqz	a2,3f12 <rt_strncmp+0x26>
    3ef0:	00050703          	lb	a4,0(a0)
    3ef4:	0ff77793          	andi	a5,a4,255
    3ef8:	00158813          	addi	a6,a1,1
    3efc:	0005c683          	lbu	a3,0(a1)
    3f00:	8f95                	sub	a5,a5,a3
    3f02:	07e2                	slli	a5,a5,0x18
    3f04:	87e1                	srai	a5,a5,0x18
    3f06:	e791                	bnez	a5,3f12 <rt_strncmp+0x26>
    3f08:	0505                	addi	a0,a0,1
    3f0a:	c701                	beqz	a4,3f12 <rt_strncmp+0x26>
    3f0c:	167d                	addi	a2,a2,-1
    3f0e:	85c2                	mv	a1,a6
    3f10:	bff9                	j	3eee <rt_strncmp+0x2>
    3f12:	853e                	mv	a0,a5
    3f14:	8082                	ret

00003f16 <rt_strlen>:
    3f16:	87aa                	mv	a5,a0
    3f18:	00078703          	lb	a4,0(a5)
    3f1c:	c319                	beqz	a4,3f22 <rt_strlen+0xc>
    3f1e:	0785                	addi	a5,a5,1
    3f20:	bfe5                	j	3f18 <rt_strlen+0x2>
    3f22:	40a78533          	sub	a0,a5,a0
    3f26:	8082                	ret

00003f28 <rt_vsnprintf>:
    3f28:	7139                	addi	sp,sp,-64
    3f2a:	de06                	sw	ra,60(sp)
    3f2c:	dc22                	sw	s0,56(sp)
    3f2e:	da26                	sw	s1,52(sp)
    3f30:	d84a                	sw	s2,48(sp)
    3f32:	d64e                	sw	s3,44(sp)
    3f34:	d452                	sw	s4,40(sp)
    3f36:	d256                	sw	s5,36(sp)
    3f38:	d05a                	sw	s6,32(sp)
    3f3a:	ce5e                	sw	s7,28(sp)
    3f3c:	cc62                	sw	s8,24(sp)
    3f3e:	8a2a                	mv	s4,a0
    3f40:	8aae                	mv	s5,a1
    3f42:	8432                	mv	s0,a2
    3f44:	c636                	sw	a3,12(sp)
    3f46:	00b509b3          	add	s3,a0,a1
    3f4a:	00a9f563          	bgeu	s3,a0,3f54 <rt_vsnprintf+0x2c>
    3f4e:	fff54a93          	not	s5,a0
    3f52:	59fd                	li	s3,-1
    3f54:	8952                	mv	s2,s4
    3f56:	a019                	j	3f5c <rt_vsnprintf+0x34>
    3f58:	0905                	addi	s2,s2,1
    3f5a:	0405                	addi	s0,s0,1
    3f5c:	00040783          	lb	a5,0(s0)
    3f60:	30078b63          	beqz	a5,4276 <rt_vsnprintf+0x34e>
    3f64:	02500713          	li	a4,37
    3f68:	00e78763          	beq	a5,a4,3f76 <rt_vsnprintf+0x4e>
    3f6c:	ff3976e3          	bgeu	s2,s3,3f58 <rt_vsnprintf+0x30>
    3f70:	00f90023          	sb	a5,0(s2)
    3f74:	b7d5                	j	3f58 <rt_vsnprintf+0x30>
    3f76:	4481                	li	s1,0
    3f78:	a021                	j	3f80 <rt_vsnprintf+0x58>
    3f7a:	0104e493          	ori	s1,s1,16
    3f7e:	843a                	mv	s0,a4
    3f80:	00140713          	addi	a4,s0,1
    3f84:	00140783          	lb	a5,1(s0)
    3f88:	02d00693          	li	a3,45
    3f8c:	fed787e3          	beq	a5,a3,3f7a <rt_vsnprintf+0x52>
    3f90:	02b00693          	li	a3,43
    3f94:	02d78163          	beq	a5,a3,3fb6 <rt_vsnprintf+0x8e>
    3f98:	02000693          	li	a3,32
    3f9c:	02d78063          	beq	a5,a3,3fbc <rt_vsnprintf+0x94>
    3fa0:	02300693          	li	a3,35
    3fa4:	00d78f63          	beq	a5,a3,3fc2 <rt_vsnprintf+0x9a>
    3fa8:	03000693          	li	a3,48
    3fac:	00d79e63          	bne	a5,a3,3fc8 <rt_vsnprintf+0xa0>
    3fb0:	0014e493          	ori	s1,s1,1
    3fb4:	b7e9                	j	3f7e <rt_vsnprintf+0x56>
    3fb6:	0044e493          	ori	s1,s1,4
    3fba:	b7d1                	j	3f7e <rt_vsnprintf+0x56>
    3fbc:	0084e493          	ori	s1,s1,8
    3fc0:	bf7d                	j	3f7e <rt_vsnprintf+0x56>
    3fc2:	0204e493          	ori	s1,s1,32
    3fc6:	bf65                	j	3f7e <rt_vsnprintf+0x56>
    3fc8:	fd078693          	addi	a3,a5,-48
    3fcc:	4625                	li	a2,9
    3fce:	04d67d63          	bgeu	a2,a3,4028 <rt_vsnprintf+0x100>
    3fd2:	02a00693          	li	a3,42
    3fd6:	04d78b63          	beq	a5,a3,402c <rt_vsnprintf+0x104>
    3fda:	5b7d                	li	s6,-1
    3fdc:	00070683          	lb	a3,0(a4)
    3fe0:	02e00793          	li	a5,46
    3fe4:	06f68363          	beq	a3,a5,404a <rt_vsnprintf+0x122>
    3fe8:	5bfd                	li	s7,-1
    3fea:	00070783          	lb	a5,0(a4)
    3fee:	06800693          	li	a3,104
    3ff2:	0ad78b63          	beq	a5,a3,40a8 <rt_vsnprintf+0x180>
    3ff6:	06c00693          	li	a3,108
    3ffa:	0ad78763          	beq	a5,a3,40a8 <rt_vsnprintf+0x180>
    3ffe:	843a                	mv	s0,a4
    4000:	4601                	li	a2,0
    4002:	a07d                	j	40b0 <rt_vsnprintf+0x188>
    4004:	002b1693          	slli	a3,s6,0x2
    4008:	9b36                	add	s6,s6,a3
    400a:	001b1793          	slli	a5,s6,0x1
    400e:	0705                	addi	a4,a4,1
    4010:	00c78b33          	add	s6,a5,a2
    4014:	fd0b0b13          	addi	s6,s6,-48
    4018:	00070603          	lb	a2,0(a4)
    401c:	fd060693          	addi	a3,a2,-48
    4020:	47a5                	li	a5,9
    4022:	fed7f1e3          	bgeu	a5,a3,4004 <rt_vsnprintf+0xdc>
    4026:	bf5d                	j	3fdc <rt_vsnprintf+0xb4>
    4028:	4b01                	li	s6,0
    402a:	b7fd                	j	4018 <rt_vsnprintf+0xf0>
    402c:	00240713          	addi	a4,s0,2
    4030:	47b2                	lw	a5,12(sp)
    4032:	00478693          	addi	a3,a5,4
    4036:	c636                	sw	a3,12(sp)
    4038:	0007ab03          	lw	s6,0(a5)
    403c:	fa0b50e3          	bgez	s6,3fdc <rt_vsnprintf+0xb4>
    4040:	41600b33          	neg	s6,s6
    4044:	0104e493          	ori	s1,s1,16
    4048:	bf51                	j	3fdc <rt_vsnprintf+0xb4>
    404a:	00170693          	addi	a3,a4,1
    404e:	00170783          	lb	a5,1(a4)
    4052:	fd078593          	addi	a1,a5,-48
    4056:	4625                	li	a2,9
    4058:	02b67e63          	bgeu	a2,a1,4094 <rt_vsnprintf+0x16c>
    405c:	02a00613          	li	a2,42
    4060:	02c78c63          	beq	a5,a2,4098 <rt_vsnprintf+0x170>
    4064:	8736                	mv	a4,a3
    4066:	4b81                	li	s7,0
    4068:	b749                	j	3fea <rt_vsnprintf+0xc2>
    406a:	002b9793          	slli	a5,s7,0x2
    406e:	9bbe                	add	s7,s7,a5
    4070:	001b9793          	slli	a5,s7,0x1
    4074:	0685                	addi	a3,a3,1
    4076:	97ba                	add	a5,a5,a4
    4078:	fd078b93          	addi	s7,a5,-48
    407c:	00068703          	lb	a4,0(a3)
    4080:	fd070613          	addi	a2,a4,-48
    4084:	47a5                	li	a5,9
    4086:	fec7f2e3          	bgeu	a5,a2,406a <rt_vsnprintf+0x142>
    408a:	8736                	mv	a4,a3
    408c:	f40bdfe3          	bgez	s7,3fea <rt_vsnprintf+0xc2>
    4090:	4b81                	li	s7,0
    4092:	bfa1                	j	3fea <rt_vsnprintf+0xc2>
    4094:	4b81                	li	s7,0
    4096:	b7dd                	j	407c <rt_vsnprintf+0x154>
    4098:	0709                	addi	a4,a4,2
    409a:	47b2                	lw	a5,12(sp)
    409c:	00478693          	addi	a3,a5,4
    40a0:	c636                	sw	a3,12(sp)
    40a2:	0007ab83          	lw	s7,0(a5)
    40a6:	b7dd                	j	408c <rt_vsnprintf+0x164>
    40a8:	0ff7f613          	andi	a2,a5,255
    40ac:	00170413          	addi	s0,a4,1
    40b0:	00040783          	lb	a5,0(s0)
    40b4:	fdb78793          	addi	a5,a5,-37
    40b8:	0ff7f693          	andi	a3,a5,255
    40bc:	05300713          	li	a4,83
    40c0:	12d76963          	bltu	a4,a3,41f2 <rt_vsnprintf+0x2ca>
    40c4:	00269793          	slli	a5,a3,0x2
    40c8:	00003717          	auipc	a4,0x3
    40cc:	69c70713          	addi	a4,a4,1692 # 7764 <__fsym___cmd_ps_name+0xc0>
    40d0:	97ba                	add	a5,a5,a4
    40d2:	439c                	lw	a5,0(a5)
    40d4:	97ba                	add	a5,a5,a4
    40d6:	8782                	jr	a5
    40d8:	88c1                	andi	s1,s1,16
    40da:	cc91                	beqz	s1,40f6 <rt_vsnprintf+0x1ce>
    40dc:	47b2                	lw	a5,12(sp)
    40de:	00478713          	addi	a4,a5,4
    40e2:	c63a                	sw	a4,12(sp)
    40e4:	00078783          	lb	a5,0(a5)
    40e8:	01397463          	bgeu	s2,s3,40f0 <rt_vsnprintf+0x1c8>
    40ec:	00f90023          	sb	a5,0(s2)
    40f0:	0905                	addi	s2,s2,1
    40f2:	a829                	j	410c <rt_vsnprintf+0x1e4>
    40f4:	0905                	addi	s2,s2,1
    40f6:	1b7d                	addi	s6,s6,-1
    40f8:	ff6052e3          	blez	s6,40dc <rt_vsnprintf+0x1b4>
    40fc:	ff397ce3          	bgeu	s2,s3,40f4 <rt_vsnprintf+0x1cc>
    4100:	02000793          	li	a5,32
    4104:	00f90023          	sb	a5,0(s2)
    4108:	b7f5                	j	40f4 <rt_vsnprintf+0x1cc>
    410a:	0905                	addi	s2,s2,1
    410c:	1b7d                	addi	s6,s6,-1
    410e:	e56056e3          	blez	s6,3f5a <rt_vsnprintf+0x32>
    4112:	ff397ce3          	bgeu	s2,s3,410a <rt_vsnprintf+0x1e2>
    4116:	02000793          	li	a5,32
    411a:	00f90023          	sb	a5,0(s2)
    411e:	b7f5                	j	410a <rt_vsnprintf+0x1e2>
    4120:	47b2                	lw	a5,12(sp)
    4122:	00478713          	addi	a4,a5,4
    4126:	c63a                	sw	a4,12(sp)
    4128:	0007ac03          	lw	s8,0(a5)
    412c:	000c0e63          	beqz	s8,4148 <rt_vsnprintf+0x220>
    4130:	8562                	mv	a0,s8
    4132:	de5ff0ef          	jal	ra,3f16 <rt_strlen>
    4136:	01705563          	blez	s7,4140 <rt_vsnprintf+0x218>
    413a:	00abd363          	bge	s7,a0,4140 <rt_vsnprintf+0x218>
    413e:	855e                	mv	a0,s7
    4140:	88c1                	andi	s1,s1,16
    4142:	c891                	beqz	s1,4156 <rt_vsnprintf+0x22e>
    4144:	4781                	li	a5,0
    4146:	a805                	j	4176 <rt_vsnprintf+0x24e>
    4148:	00004c17          	auipc	s8,0x4
    414c:	908c0c13          	addi	s8,s8,-1784 # 7a50 <large_digits.2585+0x9c>
    4150:	b7c5                	j	4130 <rt_vsnprintf+0x208>
    4152:	0905                	addi	s2,s2,1
    4154:	8b3e                	mv	s6,a5
    4156:	fffb0793          	addi	a5,s6,-1
    415a:	01655963          	bge	a0,s6,416c <rt_vsnprintf+0x244>
    415e:	ff397ae3          	bgeu	s2,s3,4152 <rt_vsnprintf+0x22a>
    4162:	02000713          	li	a4,32
    4166:	00e90023          	sb	a4,0(s2)
    416a:	b7e5                	j	4152 <rt_vsnprintf+0x22a>
    416c:	8b3e                	mv	s6,a5
    416e:	bfd9                	j	4144 <rt_vsnprintf+0x21c>
    4170:	0905                	addi	s2,s2,1
    4172:	0c05                	addi	s8,s8,1
    4174:	0785                	addi	a5,a5,1
    4176:	00a7db63          	bge	a5,a0,418c <rt_vsnprintf+0x264>
    417a:	ff397be3          	bgeu	s2,s3,4170 <rt_vsnprintf+0x248>
    417e:	000c0703          	lb	a4,0(s8)
    4182:	00e90023          	sb	a4,0(s2)
    4186:	b7ed                	j	4170 <rt_vsnprintf+0x248>
    4188:	0905                	addi	s2,s2,1
    418a:	8b3e                	mv	s6,a5
    418c:	fffb0793          	addi	a5,s6,-1
    4190:	dd6555e3          	bge	a0,s6,3f5a <rt_vsnprintf+0x32>
    4194:	ff397ae3          	bgeu	s2,s3,4188 <rt_vsnprintf+0x260>
    4198:	02000713          	li	a4,32
    419c:	00e90023          	sb	a4,0(s2)
    41a0:	b7e5                	j	4188 <rt_vsnprintf+0x260>
    41a2:	57fd                	li	a5,-1
    41a4:	02fb0163          	beq	s6,a5,41c6 <rt_vsnprintf+0x29e>
    41a8:	4632                	lw	a2,12(sp)
    41aa:	00460793          	addi	a5,a2,4
    41ae:	c63e                	sw	a5,12(sp)
    41b0:	8826                	mv	a6,s1
    41b2:	87de                	mv	a5,s7
    41b4:	875a                	mv	a4,s6
    41b6:	46c1                	li	a3,16
    41b8:	4210                	lw	a2,0(a2)
    41ba:	85ce                	mv	a1,s3
    41bc:	854a                	mv	a0,s2
    41be:	ac5ff0ef          	jal	ra,3c82 <print_number>
    41c2:	892a                	mv	s2,a0
    41c4:	bb59                	j	3f5a <rt_vsnprintf+0x32>
    41c6:	0014e493          	ori	s1,s1,1
    41ca:	4b21                	li	s6,8
    41cc:	bff1                	j	41a8 <rt_vsnprintf+0x280>
    41ce:	01397663          	bgeu	s2,s3,41da <rt_vsnprintf+0x2b2>
    41d2:	02500793          	li	a5,37
    41d6:	00f90023          	sb	a5,0(s2)
    41da:	0905                	addi	s2,s2,1
    41dc:	bbbd                	j	3f5a <rt_vsnprintf+0x32>
    41de:	46a1                	li	a3,8
    41e0:	a081                	j	4220 <rt_vsnprintf+0x2f8>
    41e2:	0404e493          	ori	s1,s1,64
    41e6:	46c1                	li	a3,16
    41e8:	a825                	j	4220 <rt_vsnprintf+0x2f8>
    41ea:	0024e493          	ori	s1,s1,2
    41ee:	46a9                	li	a3,10
    41f0:	a805                	j	4220 <rt_vsnprintf+0x2f8>
    41f2:	01397663          	bgeu	s2,s3,41fe <rt_vsnprintf+0x2d6>
    41f6:	02500793          	li	a5,37
    41fa:	00f90023          	sb	a5,0(s2)
    41fe:	00190713          	addi	a4,s2,1
    4202:	00040783          	lb	a5,0(s0)
    4206:	c799                	beqz	a5,4214 <rt_vsnprintf+0x2ec>
    4208:	01377463          	bgeu	a4,s3,4210 <rt_vsnprintf+0x2e8>
    420c:	00f900a3          	sb	a5,1(s2)
    4210:	0909                	addi	s2,s2,2
    4212:	b3a1                	j	3f5a <rt_vsnprintf+0x32>
    4214:	147d                	addi	s0,s0,-1
    4216:	893a                	mv	s2,a4
    4218:	b389                	j	3f5a <rt_vsnprintf+0x32>
    421a:	46a9                	li	a3,10
    421c:	a011                	j	4220 <rt_vsnprintf+0x2f8>
    421e:	46c1                	li	a3,16
    4220:	06c00793          	li	a5,108
    4224:	02f60463          	beq	a2,a5,424c <rt_vsnprintf+0x324>
    4228:	06800793          	li	a5,104
    422c:	02f60663          	beq	a2,a5,4258 <rt_vsnprintf+0x330>
    4230:	47b2                	lw	a5,12(sp)
    4232:	00478713          	addi	a4,a5,4
    4236:	c63a                	sw	a4,12(sp)
    4238:	4390                	lw	a2,0(a5)
    423a:	8826                	mv	a6,s1
    423c:	87de                	mv	a5,s7
    423e:	875a                	mv	a4,s6
    4240:	85ce                	mv	a1,s3
    4242:	854a                	mv	a0,s2
    4244:	a3fff0ef          	jal	ra,3c82 <print_number>
    4248:	892a                	mv	s2,a0
    424a:	bb01                	j	3f5a <rt_vsnprintf+0x32>
    424c:	47b2                	lw	a5,12(sp)
    424e:	00478713          	addi	a4,a5,4
    4252:	c63a                	sw	a4,12(sp)
    4254:	4390                	lw	a2,0(a5)
    4256:	b7d5                	j	423a <rt_vsnprintf+0x312>
    4258:	47b2                	lw	a5,12(sp)
    425a:	00478713          	addi	a4,a5,4
    425e:	c63a                	sw	a4,12(sp)
    4260:	439c                	lw	a5,0(a5)
    4262:	01079613          	slli	a2,a5,0x10
    4266:	8241                	srli	a2,a2,0x10
    4268:	0024f713          	andi	a4,s1,2
    426c:	d779                	beqz	a4,423a <rt_vsnprintf+0x312>
    426e:	01079613          	slli	a2,a5,0x10
    4272:	8641                	srai	a2,a2,0x10
    4274:	b7d9                	j	423a <rt_vsnprintf+0x312>
    4276:	000a8663          	beqz	s5,4282 <rt_vsnprintf+0x35a>
    427a:	03397263          	bgeu	s2,s3,429e <rt_vsnprintf+0x376>
    427e:	00090023          	sb	zero,0(s2)
    4282:	41490533          	sub	a0,s2,s4
    4286:	50f2                	lw	ra,60(sp)
    4288:	5462                	lw	s0,56(sp)
    428a:	54d2                	lw	s1,52(sp)
    428c:	5942                	lw	s2,48(sp)
    428e:	59b2                	lw	s3,44(sp)
    4290:	5a22                	lw	s4,40(sp)
    4292:	5a92                	lw	s5,36(sp)
    4294:	5b02                	lw	s6,32(sp)
    4296:	4bf2                	lw	s7,28(sp)
    4298:	4c62                	lw	s8,24(sp)
    429a:	6121                	addi	sp,sp,64
    429c:	8082                	ret
    429e:	fe098fa3          	sb	zero,-1(s3)
    42a2:	b7c5                	j	4282 <rt_vsnprintf+0x35a>

000042a4 <rt_console_get_device>:
    42a4:	84c18793          	addi	a5,gp,-1972 # 2000020c <_console_device>
    42a8:	4388                	lw	a0,0(a5)
    42aa:	8082                	ret

000042ac <rt_console_set_device>:
    42ac:	1141                	addi	sp,sp,-16
    42ae:	c606                	sw	ra,12(sp)
    42b0:	c422                	sw	s0,8(sp)
    42b2:	c226                	sw	s1,4(sp)
    42b4:	84c18793          	addi	a5,gp,-1972 # 2000020c <_console_device>
    42b8:	4384                	lw	s1,0(a5)
    42ba:	cd2ff0ef          	jal	ra,378c <rt_device_find>
    42be:	cd19                	beqz	a0,42dc <rt_console_set_device+0x30>
    42c0:	842a                	mv	s0,a0
    42c2:	84c18793          	addi	a5,gp,-1972 # 2000020c <_console_device>
    42c6:	4388                	lw	a0,0(a5)
    42c8:	c119                	beqz	a0,42ce <rt_console_set_device+0x22>
    42ca:	e12ff0ef          	jal	ra,38dc <rt_device_close>
    42ce:	04300593          	li	a1,67
    42d2:	8522                	mv	a0,s0
    42d4:	d66ff0ef          	jal	ra,383a <rt_device_open>
    42d8:	8481a623          	sw	s0,-1972(gp) # 2000020c <_console_device>
    42dc:	8526                	mv	a0,s1
    42de:	40b2                	lw	ra,12(sp)
    42e0:	4422                	lw	s0,8(sp)
    42e2:	4492                	lw	s1,4(sp)
    42e4:	0141                	addi	sp,sp,16
    42e6:	8082                	ret

000042e8 <rt_hw_console_output>:
    42e8:	8082                	ret

000042ea <rt_kprintf>:
    42ea:	7139                	addi	sp,sp,-64
    42ec:	ce06                	sw	ra,28(sp)
    42ee:	cc22                	sw	s0,24(sp)
    42f0:	d22e                	sw	a1,36(sp)
    42f2:	d432                	sw	a2,40(sp)
    42f4:	d636                	sw	a3,44(sp)
    42f6:	d83a                	sw	a4,48(sp)
    42f8:	da3e                	sw	a5,52(sp)
    42fa:	dc42                	sw	a6,56(sp)
    42fc:	de46                	sw	a7,60(sp)
    42fe:	1054                	addi	a3,sp,36
    4300:	c636                	sw	a3,12(sp)
    4302:	862a                	mv	a2,a0
    4304:	07f00593          	li	a1,127
    4308:	1fffd517          	auipc	a0,0x1fffd
    430c:	34c50513          	addi	a0,a0,844 # 20001654 <rt_log_buf.2695>
    4310:	c19ff0ef          	jal	ra,3f28 <rt_vsnprintf>
    4314:	07f00793          	li	a5,127
    4318:	00a7f463          	bgeu	a5,a0,4320 <rt_kprintf+0x36>
    431c:	07f00513          	li	a0,127
    4320:	84c18793          	addi	a5,gp,-1972 # 2000020c <_console_device>
    4324:	439c                	lw	a5,0(a5)
    4326:	cb8d                	beqz	a5,4358 <rt_kprintf+0x6e>
    4328:	01a7d403          	lhu	s0,26(a5)
    432c:	04046713          	ori	a4,s0,64
    4330:	00e79d23          	sh	a4,26(a5)
    4334:	86aa                	mv	a3,a0
    4336:	1fffd617          	auipc	a2,0x1fffd
    433a:	31e60613          	addi	a2,a2,798 # 20001654 <rt_log_buf.2695>
    433e:	4581                	li	a1,0
    4340:	853e                	mv	a0,a5
    4342:	e00ff0ef          	jal	ra,3942 <rt_device_write>
    4346:	84c18793          	addi	a5,gp,-1972 # 2000020c <_console_device>
    434a:	439c                	lw	a5,0(a5)
    434c:	00879d23          	sh	s0,26(a5)
    4350:	40f2                	lw	ra,28(sp)
    4352:	4462                	lw	s0,24(sp)
    4354:	6121                	addi	sp,sp,64
    4356:	8082                	ret
    4358:	1fffd517          	auipc	a0,0x1fffd
    435c:	2fc50513          	addi	a0,a0,764 # 20001654 <rt_log_buf.2695>
    4360:	3761                	jal	42e8 <rt_hw_console_output>
    4362:	b7fd                	j	4350 <rt_kprintf+0x66>

00004364 <rt_show_version>:
    4364:	1141                	addi	sp,sp,-16
    4366:	c606                	sw	ra,12(sp)
    4368:	00003517          	auipc	a0,0x3
    436c:	66050513          	addi	a0,a0,1632 # 79c8 <large_digits.2585+0x14>
    4370:	3fad                	jal	42ea <rt_kprintf>
    4372:	00003517          	auipc	a0,0x3
    4376:	66250513          	addi	a0,a0,1634 # 79d4 <large_digits.2585+0x20>
    437a:	3f85                	jal	42ea <rt_kprintf>
    437c:	00003717          	auipc	a4,0x3
    4380:	67c70713          	addi	a4,a4,1660 # 79f8 <large_digits.2585+0x44>
    4384:	468d                	li	a3,3
    4386:	4605                	li	a2,1
    4388:	458d                	li	a1,3
    438a:	00003517          	auipc	a0,0x3
    438e:	67a50513          	addi	a0,a0,1658 # 7a04 <large_digits.2585+0x50>
    4392:	3fa1                	jal	42ea <rt_kprintf>
    4394:	00003517          	auipc	a0,0x3
    4398:	69050513          	addi	a0,a0,1680 # 7a24 <large_digits.2585+0x70>
    439c:	37b9                	jal	42ea <rt_kprintf>
    439e:	40b2                	lw	ra,12(sp)
    43a0:	0141                	addi	sp,sp,16
    43a2:	8082                	ret

000043a4 <__rt_ffs>:
    43a4:	c515                	beqz	a0,43d0 <__rt_ffs+0x2c>
    43a6:	0ff57793          	andi	a5,a0,255
    43aa:	e785                	bnez	a5,43d2 <__rt_ffs+0x2e>
    43ac:	67c1                	lui	a5,0x10
    43ae:	f0078793          	addi	a5,a5,-256 # ff00 <__rt_init_end+0x817c>
    43b2:	8fe9                	and	a5,a5,a0
    43b4:	eb85                	bnez	a5,43e4 <__rt_ffs+0x40>
    43b6:	00ff07b7          	lui	a5,0xff0
    43ba:	8fe9                	and	a5,a5,a0
    43bc:	e3a1                	bnez	a5,43fc <__rt_ffs+0x58>
    43be:	8161                	srli	a0,a0,0x18
    43c0:	00003797          	auipc	a5,0x3
    43c4:	4f478793          	addi	a5,a5,1268 # 78b4 <__lowest_bit_bitmap>
    43c8:	953e                	add	a0,a0,a5
    43ca:	00054503          	lbu	a0,0(a0)
    43ce:	0565                	addi	a0,a0,25
    43d0:	8082                	ret
    43d2:	00003717          	auipc	a4,0x3
    43d6:	4e270713          	addi	a4,a4,1250 # 78b4 <__lowest_bit_bitmap>
    43da:	97ba                	add	a5,a5,a4
    43dc:	0007c503          	lbu	a0,0(a5)
    43e0:	0505                	addi	a0,a0,1
    43e2:	8082                	ret
    43e4:	8521                	srai	a0,a0,0x8
    43e6:	0ff57513          	andi	a0,a0,255
    43ea:	00003797          	auipc	a5,0x3
    43ee:	4ca78793          	addi	a5,a5,1226 # 78b4 <__lowest_bit_bitmap>
    43f2:	953e                	add	a0,a0,a5
    43f4:	00054503          	lbu	a0,0(a0)
    43f8:	0525                	addi	a0,a0,9
    43fa:	8082                	ret
    43fc:	8541                	srai	a0,a0,0x10
    43fe:	0ff57513          	andi	a0,a0,255
    4402:	00003797          	auipc	a5,0x3
    4406:	4b278793          	addi	a5,a5,1202 # 78b4 <__lowest_bit_bitmap>
    440a:	953e                	add	a0,a0,a5
    440c:	00054503          	lbu	a0,0(a0)
    4410:	0545                	addi	a0,a0,17
    4412:	8082                	ret

00004414 <plug_holes>:
    4414:	85418793          	addi	a5,gp,-1964 # 20000214 <heap_ptr>
    4418:	4394                	lw	a3,0(a5)
    441a:	4158                	lw	a4,4(a0)
    441c:	9736                	add	a4,a4,a3
    441e:	02e50663          	beq	a0,a4,444a <plug_holes+0x36>
    4422:	00275783          	lhu	a5,2(a4)
    4426:	e395                	bnez	a5,444a <plug_holes+0x36>
    4428:	85018793          	addi	a5,gp,-1968 # 20000210 <heap_end>
    442c:	439c                	lw	a5,0(a5)
    442e:	00e78e63          	beq	a5,a4,444a <plug_holes+0x36>
    4432:	85818793          	addi	a5,gp,-1960 # 20000218 <lfree>
    4436:	439c                	lw	a5,0(a5)
    4438:	02e78c63          	beq	a5,a4,4470 <plug_holes+0x5c>
    443c:	435c                	lw	a5,4(a4)
    443e:	c15c                	sw	a5,4(a0)
    4440:	435c                	lw	a5,4(a4)
    4442:	97b6                	add	a5,a5,a3
    4444:	40d50733          	sub	a4,a0,a3
    4448:	c798                	sw	a4,8(a5)
    444a:	451c                	lw	a5,8(a0)
    444c:	97b6                	add	a5,a5,a3
    444e:	02f50063          	beq	a0,a5,446e <plug_holes+0x5a>
    4452:	0027d703          	lhu	a4,2(a5)
    4456:	ef01                	bnez	a4,446e <plug_holes+0x5a>
    4458:	85818713          	addi	a4,gp,-1960 # 20000218 <lfree>
    445c:	4318                	lw	a4,0(a4)
    445e:	00a70c63          	beq	a4,a0,4476 <plug_holes+0x62>
    4462:	4158                	lw	a4,4(a0)
    4464:	c3d8                	sw	a4,4(a5)
    4466:	4158                	lw	a4,4(a0)
    4468:	9736                	add	a4,a4,a3
    446a:	8f95                	sub	a5,a5,a3
    446c:	c71c                	sw	a5,8(a4)
    446e:	8082                	ret
    4470:	84a1ac23          	sw	a0,-1960(gp) # 20000218 <lfree>
    4474:	b7e1                	j	443c <plug_holes+0x28>
    4476:	84f1ac23          	sw	a5,-1960(gp) # 20000218 <lfree>
    447a:	b7e5                	j	4462 <plug_holes+0x4e>

0000447c <list_mem>:
    447c:	1141                	addi	sp,sp,-16
    447e:	c606                	sw	ra,12(sp)
    4480:	86018793          	addi	a5,gp,-1952 # 20000220 <mem_size_aligned>
    4484:	438c                	lw	a1,0(a5)
    4486:	00003517          	auipc	a0,0x3
    448a:	5e650513          	addi	a0,a0,1510 # 7a6c <small_digits.2584+0x14>
    448e:	e5dff0ef          	jal	ra,42ea <rt_kprintf>
    4492:	86c18793          	addi	a5,gp,-1940 # 2000022c <used_mem>
    4496:	438c                	lw	a1,0(a5)
    4498:	00003517          	auipc	a0,0x3
    449c:	5e850513          	addi	a0,a0,1512 # 7a80 <small_digits.2584+0x28>
    44a0:	e4bff0ef          	jal	ra,42ea <rt_kprintf>
    44a4:	85c18793          	addi	a5,gp,-1956 # 2000021c <max_mem>
    44a8:	438c                	lw	a1,0(a5)
    44aa:	00003517          	auipc	a0,0x3
    44ae:	5ea50513          	addi	a0,a0,1514 # 7a94 <small_digits.2584+0x3c>
    44b2:	e39ff0ef          	jal	ra,42ea <rt_kprintf>
    44b6:	40b2                	lw	ra,12(sp)
    44b8:	0141                	addi	sp,sp,16
    44ba:	8082                	ret

000044bc <rt_system_heap_init>:
    44bc:	1141                	addi	sp,sp,-16
    44be:	c606                	sw	ra,12(sp)
    44c0:	c422                	sw	s0,8(sp)
    44c2:	ffc5f713          	andi	a4,a1,-4
    44c6:	46e1                	li	a3,24
    44c8:	00e6f963          	bgeu	a3,a4,44da <rt_system_heap_init+0x1e>
    44cc:	00350793          	addi	a5,a0,3
    44d0:	9bf1                	andi	a5,a5,-4
    44d2:	fe870693          	addi	a3,a4,-24
    44d6:	00f6fe63          	bgeu	a3,a5,44f2 <rt_system_heap_init+0x36>
    44da:	862e                	mv	a2,a1
    44dc:	85aa                	mv	a1,a0
    44de:	00003517          	auipc	a0,0x3
    44e2:	65650513          	addi	a0,a0,1622 # 7b34 <__fsym_list_mem_name+0x60>
    44e6:	e05ff0ef          	jal	ra,42ea <rt_kprintf>
    44ea:	40b2                	lw	ra,12(sp)
    44ec:	4422                	lw	s0,8(sp)
    44ee:	0141                	addi	sp,sp,16
    44f0:	8082                	ret
    44f2:	8f1d                	sub	a4,a4,a5
    44f4:	fe870693          	addi	a3,a4,-24
    44f8:	86d1a023          	sw	a3,-1952(gp) # 20000220 <mem_size_aligned>
    44fc:	85418413          	addi	s0,gp,-1964 # 20000214 <heap_ptr>
    4500:	c01c                	sw	a5,0(s0)
    4502:	6689                	lui	a3,0x2
    4504:	ea068693          	addi	a3,a3,-352 # 1ea0 <rt_serial_write+0x4c>
    4508:	00d79023          	sh	a3,0(a5)
    450c:	1751                	addi	a4,a4,-12
    450e:	c3d8                	sw	a4,4(a5)
    4510:	0007a423          	sw	zero,8(a5)
    4514:	00079123          	sh	zero,2(a5)
    4518:	97ba                	add	a5,a5,a4
    451a:	84f1a823          	sw	a5,-1968(gp) # 20000210 <heap_end>
    451e:	00d79023          	sh	a3,0(a5)
    4522:	4685                	li	a3,1
    4524:	00d79123          	sh	a3,2(a5)
    4528:	c3d8                	sw	a4,4(a5)
    452a:	c798                	sw	a4,8(a5)
    452c:	4681                	li	a3,0
    452e:	4605                	li	a2,1
    4530:	00003597          	auipc	a1,0x3
    4534:	5fc58593          	addi	a1,a1,1532 # 7b2c <__fsym_list_mem_name+0x58>
    4538:	1fffd517          	auipc	a0,0x1fffd
    453c:	19c50513          	addi	a0,a0,412 # 200016d4 <heap_sem>
    4540:	d38ff0ef          	jal	ra,3a78 <rt_sem_init>
    4544:	401c                	lw	a5,0(s0)
    4546:	84f1ac23          	sw	a5,-1960(gp) # 20000218 <lfree>
    454a:	b745                	j	44ea <rt_system_heap_init+0x2e>

0000454c <rt_malloc>:
    454c:	14050963          	beqz	a0,469e <rt_malloc+0x152>
    4550:	1141                	addi	sp,sp,-16
    4552:	c606                	sw	ra,12(sp)
    4554:	c422                	sw	s0,8(sp)
    4556:	c226                	sw	s1,4(sp)
    4558:	050d                	addi	a0,a0,3
    455a:	ffc57493          	andi	s1,a0,-4
    455e:	86018793          	addi	a5,gp,-1952 # 20000220 <mem_size_aligned>
    4562:	439c                	lw	a5,0(a5)
    4564:	1297ef63          	bltu	a5,s1,46a2 <rt_malloc+0x156>
    4568:	47ad                	li	a5,11
    456a:	0097e363          	bltu	a5,s1,4570 <rt_malloc+0x24>
    456e:	44b1                	li	s1,12
    4570:	55fd                	li	a1,-1
    4572:	1fffd517          	auipc	a0,0x1fffd
    4576:	16250513          	addi	a0,a0,354 # 200016d4 <heap_sem>
    457a:	d34ff0ef          	jal	ra,3aae <rt_sem_take>
    457e:	85818793          	addi	a5,gp,-1960 # 20000218 <lfree>
    4582:	4388                	lw	a0,0(a5)
    4584:	85418793          	addi	a5,gp,-1964 # 20000214 <heap_ptr>
    4588:	4390                	lw	a2,0(a5)
    458a:	40c507b3          	sub	a5,a0,a2
    458e:	a0b1                	j	45da <rt_malloc+0x8e>
    4590:	4785                	li	a5,1
    4592:	00f41123          	sh	a5,2(s0)
    4596:	40c407b3          	sub	a5,s0,a2
    459a:	40f587b3          	sub	a5,a1,a5
    459e:	86c18713          	addi	a4,gp,-1940 # 2000022c <used_mem>
    45a2:	4314                	lw	a3,0(a4)
    45a4:	97b6                	add	a5,a5,a3
    45a6:	c31c                	sw	a5,0(a4)
    45a8:	85c18713          	addi	a4,gp,-1956 # 2000021c <max_mem>
    45ac:	4318                	lw	a4,0(a4)
    45ae:	0af77463          	bgeu	a4,a5,4656 <rt_malloc+0x10a>
    45b2:	84f1ae23          	sw	a5,-1956(gp) # 2000021c <max_mem>
    45b6:	a045                	j	4656 <rt_malloc+0x10a>
    45b8:	43dc                	lw	a5,4(a5)
    45ba:	97b2                	add	a5,a5,a2
    45bc:	84f1ac23          	sw	a5,-1960(gp) # 20000218 <lfree>
    45c0:	85818793          	addi	a5,gp,-1960 # 20000218 <lfree>
    45c4:	439c                	lw	a5,0(a5)
    45c6:	0027d703          	lhu	a4,2(a5)
    45ca:	cf49                	beqz	a4,4664 <rt_malloc+0x118>
    45cc:	85018713          	addi	a4,gp,-1968 # 20000210 <heap_end>
    45d0:	4318                	lw	a4,0(a4)
    45d2:	fee793e3          	bne	a5,a4,45b8 <rt_malloc+0x6c>
    45d6:	a079                	j	4664 <rt_malloc+0x118>
    45d8:	405c                	lw	a5,4(s0)
    45da:	86018713          	addi	a4,gp,-1952 # 20000220 <mem_size_aligned>
    45de:	4318                	lw	a4,0(a4)
    45e0:	409706b3          	sub	a3,a4,s1
    45e4:	0ad7f163          	bgeu	a5,a3,4686 <rt_malloc+0x13a>
    45e8:	00f60433          	add	s0,a2,a5
    45ec:	00245683          	lhu	a3,2(s0)
    45f0:	f6e5                	bnez	a3,45d8 <rt_malloc+0x8c>
    45f2:	404c                	lw	a1,4(s0)
    45f4:	40f586b3          	sub	a3,a1,a5
    45f8:	16d1                	addi	a3,a3,-12
    45fa:	fc96efe3          	bltu	a3,s1,45d8 <rt_malloc+0x8c>
    45fe:	01848813          	addi	a6,s1,24
    4602:	f906e7e3          	bltu	a3,a6,4590 <rt_malloc+0x44>
    4606:	00f485b3          	add	a1,s1,a5
    460a:	05b1                	addi	a1,a1,12
    460c:	00b606b3          	add	a3,a2,a1
    4610:	6809                	lui	a6,0x2
    4612:	ea080813          	addi	a6,a6,-352 # 1ea0 <rt_serial_write+0x4c>
    4616:	01069023          	sh	a6,0(a3)
    461a:	00069123          	sh	zero,2(a3)
    461e:	00442803          	lw	a6,4(s0)
    4622:	0106a223          	sw	a6,4(a3)
    4626:	c69c                	sw	a5,8(a3)
    4628:	c04c                	sw	a1,4(s0)
    462a:	4785                	li	a5,1
    462c:	00f41123          	sh	a5,2(s0)
    4630:	42dc                	lw	a5,4(a3)
    4632:	0731                	addi	a4,a4,12
    4634:	00e78463          	beq	a5,a4,463c <rt_malloc+0xf0>
    4638:	97b2                	add	a5,a5,a2
    463a:	c78c                	sw	a1,8(a5)
    463c:	86c18713          	addi	a4,gp,-1940 # 2000022c <used_mem>
    4640:	431c                	lw	a5,0(a4)
    4642:	97a6                	add	a5,a5,s1
    4644:	07b1                	addi	a5,a5,12
    4646:	c31c                	sw	a5,0(a4)
    4648:	85c18713          	addi	a4,gp,-1956 # 2000021c <max_mem>
    464c:	4318                	lw	a4,0(a4)
    464e:	00f77463          	bgeu	a4,a5,4656 <rt_malloc+0x10a>
    4652:	84f1ae23          	sw	a5,-1956(gp) # 2000021c <max_mem>
    4656:	6789                	lui	a5,0x2
    4658:	ea078793          	addi	a5,a5,-352 # 1ea0 <rt_serial_write+0x4c>
    465c:	00f41023          	sh	a5,0(s0)
    4660:	f68500e3          	beq	a0,s0,45c0 <rt_malloc+0x74>
    4664:	1fffd517          	auipc	a0,0x1fffd
    4668:	07050513          	addi	a0,a0,112 # 200016d4 <heap_sem>
    466c:	d4cff0ef          	jal	ra,3bb8 <rt_sem_release>
    4670:	86818793          	addi	a5,gp,-1944 # 20000228 <rt_malloc_hook>
    4674:	439c                	lw	a5,0(a5)
    4676:	c789                	beqz	a5,4680 <rt_malloc+0x134>
    4678:	85a6                	mv	a1,s1
    467a:	00c40513          	addi	a0,s0,12
    467e:	9782                	jalr	a5
    4680:	00c40513          	addi	a0,s0,12
    4684:	a801                	j	4694 <rt_malloc+0x148>
    4686:	1fffd517          	auipc	a0,0x1fffd
    468a:	04e50513          	addi	a0,a0,78 # 200016d4 <heap_sem>
    468e:	d2aff0ef          	jal	ra,3bb8 <rt_sem_release>
    4692:	4501                	li	a0,0
    4694:	40b2                	lw	ra,12(sp)
    4696:	4422                	lw	s0,8(sp)
    4698:	4492                	lw	s1,4(sp)
    469a:	0141                	addi	sp,sp,16
    469c:	8082                	ret
    469e:	4501                	li	a0,0
    46a0:	8082                	ret
    46a2:	4501                	li	a0,0
    46a4:	bfc5                	j	4694 <rt_malloc+0x148>

000046a6 <rt_calloc>:
    46a6:	1141                	addi	sp,sp,-16
    46a8:	c606                	sw	ra,12(sp)
    46aa:	c422                	sw	s0,8(sp)
    46ac:	c226                	sw	s1,4(sp)
    46ae:	02b504b3          	mul	s1,a0,a1
    46b2:	8526                	mv	a0,s1
    46b4:	e99ff0ef          	jal	ra,454c <rt_malloc>
    46b8:	842a                	mv	s0,a0
    46ba:	c509                	beqz	a0,46c4 <rt_calloc+0x1e>
    46bc:	8626                	mv	a2,s1
    46be:	4581                	li	a1,0
    46c0:	f60ff0ef          	jal	ra,3e20 <rt_memset>
    46c4:	8522                	mv	a0,s0
    46c6:	40b2                	lw	ra,12(sp)
    46c8:	4422                	lw	s0,8(sp)
    46ca:	4492                	lw	s1,4(sp)
    46cc:	0141                	addi	sp,sp,16
    46ce:	8082                	ret

000046d0 <rt_free>:
    46d0:	c179                	beqz	a0,4796 <rt_free+0xc6>
    46d2:	1141                	addi	sp,sp,-16
    46d4:	c606                	sw	ra,12(sp)
    46d6:	c422                	sw	s0,8(sp)
    46d8:	c226                	sw	s1,4(sp)
    46da:	842a                	mv	s0,a0
    46dc:	86418793          	addi	a5,gp,-1948 # 20000224 <rt_free_hook>
    46e0:	439c                	lw	a5,0(a5)
    46e2:	c391                	beqz	a5,46e6 <rt_free+0x16>
    46e4:	9782                	jalr	a5
    46e6:	85418793          	addi	a5,gp,-1964 # 20000214 <heap_ptr>
    46ea:	439c                	lw	a5,0(a5)
    46ec:	00f46763          	bltu	s0,a5,46fa <rt_free+0x2a>
    46f0:	85018793          	addi	a5,gp,-1968 # 20000210 <heap_end>
    46f4:	439c                	lw	a5,0(a5)
    46f6:	00f46763          	bltu	s0,a5,4704 <rt_free+0x34>
    46fa:	40b2                	lw	ra,12(sp)
    46fc:	4422                	lw	s0,8(sp)
    46fe:	4492                	lw	s1,4(sp)
    4700:	0141                	addi	sp,sp,16
    4702:	8082                	ret
    4704:	ff440493          	addi	s1,s0,-12
    4708:	55fd                	li	a1,-1
    470a:	1fffd517          	auipc	a0,0x1fffd
    470e:	fca50513          	addi	a0,a0,-54 # 200016d4 <heap_sem>
    4712:	b9cff0ef          	jal	ra,3aae <rt_sem_take>
    4716:	ff645783          	lhu	a5,-10(s0)
    471a:	cb81                	beqz	a5,472a <rt_free+0x5a>
    471c:	ff445703          	lhu	a4,-12(s0)
    4720:	6789                	lui	a5,0x2
    4722:	ea078793          	addi	a5,a5,-352 # 1ea0 <rt_serial_write+0x4c>
    4726:	02f70363          	beq	a4,a5,474c <rt_free+0x7c>
    472a:	00003517          	auipc	a0,0x3
    472e:	3b650513          	addi	a0,a0,950 # 7ae0 <__fsym_list_mem_name+0xc>
    4732:	bb9ff0ef          	jal	ra,42ea <rt_kprintf>
    4736:	ff445683          	lhu	a3,-12(s0)
    473a:	ff645603          	lhu	a2,-10(s0)
    473e:	85a6                	mv	a1,s1
    4740:	00003517          	auipc	a0,0x3
    4744:	3bc50513          	addi	a0,a0,956 # 7afc <__fsym_list_mem_name+0x28>
    4748:	ba3ff0ef          	jal	ra,42ea <rt_kprintf>
    474c:	fe041b23          	sh	zero,-10(s0)
    4750:	6789                	lui	a5,0x2
    4752:	ea078793          	addi	a5,a5,-352 # 1ea0 <rt_serial_write+0x4c>
    4756:	fef41a23          	sh	a5,-12(s0)
    475a:	85818793          	addi	a5,gp,-1960 # 20000218 <lfree>
    475e:	439c                	lw	a5,0(a5)
    4760:	00f4f463          	bgeu	s1,a5,4768 <rt_free+0x98>
    4764:	8491ac23          	sw	s1,-1960(gp) # 20000218 <lfree>
    4768:	85418793          	addi	a5,gp,-1964 # 20000214 <heap_ptr>
    476c:	439c                	lw	a5,0(a5)
    476e:	40f487b3          	sub	a5,s1,a5
    4772:	ff842683          	lw	a3,-8(s0)
    4776:	86c18713          	addi	a4,gp,-1940 # 2000022c <used_mem>
    477a:	8f95                	sub	a5,a5,a3
    477c:	4314                	lw	a3,0(a4)
    477e:	97b6                	add	a5,a5,a3
    4780:	c31c                	sw	a5,0(a4)
    4782:	8526                	mv	a0,s1
    4784:	c91ff0ef          	jal	ra,4414 <plug_holes>
    4788:	1fffd517          	auipc	a0,0x1fffd
    478c:	f4c50513          	addi	a0,a0,-180 # 200016d4 <heap_sem>
    4790:	c28ff0ef          	jal	ra,3bb8 <rt_sem_release>
    4794:	b79d                	j	46fa <rt_free+0x2a>
    4796:	8082                	ret

00004798 <rt_object_get_information>:
    4798:	4781                	li	a5,0
    479a:	471d                	li	a4,7
    479c:	02f74463          	blt	a4,a5,47c4 <rt_object_get_information+0x2c>
    47a0:	00479693          	slli	a3,a5,0x4
    47a4:	1fffc717          	auipc	a4,0x1fffc
    47a8:	93c70713          	addi	a4,a4,-1732 # 200000e0 <rt_object_container>
    47ac:	9736                	add	a4,a4,a3
    47ae:	4318                	lw	a4,0(a4)
    47b0:	00a70463          	beq	a4,a0,47b8 <rt_object_get_information+0x20>
    47b4:	0785                	addi	a5,a5,1
    47b6:	b7d5                	j	479a <rt_object_get_information+0x2>
    47b8:	1fffc517          	auipc	a0,0x1fffc
    47bc:	92850513          	addi	a0,a0,-1752 # 200000e0 <rt_object_container>
    47c0:	9536                	add	a0,a0,a3
    47c2:	8082                	ret
    47c4:	4501                	li	a0,0
    47c6:	8082                	ret

000047c8 <rt_object_init>:
    47c8:	1101                	addi	sp,sp,-32
    47ca:	ce06                	sw	ra,28(sp)
    47cc:	cc22                	sw	s0,24(sp)
    47ce:	ca26                	sw	s1,20(sp)
    47d0:	c84a                	sw	s2,16(sp)
    47d2:	c64e                	sw	s3,12(sp)
    47d4:	c452                	sw	s4,8(sp)
    47d6:	892a                	mv	s2,a0
    47d8:	89ae                	mv	s3,a1
    47da:	8a32                	mv	s4,a2
    47dc:	852e                	mv	a0,a1
    47de:	3f6d                	jal	4798 <rt_object_get_information>
    47e0:	84aa                	mv	s1,a0
    47e2:	2619                	jal	4ae8 <rt_enter_critical>
    47e4:	40dc                	lw	a5,4(s1)
    47e6:	00448413          	addi	s0,s1,4
    47ea:	00f40463          	beq	s0,a5,47f2 <rt_object_init+0x2a>
    47ee:	439c                	lw	a5,0(a5)
    47f0:	bfdd                	j	47e6 <rt_object_init+0x1e>
    47f2:	2e19                	jal	4b08 <rt_exit_critical>
    47f4:	f809e993          	ori	s3,s3,-128
    47f8:	01390423          	sb	s3,8(s2)
    47fc:	4621                	li	a2,8
    47fe:	85d2                	mv	a1,s4
    4800:	854a                	mv	a0,s2
    4802:	ebeff0ef          	jal	ra,3ec0 <rt_strncpy>
    4806:	87018793          	addi	a5,gp,-1936 # 20000230 <rt_object_attach_hook>
    480a:	439c                	lw	a5,0(a5)
    480c:	c399                	beqz	a5,4812 <rt_object_init+0x4a>
    480e:	854a                	mv	a0,s2
    4810:	9782                	jalr	a5
    4812:	e11fe0ef          	jal	ra,3622 <rt_hw_interrupt_disable>
    4816:	00c90793          	addi	a5,s2,12
    481a:	40d8                	lw	a4,4(s1)
    481c:	c35c                	sw	a5,4(a4)
    481e:	40d8                	lw	a4,4(s1)
    4820:	00e92623          	sw	a4,12(s2)
    4824:	c0dc                	sw	a5,4(s1)
    4826:	00892823          	sw	s0,16(s2)
    482a:	e05fe0ef          	jal	ra,362e <rt_hw_interrupt_enable>
    482e:	40f2                	lw	ra,28(sp)
    4830:	4462                	lw	s0,24(sp)
    4832:	44d2                	lw	s1,20(sp)
    4834:	4942                	lw	s2,16(sp)
    4836:	49b2                	lw	s3,12(sp)
    4838:	4a22                	lw	s4,8(sp)
    483a:	6105                	addi	sp,sp,32
    483c:	8082                	ret

0000483e <rt_object_detach>:
    483e:	1141                	addi	sp,sp,-16
    4840:	c606                	sw	ra,12(sp)
    4842:	c422                	sw	s0,8(sp)
    4844:	842a                	mv	s0,a0
    4846:	87418793          	addi	a5,gp,-1932 # 20000234 <rt_object_detach_hook>
    484a:	439c                	lw	a5,0(a5)
    484c:	c391                	beqz	a5,4850 <rt_object_detach+0x12>
    484e:	9782                	jalr	a5
    4850:	00040423          	sb	zero,8(s0)
    4854:	dcffe0ef          	jal	ra,3622 <rt_hw_interrupt_disable>
    4858:	00c40793          	addi	a5,s0,12
    485c:	4454                	lw	a3,12(s0)
    485e:	4818                	lw	a4,16(s0)
    4860:	c2d8                	sw	a4,4(a3)
    4862:	4454                	lw	a3,12(s0)
    4864:	c314                	sw	a3,0(a4)
    4866:	c81c                	sw	a5,16(s0)
    4868:	c45c                	sw	a5,12(s0)
    486a:	dc5fe0ef          	jal	ra,362e <rt_hw_interrupt_enable>
    486e:	40b2                	lw	ra,12(sp)
    4870:	4422                	lw	s0,8(sp)
    4872:	0141                	addi	sp,sp,16
    4874:	8082                	ret

00004876 <rt_object_allocate>:
    4876:	1101                	addi	sp,sp,-32
    4878:	ce06                	sw	ra,28(sp)
    487a:	cc22                	sw	s0,24(sp)
    487c:	ca26                	sw	s1,20(sp)
    487e:	c84a                	sw	s2,16(sp)
    4880:	c64e                	sw	s3,12(sp)
    4882:	89aa                	mv	s3,a0
    4884:	892e                	mv	s2,a1
    4886:	f13ff0ef          	jal	ra,4798 <rt_object_get_information>
    488a:	84aa                	mv	s1,a0
    488c:	4548                	lw	a0,12(a0)
    488e:	cbfff0ef          	jal	ra,454c <rt_malloc>
    4892:	c939                	beqz	a0,48e8 <rt_object_allocate+0x72>
    4894:	842a                	mv	s0,a0
    4896:	44d0                	lw	a2,12(s1)
    4898:	4581                	li	a1,0
    489a:	d86ff0ef          	jal	ra,3e20 <rt_memset>
    489e:	01340423          	sb	s3,8(s0)
    48a2:	000404a3          	sb	zero,9(s0)
    48a6:	4621                	li	a2,8
    48a8:	85ca                	mv	a1,s2
    48aa:	8522                	mv	a0,s0
    48ac:	e14ff0ef          	jal	ra,3ec0 <rt_strncpy>
    48b0:	87018793          	addi	a5,gp,-1936 # 20000230 <rt_object_attach_hook>
    48b4:	439c                	lw	a5,0(a5)
    48b6:	c399                	beqz	a5,48bc <rt_object_allocate+0x46>
    48b8:	8522                	mv	a0,s0
    48ba:	9782                	jalr	a5
    48bc:	d67fe0ef          	jal	ra,3622 <rt_hw_interrupt_disable>
    48c0:	00448713          	addi	a4,s1,4
    48c4:	00c40793          	addi	a5,s0,12
    48c8:	40d4                	lw	a3,4(s1)
    48ca:	c2dc                	sw	a5,4(a3)
    48cc:	40d4                	lw	a3,4(s1)
    48ce:	c454                	sw	a3,12(s0)
    48d0:	c0dc                	sw	a5,4(s1)
    48d2:	c818                	sw	a4,16(s0)
    48d4:	d5bfe0ef          	jal	ra,362e <rt_hw_interrupt_enable>
    48d8:	8522                	mv	a0,s0
    48da:	40f2                	lw	ra,28(sp)
    48dc:	4462                	lw	s0,24(sp)
    48de:	44d2                	lw	s1,20(sp)
    48e0:	4942                	lw	s2,16(sp)
    48e2:	49b2                	lw	s3,12(sp)
    48e4:	6105                	addi	sp,sp,32
    48e6:	8082                	ret
    48e8:	4401                	li	s0,0
    48ea:	b7fd                	j	48d8 <rt_object_allocate+0x62>

000048ec <rt_object_delete>:
    48ec:	1141                	addi	sp,sp,-16
    48ee:	c606                	sw	ra,12(sp)
    48f0:	c422                	sw	s0,8(sp)
    48f2:	842a                	mv	s0,a0
    48f4:	87418793          	addi	a5,gp,-1932 # 20000234 <rt_object_detach_hook>
    48f8:	439c                	lw	a5,0(a5)
    48fa:	c391                	beqz	a5,48fe <rt_object_delete+0x12>
    48fc:	9782                	jalr	a5
    48fe:	00040423          	sb	zero,8(s0)
    4902:	d21fe0ef          	jal	ra,3622 <rt_hw_interrupt_disable>
    4906:	00c40793          	addi	a5,s0,12
    490a:	4454                	lw	a3,12(s0)
    490c:	4818                	lw	a4,16(s0)
    490e:	c2d8                	sw	a4,4(a3)
    4910:	4454                	lw	a3,12(s0)
    4912:	c314                	sw	a3,0(a4)
    4914:	c81c                	sw	a5,16(s0)
    4916:	c45c                	sw	a5,12(s0)
    4918:	d17fe0ef          	jal	ra,362e <rt_hw_interrupt_enable>
    491c:	8522                	mv	a0,s0
    491e:	db3ff0ef          	jal	ra,46d0 <rt_free>
    4922:	40b2                	lw	ra,12(sp)
    4924:	4422                	lw	s0,8(sp)
    4926:	0141                	addi	sp,sp,16
    4928:	8082                	ret

0000492a <rt_object_is_systemobject>:
    492a:	00850783          	lb	a5,8(a0)
    492e:	0007c463          	bltz	a5,4936 <rt_object_is_systemobject+0xc>
    4932:	4501                	li	a0,0
    4934:	8082                	ret
    4936:	4505                	li	a0,1
    4938:	8082                	ret

0000493a <rt_system_scheduler_init>:
    493a:	88019823          	sh	zero,-1904(gp) # 20000250 <rt_scheduler_lock_nest>
    493e:	4701                	li	a4,0
    4940:	47bd                	li	a5,15
    4942:	00e7cd63          	blt	a5,a4,495c <rt_system_scheduler_init+0x22>
    4946:	00371693          	slli	a3,a4,0x3
    494a:	1fffd797          	auipc	a5,0x1fffd
    494e:	daa78793          	addi	a5,a5,-598 # 200016f4 <rt_thread_priority_table>
    4952:	97b6                	add	a5,a5,a3
    4954:	c3dc                	sw	a5,4(a5)
    4956:	c39c                	sw	a5,0(a5)
    4958:	0705                	addi	a4,a4,1
    495a:	b7dd                	j	4940 <rt_system_scheduler_init+0x6>
    495c:	88f18223          	sb	a5,-1916(gp) # 20000244 <rt_current_priority>
    4960:	8801a423          	sw	zero,-1912(gp) # 20000248 <rt_current_thread>
    4964:	8801ae23          	sw	zero,-1892(gp) # 2000025c <rt_thread_ready_priority_group>
    4968:	89418793          	addi	a5,gp,-1900 # 20000254 <rt_thread_defunct>
    496c:	c3dc                	sw	a5,4(a5)
    496e:	c39c                	sw	a5,0(a5)
    4970:	8082                	ret

00004972 <rt_system_scheduler_start>:
    4972:	1141                	addi	sp,sp,-16
    4974:	c606                	sw	ra,12(sp)
    4976:	89c18793          	addi	a5,gp,-1892 # 2000025c <rt_thread_ready_priority_group>
    497a:	4388                	lw	a0,0(a5)
    497c:	a29ff0ef          	jal	ra,43a4 <__rt_ffs>
    4980:	157d                	addi	a0,a0,-1
    4982:	00351793          	slli	a5,a0,0x3
    4986:	1fffd517          	auipc	a0,0x1fffd
    498a:	d6e50513          	addi	a0,a0,-658 # 200016f4 <rt_thread_priority_table>
    498e:	953e                	add	a0,a0,a5
    4990:	4108                	lw	a0,0(a0)
    4992:	fec50793          	addi	a5,a0,-20
    4996:	88f1a423          	sw	a5,-1912(gp) # 20000248 <rt_current_thread>
    499a:	0521                	addi	a0,a0,8
    499c:	825fb0ef          	jal	ra,1c0 <rt_hw_context_switch_to>
    49a0:	40b2                	lw	ra,12(sp)
    49a2:	0141                	addi	sp,sp,16
    49a4:	8082                	ret

000049a6 <rt_schedule>:
    49a6:	1141                	addi	sp,sp,-16
    49a8:	c606                	sw	ra,12(sp)
    49aa:	c422                	sw	s0,8(sp)
    49ac:	c226                	sw	s1,4(sp)
    49ae:	c04a                	sw	s2,0(sp)
    49b0:	c73fe0ef          	jal	ra,3622 <rt_hw_interrupt_disable>
    49b4:	842a                	mv	s0,a0
    49b6:	89018793          	addi	a5,gp,-1904 # 20000250 <rt_scheduler_lock_nest>
    49ba:	00079783          	lh	a5,0(a5)
    49be:	efb1                	bnez	a5,4a1a <rt_schedule+0x74>
    49c0:	89c18793          	addi	a5,gp,-1892 # 2000025c <rt_thread_ready_priority_group>
    49c4:	4388                	lw	a0,0(a5)
    49c6:	9dfff0ef          	jal	ra,43a4 <__rt_ffs>
    49ca:	157d                	addi	a0,a0,-1
    49cc:	00351713          	slli	a4,a0,0x3
    49d0:	1fffd797          	auipc	a5,0x1fffd
    49d4:	d2478793          	addi	a5,a5,-732 # 200016f4 <rt_thread_priority_table>
    49d8:	97ba                	add	a5,a5,a4
    49da:	0007a903          	lw	s2,0(a5)
    49de:	fec90593          	addi	a1,s2,-20
    49e2:	88818793          	addi	a5,gp,-1912 # 20000248 <rt_current_thread>
    49e6:	4384                	lw	s1,0(a5)
    49e8:	02b48963          	beq	s1,a1,4a1a <rt_schedule+0x74>
    49ec:	88a18223          	sb	a0,-1916(gp) # 20000244 <rt_current_priority>
    49f0:	88b1a423          	sw	a1,-1912(gp) # 20000248 <rt_current_thread>
    49f4:	88c18793          	addi	a5,gp,-1908 # 2000024c <rt_scheduler_hook>
    49f8:	439c                	lw	a5,0(a5)
    49fa:	c399                	beqz	a5,4a00 <rt_schedule+0x5a>
    49fc:	8526                	mv	a0,s1
    49fe:	9782                	jalr	a5
    4a00:	84418793          	addi	a5,gp,-1980 # 20000204 <rt_interrupt_nest>
    4a04:	0007c783          	lbu	a5,0(a5)
    4a08:	0ff7f793          	andi	a5,a5,255
    4a0c:	c385                	beqz	a5,4a2c <rt_schedule+0x86>
    4a0e:	00890593          	addi	a1,s2,8
    4a12:	01c48513          	addi	a0,s1,28
    4a16:	c1ffe0ef          	jal	ra,3634 <rt_hw_context_switch_interrupt>
    4a1a:	8522                	mv	a0,s0
    4a1c:	c13fe0ef          	jal	ra,362e <rt_hw_interrupt_enable>
    4a20:	40b2                	lw	ra,12(sp)
    4a22:	4422                	lw	s0,8(sp)
    4a24:	4492                	lw	s1,4(sp)
    4a26:	4902                	lw	s2,0(sp)
    4a28:	0141                	addi	sp,sp,16
    4a2a:	8082                	ret
    4a2c:	00890593          	addi	a1,s2,8
    4a30:	01c48513          	addi	a0,s1,28
    4a34:	fa8fb0ef          	jal	ra,1dc <rt_hw_context_switch>
    4a38:	8522                	mv	a0,s0
    4a3a:	bf5fe0ef          	jal	ra,362e <rt_hw_interrupt_enable>
    4a3e:	b7cd                	j	4a20 <rt_schedule+0x7a>

00004a40 <rt_schedule_insert_thread>:
    4a40:	1141                	addi	sp,sp,-16
    4a42:	c606                	sw	ra,12(sp)
    4a44:	c422                	sw	s0,8(sp)
    4a46:	842a                	mv	s0,a0
    4a48:	bdbfe0ef          	jal	ra,3622 <rt_hw_interrupt_disable>
    4a4c:	03440783          	lb	a5,52(s0)
    4a50:	9bc1                	andi	a5,a5,-16
    4a52:	0017e793          	ori	a5,a5,1
    4a56:	02f40a23          	sb	a5,52(s0)
    4a5a:	03544783          	lbu	a5,53(s0)
    4a5e:	00379713          	slli	a4,a5,0x3
    4a62:	1fffd797          	auipc	a5,0x1fffd
    4a66:	c9278793          	addi	a5,a5,-878 # 200016f4 <rt_thread_priority_table>
    4a6a:	97ba                	add	a5,a5,a4
    4a6c:	01440713          	addi	a4,s0,20
    4a70:	43d4                	lw	a3,4(a5)
    4a72:	c298                	sw	a4,0(a3)
    4a74:	43d4                	lw	a3,4(a5)
    4a76:	cc14                	sw	a3,24(s0)
    4a78:	c3d8                	sw	a4,4(a5)
    4a7a:	c85c                	sw	a5,20(s0)
    4a7c:	5c14                	lw	a3,56(s0)
    4a7e:	89c18713          	addi	a4,gp,-1892 # 2000025c <rt_thread_ready_priority_group>
    4a82:	431c                	lw	a5,0(a4)
    4a84:	8fd5                	or	a5,a5,a3
    4a86:	c31c                	sw	a5,0(a4)
    4a88:	ba7fe0ef          	jal	ra,362e <rt_hw_interrupt_enable>
    4a8c:	40b2                	lw	ra,12(sp)
    4a8e:	4422                	lw	s0,8(sp)
    4a90:	0141                	addi	sp,sp,16
    4a92:	8082                	ret

00004a94 <rt_schedule_remove_thread>:
    4a94:	1141                	addi	sp,sp,-16
    4a96:	c606                	sw	ra,12(sp)
    4a98:	c422                	sw	s0,8(sp)
    4a9a:	842a                	mv	s0,a0
    4a9c:	b87fe0ef          	jal	ra,3622 <rt_hw_interrupt_disable>
    4aa0:	01440793          	addi	a5,s0,20
    4aa4:	4854                	lw	a3,20(s0)
    4aa6:	4c18                	lw	a4,24(s0)
    4aa8:	c2d8                	sw	a4,4(a3)
    4aaa:	4854                	lw	a3,20(s0)
    4aac:	c314                	sw	a3,0(a4)
    4aae:	cc1c                	sw	a5,24(s0)
    4ab0:	c85c                	sw	a5,20(s0)
    4ab2:	03544783          	lbu	a5,53(s0)
    4ab6:	00379713          	slli	a4,a5,0x3
    4aba:	1fffd797          	auipc	a5,0x1fffd
    4abe:	c3a78793          	addi	a5,a5,-966 # 200016f4 <rt_thread_priority_table>
    4ac2:	97ba                	add	a5,a5,a4
    4ac4:	4398                	lw	a4,0(a5)
    4ac6:	00e78863          	beq	a5,a4,4ad6 <rt_schedule_remove_thread+0x42>
    4aca:	b65fe0ef          	jal	ra,362e <rt_hw_interrupt_enable>
    4ace:	40b2                	lw	ra,12(sp)
    4ad0:	4422                	lw	s0,8(sp)
    4ad2:	0141                	addi	sp,sp,16
    4ad4:	8082                	ret
    4ad6:	5c1c                	lw	a5,56(s0)
    4ad8:	fff7c713          	not	a4,a5
    4adc:	89c18693          	addi	a3,gp,-1892 # 2000025c <rt_thread_ready_priority_group>
    4ae0:	429c                	lw	a5,0(a3)
    4ae2:	8ff9                	and	a5,a5,a4
    4ae4:	c29c                	sw	a5,0(a3)
    4ae6:	b7d5                	j	4aca <rt_schedule_remove_thread+0x36>

00004ae8 <rt_enter_critical>:
    4ae8:	1141                	addi	sp,sp,-16
    4aea:	c606                	sw	ra,12(sp)
    4aec:	b37fe0ef          	jal	ra,3622 <rt_hw_interrupt_disable>
    4af0:	89018713          	addi	a4,gp,-1904 # 20000250 <rt_scheduler_lock_nest>
    4af4:	00075783          	lhu	a5,0(a4)
    4af8:	0785                	addi	a5,a5,1
    4afa:	00f71023          	sh	a5,0(a4)
    4afe:	b31fe0ef          	jal	ra,362e <rt_hw_interrupt_enable>
    4b02:	40b2                	lw	ra,12(sp)
    4b04:	0141                	addi	sp,sp,16
    4b06:	8082                	ret

00004b08 <rt_exit_critical>:
    4b08:	1141                	addi	sp,sp,-16
    4b0a:	c606                	sw	ra,12(sp)
    4b0c:	b17fe0ef          	jal	ra,3622 <rt_hw_interrupt_disable>
    4b10:	89018713          	addi	a4,gp,-1904 # 20000250 <rt_scheduler_lock_nest>
    4b14:	00075783          	lhu	a5,0(a4)
    4b18:	17fd                	addi	a5,a5,-1
    4b1a:	07c2                	slli	a5,a5,0x10
    4b1c:	87c1                	srai	a5,a5,0x10
    4b1e:	00f71023          	sh	a5,0(a4)
    4b22:	00f05763          	blez	a5,4b30 <rt_exit_critical+0x28>
    4b26:	b09fe0ef          	jal	ra,362e <rt_hw_interrupt_enable>
    4b2a:	40b2                	lw	ra,12(sp)
    4b2c:	0141                	addi	sp,sp,16
    4b2e:	8082                	ret
    4b30:	88019823          	sh	zero,-1904(gp) # 20000250 <rt_scheduler_lock_nest>
    4b34:	afbfe0ef          	jal	ra,362e <rt_hw_interrupt_enable>
    4b38:	88818793          	addi	a5,gp,-1912 # 20000248 <rt_current_thread>
    4b3c:	439c                	lw	a5,0(a5)
    4b3e:	d7f5                	beqz	a5,4b2a <rt_exit_critical+0x22>
    4b40:	e67ff0ef          	jal	ra,49a6 <rt_schedule>
    4b44:	b7dd                	j	4b2a <rt_exit_critical+0x22>

00004b46 <rt_thread_exit>:
    4b46:	1141                	addi	sp,sp,-16
    4b48:	c606                	sw	ra,12(sp)
    4b4a:	c422                	sw	s0,8(sp)
    4b4c:	c226                	sw	s1,4(sp)
    4b4e:	88818793          	addi	a5,gp,-1912 # 20000248 <rt_current_thread>
    4b52:	4380                	lw	s0,0(a5)
    4b54:	acffe0ef          	jal	ra,3622 <rt_hw_interrupt_disable>
    4b58:	84aa                	mv	s1,a0
    4b5a:	8522                	mv	a0,s0
    4b5c:	f39ff0ef          	jal	ra,4a94 <rt_schedule_remove_thread>
    4b60:	4791                	li	a5,4
    4b62:	02f40a23          	sb	a5,52(s0)
    4b66:	04c40513          	addi	a0,s0,76
    4b6a:	26dd                	jal	4f50 <rt_timer_detach>
    4b6c:	8522                	mv	a0,s0
    4b6e:	dbdff0ef          	jal	ra,492a <rt_object_is_systemobject>
    4b72:	4785                	li	a5,1
    4b74:	02f50563          	beq	a0,a5,4b9e <rt_thread_exit+0x58>
    4b78:	01440713          	addi	a4,s0,20
    4b7c:	89418793          	addi	a5,gp,-1900 # 20000254 <rt_thread_defunct>
    4b80:	4394                	lw	a3,0(a5)
    4b82:	c2d8                	sw	a4,4(a3)
    4b84:	c854                	sw	a3,20(s0)
    4b86:	c398                	sw	a4,0(a5)
    4b88:	cc1c                	sw	a5,24(s0)
    4b8a:	8526                	mv	a0,s1
    4b8c:	aa3fe0ef          	jal	ra,362e <rt_hw_interrupt_enable>
    4b90:	e17ff0ef          	jal	ra,49a6 <rt_schedule>
    4b94:	40b2                	lw	ra,12(sp)
    4b96:	4422                	lw	s0,8(sp)
    4b98:	4492                	lw	s1,4(sp)
    4b9a:	0141                	addi	sp,sp,16
    4b9c:	8082                	ret
    4b9e:	5c3c                	lw	a5,120(s0)
    4ba0:	ffe1                	bnez	a5,4b78 <rt_thread_exit+0x32>
    4ba2:	8522                	mv	a0,s0
    4ba4:	c9bff0ef          	jal	ra,483e <rt_object_detach>
    4ba8:	b7cd                	j	4b8a <rt_thread_exit+0x44>

00004baa <_rt_thread_init>:
    4baa:	1141                	addi	sp,sp,-16
    4bac:	c606                	sw	ra,12(sp)
    4bae:	c422                	sw	s0,8(sp)
    4bb0:	c226                	sw	s1,4(sp)
    4bb2:	c04a                	sw	s2,0(sp)
    4bb4:	842a                	mv	s0,a0
    4bb6:	8942                	mv	s2,a6
    4bb8:	84c6                	mv	s1,a7
    4bba:	01450593          	addi	a1,a0,20
    4bbe:	cd0c                	sw	a1,24(a0)
    4bc0:	c94c                	sw	a1,20(a0)
    4bc2:	d110                	sw	a2,32(a0)
    4bc4:	d154                	sw	a3,36(a0)
    4bc6:	d518                	sw	a4,40(a0)
    4bc8:	d55c                	sw	a5,44(a0)
    4bca:	863e                	mv	a2,a5
    4bcc:	02300593          	li	a1,35
    4bd0:	853a                	mv	a0,a4
    4bd2:	a4eff0ef          	jal	ra,3e20 <rt_memset>
    4bd6:	5410                	lw	a2,40(s0)
    4bd8:	545c                	lw	a5,44(s0)
    4bda:	17f1                	addi	a5,a5,-4
    4bdc:	00000697          	auipc	a3,0x0
    4be0:	f6a68693          	addi	a3,a3,-150 # 4b46 <rt_thread_exit>
    4be4:	963e                	add	a2,a2,a5
    4be6:	504c                	lw	a1,36(s0)
    4be8:	5008                	lw	a0,32(s0)
    4bea:	9d5fe0ef          	jal	ra,35be <rt_hw_stack_init>
    4bee:	cc48                	sw	a0,28(s0)
    4bf0:	03240b23          	sb	s2,54(s0)
    4bf4:	03240aa3          	sb	s2,53(s0)
    4bf8:	02042c23          	sw	zero,56(s0)
    4bfc:	c064                	sw	s1,68(s0)
    4bfe:	c424                	sw	s1,72(s0)
    4c00:	02042823          	sw	zero,48(s0)
    4c04:	02040a23          	sb	zero,52(s0)
    4c08:	06042c23          	sw	zero,120(s0)
    4c0c:	06042e23          	sw	zero,124(s0)
    4c10:	4781                	li	a5,0
    4c12:	4701                	li	a4,0
    4c14:	86a2                	mv	a3,s0
    4c16:	00000617          	auipc	a2,0x0
    4c1a:	02a60613          	addi	a2,a2,42 # 4c40 <rt_thread_timeout>
    4c1e:	85a2                	mv	a1,s0
    4c20:	04c40513          	addi	a0,s0,76
    4c24:	24fd                	jal	4f12 <rt_timer_init>
    4c26:	8a018793          	addi	a5,gp,-1888 # 20000260 <rt_thread_inited_hook>
    4c2a:	439c                	lw	a5,0(a5)
    4c2c:	c399                	beqz	a5,4c32 <_rt_thread_init+0x88>
    4c2e:	8522                	mv	a0,s0
    4c30:	9782                	jalr	a5
    4c32:	4501                	li	a0,0
    4c34:	40b2                	lw	ra,12(sp)
    4c36:	4422                	lw	s0,8(sp)
    4c38:	4492                	lw	s1,4(sp)
    4c3a:	4902                	lw	s2,0(sp)
    4c3c:	0141                	addi	sp,sp,16
    4c3e:	8082                	ret

00004c40 <rt_thread_timeout>:
    4c40:	1141                	addi	sp,sp,-16
    4c42:	c606                	sw	ra,12(sp)
    4c44:	5779                	li	a4,-2
    4c46:	d918                	sw	a4,48(a0)
    4c48:	01450713          	addi	a4,a0,20
    4c4c:	4950                	lw	a2,20(a0)
    4c4e:	4d14                	lw	a3,24(a0)
    4c50:	c254                	sw	a3,4(a2)
    4c52:	4950                	lw	a2,20(a0)
    4c54:	c290                	sw	a2,0(a3)
    4c56:	cd18                	sw	a4,24(a0)
    4c58:	c958                	sw	a4,20(a0)
    4c5a:	de7ff0ef          	jal	ra,4a40 <rt_schedule_insert_thread>
    4c5e:	d49ff0ef          	jal	ra,49a6 <rt_schedule>
    4c62:	40b2                	lw	ra,12(sp)
    4c64:	0141                	addi	sp,sp,16
    4c66:	8082                	ret

00004c68 <rt_thread_init>:
    4c68:	7179                	addi	sp,sp,-48
    4c6a:	d606                	sw	ra,44(sp)
    4c6c:	d422                	sw	s0,40(sp)
    4c6e:	d226                	sw	s1,36(sp)
    4c70:	d04a                	sw	s2,32(sp)
    4c72:	ce4e                	sw	s3,28(sp)
    4c74:	cc52                	sw	s4,24(sp)
    4c76:	ca56                	sw	s5,20(sp)
    4c78:	c85a                	sw	s6,16(sp)
    4c7a:	c65e                	sw	s7,12(sp)
    4c7c:	84aa                	mv	s1,a0
    4c7e:	842e                	mv	s0,a1
    4c80:	8932                	mv	s2,a2
    4c82:	89b6                	mv	s3,a3
    4c84:	8a3a                	mv	s4,a4
    4c86:	8abe                	mv	s5,a5
    4c88:	8b42                	mv	s6,a6
    4c8a:	8bc6                	mv	s7,a7
    4c8c:	862e                	mv	a2,a1
    4c8e:	4585                	li	a1,1
    4c90:	b39ff0ef          	jal	ra,47c8 <rt_object_init>
    4c94:	88de                	mv	a7,s7
    4c96:	885a                	mv	a6,s6
    4c98:	87d6                	mv	a5,s5
    4c9a:	8752                	mv	a4,s4
    4c9c:	86ce                	mv	a3,s3
    4c9e:	864a                	mv	a2,s2
    4ca0:	85a2                	mv	a1,s0
    4ca2:	8526                	mv	a0,s1
    4ca4:	f07ff0ef          	jal	ra,4baa <_rt_thread_init>
    4ca8:	50b2                	lw	ra,44(sp)
    4caa:	5422                	lw	s0,40(sp)
    4cac:	5492                	lw	s1,36(sp)
    4cae:	5902                	lw	s2,32(sp)
    4cb0:	49f2                	lw	s3,28(sp)
    4cb2:	4a62                	lw	s4,24(sp)
    4cb4:	4ad2                	lw	s5,20(sp)
    4cb6:	4b42                	lw	s6,16(sp)
    4cb8:	4bb2                	lw	s7,12(sp)
    4cba:	6145                	addi	sp,sp,48
    4cbc:	8082                	ret

00004cbe <rt_thread_self>:
    4cbe:	88818793          	addi	a5,gp,-1912 # 20000248 <rt_current_thread>
    4cc2:	4388                	lw	a0,0(a5)
    4cc4:	8082                	ret

00004cc6 <rt_thread_create>:
    4cc6:	1101                	addi	sp,sp,-32
    4cc8:	ce06                	sw	ra,28(sp)
    4cca:	cc22                	sw	s0,24(sp)
    4ccc:	ca26                	sw	s1,20(sp)
    4cce:	c84a                	sw	s2,16(sp)
    4cd0:	c64e                	sw	s3,12(sp)
    4cd2:	c452                	sw	s4,8(sp)
    4cd4:	c256                	sw	s5,4(sp)
    4cd6:	c05a                	sw	s6,0(sp)
    4cd8:	84aa                	mv	s1,a0
    4cda:	89ae                	mv	s3,a1
    4cdc:	8a32                	mv	s4,a2
    4cde:	8936                	mv	s2,a3
    4ce0:	8aba                	mv	s5,a4
    4ce2:	8b3e                	mv	s6,a5
    4ce4:	85aa                	mv	a1,a0
    4ce6:	4505                	li	a0,1
    4ce8:	b8fff0ef          	jal	ra,4876 <rt_object_allocate>
    4cec:	c121                	beqz	a0,4d2c <rt_thread_create+0x66>
    4cee:	842a                	mv	s0,a0
    4cf0:	854a                	mv	a0,s2
    4cf2:	85bff0ef          	jal	ra,454c <rt_malloc>
    4cf6:	c515                	beqz	a0,4d22 <rt_thread_create+0x5c>
    4cf8:	88da                	mv	a7,s6
    4cfa:	8856                	mv	a6,s5
    4cfc:	87ca                	mv	a5,s2
    4cfe:	872a                	mv	a4,a0
    4d00:	86d2                	mv	a3,s4
    4d02:	864e                	mv	a2,s3
    4d04:	85a6                	mv	a1,s1
    4d06:	8522                	mv	a0,s0
    4d08:	ea3ff0ef          	jal	ra,4baa <_rt_thread_init>
    4d0c:	8522                	mv	a0,s0
    4d0e:	40f2                	lw	ra,28(sp)
    4d10:	4462                	lw	s0,24(sp)
    4d12:	44d2                	lw	s1,20(sp)
    4d14:	4942                	lw	s2,16(sp)
    4d16:	49b2                	lw	s3,12(sp)
    4d18:	4a22                	lw	s4,8(sp)
    4d1a:	4a92                	lw	s5,4(sp)
    4d1c:	4b02                	lw	s6,0(sp)
    4d1e:	6105                	addi	sp,sp,32
    4d20:	8082                	ret
    4d22:	8522                	mv	a0,s0
    4d24:	bc9ff0ef          	jal	ra,48ec <rt_object_delete>
    4d28:	4401                	li	s0,0
    4d2a:	b7cd                	j	4d0c <rt_thread_create+0x46>
    4d2c:	4401                	li	s0,0
    4d2e:	bff9                	j	4d0c <rt_thread_create+0x46>

00004d30 <rt_thread_yield>:
    4d30:	1141                	addi	sp,sp,-16
    4d32:	c606                	sw	ra,12(sp)
    4d34:	8effe0ef          	jal	ra,3622 <rt_hw_interrupt_disable>
    4d38:	88818793          	addi	a5,gp,-1912 # 20000248 <rt_current_thread>
    4d3c:	439c                	lw	a5,0(a5)
    4d3e:	0347c703          	lbu	a4,52(a5)
    4d42:	8b3d                	andi	a4,a4,15
    4d44:	4685                	li	a3,1
    4d46:	00d71663          	bne	a4,a3,4d52 <rt_thread_yield+0x22>
    4d4a:	4bd4                	lw	a3,20(a5)
    4d4c:	4f98                	lw	a4,24(a5)
    4d4e:	00e69863          	bne	a3,a4,4d5e <rt_thread_yield+0x2e>
    4d52:	8ddfe0ef          	jal	ra,362e <rt_hw_interrupt_enable>
    4d56:	4501                	li	a0,0
    4d58:	40b2                	lw	ra,12(sp)
    4d5a:	0141                	addi	sp,sp,16
    4d5c:	8082                	ret
    4d5e:	01478613          	addi	a2,a5,20
    4d62:	c2d8                	sw	a4,4(a3)
    4d64:	4bd4                	lw	a3,20(a5)
    4d66:	c314                	sw	a3,0(a4)
    4d68:	cf90                	sw	a2,24(a5)
    4d6a:	cbd0                	sw	a2,20(a5)
    4d6c:	0357c703          	lbu	a4,53(a5)
    4d70:	070e                	slli	a4,a4,0x3
    4d72:	1fffd697          	auipc	a3,0x1fffd
    4d76:	98268693          	addi	a3,a3,-1662 # 200016f4 <rt_thread_priority_table>
    4d7a:	9736                	add	a4,a4,a3
    4d7c:	4354                	lw	a3,4(a4)
    4d7e:	c290                	sw	a2,0(a3)
    4d80:	4354                	lw	a3,4(a4)
    4d82:	cf94                	sw	a3,24(a5)
    4d84:	c350                	sw	a2,4(a4)
    4d86:	cbd8                	sw	a4,20(a5)
    4d88:	8a7fe0ef          	jal	ra,362e <rt_hw_interrupt_enable>
    4d8c:	c1bff0ef          	jal	ra,49a6 <rt_schedule>
    4d90:	b7d9                	j	4d56 <rt_thread_yield+0x26>

00004d92 <rt_thread_suspend>:
    4d92:	03454783          	lbu	a5,52(a0)
    4d96:	8bbd                	andi	a5,a5,15
    4d98:	4705                	li	a4,1
    4d9a:	04e79663          	bne	a5,a4,4de6 <rt_thread_suspend+0x54>
    4d9e:	1141                	addi	sp,sp,-16
    4da0:	c606                	sw	ra,12(sp)
    4da2:	c422                	sw	s0,8(sp)
    4da4:	c226                	sw	s1,4(sp)
    4da6:	842a                	mv	s0,a0
    4da8:	87bfe0ef          	jal	ra,3622 <rt_hw_interrupt_disable>
    4dac:	84aa                	mv	s1,a0
    4dae:	03440783          	lb	a5,52(s0)
    4db2:	9bc1                	andi	a5,a5,-16
    4db4:	0027e793          	ori	a5,a5,2
    4db8:	02f40a23          	sb	a5,52(s0)
    4dbc:	8522                	mv	a0,s0
    4dbe:	cd7ff0ef          	jal	ra,4a94 <rt_schedule_remove_thread>
    4dc2:	04c40513          	addi	a0,s0,76
    4dc6:	2c45                	jal	5076 <rt_timer_stop>
    4dc8:	8526                	mv	a0,s1
    4dca:	865fe0ef          	jal	ra,362e <rt_hw_interrupt_enable>
    4dce:	8a818793          	addi	a5,gp,-1880 # 20000268 <rt_thread_suspend_hook>
    4dd2:	439c                	lw	a5,0(a5)
    4dd4:	cb99                	beqz	a5,4dea <rt_thread_suspend+0x58>
    4dd6:	8522                	mv	a0,s0
    4dd8:	9782                	jalr	a5
    4dda:	4501                	li	a0,0
    4ddc:	40b2                	lw	ra,12(sp)
    4dde:	4422                	lw	s0,8(sp)
    4de0:	4492                	lw	s1,4(sp)
    4de2:	0141                	addi	sp,sp,16
    4de4:	8082                	ret
    4de6:	557d                	li	a0,-1
    4de8:	8082                	ret
    4dea:	4501                	li	a0,0
    4dec:	bfc5                	j	4ddc <rt_thread_suspend+0x4a>

00004dee <rt_thread_sleep>:
    4dee:	1101                	addi	sp,sp,-32
    4df0:	ce06                	sw	ra,28(sp)
    4df2:	cc22                	sw	s0,24(sp)
    4df4:	ca26                	sw	s1,20(sp)
    4df6:	c84a                	sw	s2,16(sp)
    4df8:	c62a                	sw	a0,12(sp)
    4dfa:	829fe0ef          	jal	ra,3622 <rt_hw_interrupt_disable>
    4dfe:	892a                	mv	s2,a0
    4e00:	88818793          	addi	a5,gp,-1912 # 20000248 <rt_current_thread>
    4e04:	4380                	lw	s0,0(a5)
    4e06:	8522                	mv	a0,s0
    4e08:	f8bff0ef          	jal	ra,4d92 <rt_thread_suspend>
    4e0c:	04c40493          	addi	s1,s0,76
    4e10:	0070                	addi	a2,sp,12
    4e12:	4581                	li	a1,0
    4e14:	8526                	mv	a0,s1
    4e16:	2c7d                	jal	50d4 <rt_timer_control>
    4e18:	8526                	mv	a0,s1
    4e1a:	2aad                	jal	4f94 <rt_timer_start>
    4e1c:	854a                	mv	a0,s2
    4e1e:	811fe0ef          	jal	ra,362e <rt_hw_interrupt_enable>
    4e22:	b85ff0ef          	jal	ra,49a6 <rt_schedule>
    4e26:	5818                	lw	a4,48(s0)
    4e28:	57f9                	li	a5,-2
    4e2a:	00f70963          	beq	a4,a5,4e3c <rt_thread_sleep+0x4e>
    4e2e:	4501                	li	a0,0
    4e30:	40f2                	lw	ra,28(sp)
    4e32:	4462                	lw	s0,24(sp)
    4e34:	44d2                	lw	s1,20(sp)
    4e36:	4942                	lw	s2,16(sp)
    4e38:	6105                	addi	sp,sp,32
    4e3a:	8082                	ret
    4e3c:	02042823          	sw	zero,48(s0)
    4e40:	b7fd                	j	4e2e <rt_thread_sleep+0x40>

00004e42 <rt_thread_mdelay>:
    4e42:	1141                	addi	sp,sp,-16
    4e44:	c606                	sw	ra,12(sp)
    4e46:	847fe0ef          	jal	ra,368c <rt_tick_from_millisecond>
    4e4a:	fa5ff0ef          	jal	ra,4dee <rt_thread_sleep>
    4e4e:	40b2                	lw	ra,12(sp)
    4e50:	0141                	addi	sp,sp,16
    4e52:	8082                	ret

00004e54 <rt_thread_resume>:
    4e54:	03454783          	lbu	a5,52(a0)
    4e58:	8bbd                	andi	a5,a5,15
    4e5a:	4709                	li	a4,2
    4e5c:	04e79863          	bne	a5,a4,4eac <rt_thread_resume+0x58>
    4e60:	1141                	addi	sp,sp,-16
    4e62:	c606                	sw	ra,12(sp)
    4e64:	c422                	sw	s0,8(sp)
    4e66:	c226                	sw	s1,4(sp)
    4e68:	842a                	mv	s0,a0
    4e6a:	fb8fe0ef          	jal	ra,3622 <rt_hw_interrupt_disable>
    4e6e:	84aa                	mv	s1,a0
    4e70:	01440793          	addi	a5,s0,20
    4e74:	4854                	lw	a3,20(s0)
    4e76:	4c18                	lw	a4,24(s0)
    4e78:	c2d8                	sw	a4,4(a3)
    4e7a:	4854                	lw	a3,20(s0)
    4e7c:	c314                	sw	a3,0(a4)
    4e7e:	cc1c                	sw	a5,24(s0)
    4e80:	c85c                	sw	a5,20(s0)
    4e82:	04c40513          	addi	a0,s0,76
    4e86:	2ac5                	jal	5076 <rt_timer_stop>
    4e88:	8526                	mv	a0,s1
    4e8a:	fa4fe0ef          	jal	ra,362e <rt_hw_interrupt_enable>
    4e8e:	8522                	mv	a0,s0
    4e90:	bb1ff0ef          	jal	ra,4a40 <rt_schedule_insert_thread>
    4e94:	8a418793          	addi	a5,gp,-1884 # 20000264 <rt_thread_resume_hook>
    4e98:	439c                	lw	a5,0(a5)
    4e9a:	cb99                	beqz	a5,4eb0 <rt_thread_resume+0x5c>
    4e9c:	8522                	mv	a0,s0
    4e9e:	9782                	jalr	a5
    4ea0:	4501                	li	a0,0
    4ea2:	40b2                	lw	ra,12(sp)
    4ea4:	4422                	lw	s0,8(sp)
    4ea6:	4492                	lw	s1,4(sp)
    4ea8:	0141                	addi	sp,sp,16
    4eaa:	8082                	ret
    4eac:	557d                	li	a0,-1
    4eae:	8082                	ret
    4eb0:	4501                	li	a0,0
    4eb2:	bfc5                	j	4ea2 <rt_thread_resume+0x4e>

00004eb4 <rt_thread_startup>:
    4eb4:	1141                	addi	sp,sp,-16
    4eb6:	c606                	sw	ra,12(sp)
    4eb8:	03654683          	lbu	a3,54(a0)
    4ebc:	02d50aa3          	sb	a3,53(a0)
    4ec0:	4705                	li	a4,1
    4ec2:	00d71733          	sll	a4,a4,a3
    4ec6:	dd18                	sw	a4,56(a0)
    4ec8:	4709                	li	a4,2
    4eca:	02e50a23          	sb	a4,52(a0)
    4ece:	f87ff0ef          	jal	ra,4e54 <rt_thread_resume>
    4ed2:	dedff0ef          	jal	ra,4cbe <rt_thread_self>
    4ed6:	c119                	beqz	a0,4edc <rt_thread_startup+0x28>
    4ed8:	acfff0ef          	jal	ra,49a6 <rt_schedule>
    4edc:	4501                	li	a0,0
    4ede:	40b2                	lw	ra,12(sp)
    4ee0:	0141                	addi	sp,sp,16
    4ee2:	8082                	ret

00004ee4 <_rt_timer_init>:
    4ee4:	0fe77713          	andi	a4,a4,254
    4ee8:	00e504a3          	sb	a4,9(a0)
    4eec:	cd4c                	sw	a1,28(a0)
    4eee:	d110                	sw	a2,32(a0)
    4ef0:	02052423          	sw	zero,40(a0)
    4ef4:	d154                	sw	a3,36(a0)
    4ef6:	4701                	li	a4,0
    4ef8:	00e05363          	blez	a4,4efe <_rt_timer_init+0x1a>
    4efc:	8082                	ret
    4efe:	00270793          	addi	a5,a4,2
    4f02:	078e                	slli	a5,a5,0x3
    4f04:	97aa                	add	a5,a5,a0
    4f06:	00478693          	addi	a3,a5,4
    4f0a:	c794                	sw	a3,8(a5)
    4f0c:	c3d4                	sw	a3,4(a5)
    4f0e:	0705                	addi	a4,a4,1
    4f10:	b7e5                	j	4ef8 <_rt_timer_init+0x14>

00004f12 <rt_timer_init>:
    4f12:	1101                	addi	sp,sp,-32
    4f14:	ce06                	sw	ra,28(sp)
    4f16:	cc22                	sw	s0,24(sp)
    4f18:	ca26                	sw	s1,20(sp)
    4f1a:	c84a                	sw	s2,16(sp)
    4f1c:	c64e                	sw	s3,12(sp)
    4f1e:	c452                	sw	s4,8(sp)
    4f20:	842a                	mv	s0,a0
    4f22:	84b2                	mv	s1,a2
    4f24:	8936                	mv	s2,a3
    4f26:	89ba                	mv	s3,a4
    4f28:	8a3e                	mv	s4,a5
    4f2a:	862e                	mv	a2,a1
    4f2c:	45a9                	li	a1,10
    4f2e:	89bff0ef          	jal	ra,47c8 <rt_object_init>
    4f32:	8752                	mv	a4,s4
    4f34:	86ce                	mv	a3,s3
    4f36:	864a                	mv	a2,s2
    4f38:	85a6                	mv	a1,s1
    4f3a:	8522                	mv	a0,s0
    4f3c:	fa9ff0ef          	jal	ra,4ee4 <_rt_timer_init>
    4f40:	40f2                	lw	ra,28(sp)
    4f42:	4462                	lw	s0,24(sp)
    4f44:	44d2                	lw	s1,20(sp)
    4f46:	4942                	lw	s2,16(sp)
    4f48:	49b2                	lw	s3,12(sp)
    4f4a:	4a22                	lw	s4,8(sp)
    4f4c:	6105                	addi	sp,sp,32
    4f4e:	8082                	ret

00004f50 <rt_timer_detach>:
    4f50:	1141                	addi	sp,sp,-16
    4f52:	c606                	sw	ra,12(sp)
    4f54:	c422                	sw	s0,8(sp)
    4f56:	842a                	mv	s0,a0
    4f58:	ecafe0ef          	jal	ra,3622 <rt_hw_interrupt_disable>
    4f5c:	4701                	li	a4,0
    4f5e:	00e05c63          	blez	a4,4f76 <rt_timer_detach+0x26>
    4f62:	eccfe0ef          	jal	ra,362e <rt_hw_interrupt_enable>
    4f66:	8522                	mv	a0,s0
    4f68:	8d7ff0ef          	jal	ra,483e <rt_object_detach>
    4f6c:	4501                	li	a0,0
    4f6e:	40b2                	lw	ra,12(sp)
    4f70:	4422                	lw	s0,8(sp)
    4f72:	0141                	addi	sp,sp,16
    4f74:	8082                	ret
    4f76:	00270793          	addi	a5,a4,2
    4f7a:	078e                	slli	a5,a5,0x3
    4f7c:	97a2                	add	a5,a5,s0
    4f7e:	00478693          	addi	a3,a5,4
    4f82:	43cc                	lw	a1,4(a5)
    4f84:	4790                	lw	a2,8(a5)
    4f86:	c1d0                	sw	a2,4(a1)
    4f88:	43cc                	lw	a1,4(a5)
    4f8a:	c20c                	sw	a1,0(a2)
    4f8c:	c794                	sw	a3,8(a5)
    4f8e:	c3d4                	sw	a3,4(a5)
    4f90:	0705                	addi	a4,a4,1
    4f92:	b7f1                	j	4f5e <rt_timer_detach+0xe>

00004f94 <rt_timer_start>:
    4f94:	1101                	addi	sp,sp,-32
    4f96:	ce06                	sw	ra,28(sp)
    4f98:	cc22                	sw	s0,24(sp)
    4f9a:	842a                	mv	s0,a0
    4f9c:	e86fe0ef          	jal	ra,3622 <rt_hw_interrupt_disable>
    4fa0:	4701                	li	a4,0
    4fa2:	06e05663          	blez	a4,500e <rt_timer_start+0x7a>
    4fa6:	00944783          	lbu	a5,9(s0)
    4faa:	9bf9                	andi	a5,a5,-2
    4fac:	00f404a3          	sb	a5,9(s0)
    4fb0:	e7efe0ef          	jal	ra,362e <rt_hw_interrupt_enable>
    4fb4:	87c18793          	addi	a5,gp,-1924 # 2000023c <rt_object_take_hook>
    4fb8:	439c                	lw	a5,0(a5)
    4fba:	c399                	beqz	a5,4fc0 <rt_timer_start+0x2c>
    4fbc:	8522                	mv	a0,s0
    4fbe:	9782                	jalr	a5
    4fc0:	e96fe0ef          	jal	ra,3656 <rt_tick_get>
    4fc4:	505c                	lw	a5,36(s0)
    4fc6:	953e                	add	a0,a0,a5
    4fc8:	d408                	sw	a0,40(s0)
    4fca:	e58fe0ef          	jal	ra,3622 <rt_hw_interrupt_disable>
    4fce:	8b818793          	addi	a5,gp,-1864 # 20000278 <rt_timer_list>
    4fd2:	c63e                	sw	a5,12(sp)
    4fd4:	4681                	li	a3,0
    4fd6:	c2ad                	beqz	a3,5038 <rt_timer_start+0xa4>
    4fd8:	8ac18713          	addi	a4,gp,-1876 # 2000026c <random_nr.2485>
    4fdc:	431c                	lw	a5,0(a4)
    4fde:	0785                	addi	a5,a5,1
    4fe0:	c31c                	sw	a5,0(a4)
    4fe2:	47b2                	lw	a5,12(sp)
    4fe4:	01440713          	addi	a4,s0,20
    4fe8:	4394                	lw	a3,0(a5)
    4fea:	c2d8                	sw	a4,4(a3)
    4fec:	4394                	lw	a3,0(a5)
    4fee:	c854                	sw	a3,20(s0)
    4ff0:	c398                	sw	a4,0(a5)
    4ff2:	cc1c                	sw	a5,24(s0)
    4ff4:	00944783          	lbu	a5,9(s0)
    4ff8:	0017e793          	ori	a5,a5,1
    4ffc:	00f404a3          	sb	a5,9(s0)
    5000:	e2efe0ef          	jal	ra,362e <rt_hw_interrupt_enable>
    5004:	4501                	li	a0,0
    5006:	40f2                	lw	ra,28(sp)
    5008:	4462                	lw	s0,24(sp)
    500a:	6105                	addi	sp,sp,32
    500c:	8082                	ret
    500e:	00270793          	addi	a5,a4,2
    5012:	078e                	slli	a5,a5,0x3
    5014:	97a2                	add	a5,a5,s0
    5016:	00478693          	addi	a3,a5,4
    501a:	43cc                	lw	a1,4(a5)
    501c:	4790                	lw	a2,8(a5)
    501e:	c1d0                	sw	a2,4(a1)
    5020:	43cc                	lw	a1,4(a5)
    5022:	c20c                	sw	a1,0(a2)
    5024:	c794                	sw	a3,8(a5)
    5026:	c3d4                	sw	a3,4(a5)
    5028:	0705                	addi	a4,a4,1
    502a:	bfa5                	j	4fa2 <rt_timer_start+0xe>
    502c:	00269793          	slli	a5,a3,0x2
    5030:	0818                	addi	a4,sp,16
    5032:	97ba                	add	a5,a5,a4
    5034:	fec7ae23          	sw	a2,-4(a5)
    5038:	00269793          	slli	a5,a3,0x2
    503c:	0818                	addi	a4,sp,16
    503e:	97ba                	add	a5,a5,a4
    5040:	ffc7a603          	lw	a2,-4(a5)
    5044:	00369793          	slli	a5,a3,0x3
    5048:	8b818713          	addi	a4,gp,-1864 # 20000278 <rt_timer_list>
    504c:	973e                	add	a4,a4,a5
    504e:	4358                	lw	a4,4(a4)
    5050:	02e60163          	beq	a2,a4,5072 <rt_timer_start+0xde>
    5054:	4210                	lw	a2,0(a2)
    5056:	07d1                	addi	a5,a5,20
    5058:	40f607b3          	sub	a5,a2,a5
    505c:	579c                	lw	a5,40(a5)
    505e:	5418                	lw	a4,40(s0)
    5060:	fce786e3          	beq	a5,a4,502c <rt_timer_start+0x98>
    5064:	8f99                	sub	a5,a5,a4
    5066:	80000737          	lui	a4,0x80000
    506a:	ffe74713          	xori	a4,a4,-2
    506e:	faf76fe3          	bltu	a4,a5,502c <rt_timer_start+0x98>
    5072:	0685                	addi	a3,a3,1
    5074:	b78d                	j	4fd6 <rt_timer_start+0x42>

00005076 <rt_timer_stop>:
    5076:	00954783          	lbu	a5,9(a0)
    507a:	8b85                	andi	a5,a5,1
    507c:	cbb1                	beqz	a5,50d0 <rt_timer_stop+0x5a>
    507e:	1141                	addi	sp,sp,-16
    5080:	c606                	sw	ra,12(sp)
    5082:	c422                	sw	s0,8(sp)
    5084:	842a                	mv	s0,a0
    5086:	87818793          	addi	a5,gp,-1928 # 20000238 <rt_object_put_hook>
    508a:	439c                	lw	a5,0(a5)
    508c:	c391                	beqz	a5,5090 <rt_timer_stop+0x1a>
    508e:	9782                	jalr	a5
    5090:	d92fe0ef          	jal	ra,3622 <rt_hw_interrupt_disable>
    5094:	4701                	li	a4,0
    5096:	00e05e63          	blez	a4,50b2 <rt_timer_stop+0x3c>
    509a:	d94fe0ef          	jal	ra,362e <rt_hw_interrupt_enable>
    509e:	00944783          	lbu	a5,9(s0)
    50a2:	9bf9                	andi	a5,a5,-2
    50a4:	00f404a3          	sb	a5,9(s0)
    50a8:	4501                	li	a0,0
    50aa:	40b2                	lw	ra,12(sp)
    50ac:	4422                	lw	s0,8(sp)
    50ae:	0141                	addi	sp,sp,16
    50b0:	8082                	ret
    50b2:	00270793          	addi	a5,a4,2 # 80000002 <_eusrstack+0x5fff0002>
    50b6:	078e                	slli	a5,a5,0x3
    50b8:	97a2                	add	a5,a5,s0
    50ba:	00478693          	addi	a3,a5,4
    50be:	43cc                	lw	a1,4(a5)
    50c0:	4790                	lw	a2,8(a5)
    50c2:	c1d0                	sw	a2,4(a1)
    50c4:	43cc                	lw	a1,4(a5)
    50c6:	c20c                	sw	a1,0(a2)
    50c8:	c794                	sw	a3,8(a5)
    50ca:	c3d4                	sw	a3,4(a5)
    50cc:	0705                	addi	a4,a4,1
    50ce:	b7e1                	j	5096 <rt_timer_stop+0x20>
    50d0:	557d                	li	a0,-1
    50d2:	8082                	ret

000050d4 <rt_timer_control>:
    50d4:	4785                	li	a5,1
    50d6:	02f58563          	beq	a1,a5,5100 <rt_timer_control+0x2c>
    50da:	00b7df63          	bge	a5,a1,50f8 <rt_timer_control+0x24>
    50de:	4789                	li	a5,2
    50e0:	02f58463          	beq	a1,a5,5108 <rt_timer_control+0x34>
    50e4:	478d                	li	a5,3
    50e6:	00f59f63          	bne	a1,a5,5104 <rt_timer_control+0x30>
    50ea:	00954783          	lbu	a5,9(a0)
    50ee:	0027e793          	ori	a5,a5,2
    50f2:	00f504a3          	sb	a5,9(a0)
    50f6:	a039                	j	5104 <rt_timer_control+0x30>
    50f8:	e591                	bnez	a1,5104 <rt_timer_control+0x30>
    50fa:	421c                	lw	a5,0(a2)
    50fc:	d15c                	sw	a5,36(a0)
    50fe:	a019                	j	5104 <rt_timer_control+0x30>
    5100:	515c                	lw	a5,36(a0)
    5102:	c21c                	sw	a5,0(a2)
    5104:	4501                	li	a0,0
    5106:	8082                	ret
    5108:	00954783          	lbu	a5,9(a0)
    510c:	9bf5                	andi	a5,a5,-3
    510e:	00f504a3          	sb	a5,9(a0)
    5112:	bfcd                	j	5104 <rt_timer_control+0x30>

00005114 <rt_timer_check>:
    5114:	1101                	addi	sp,sp,-32
    5116:	ce06                	sw	ra,28(sp)
    5118:	cc22                	sw	s0,24(sp)
    511a:	ca26                	sw	s1,20(sp)
    511c:	c84a                	sw	s2,16(sp)
    511e:	c64e                	sw	s3,12(sp)
    5120:	d36fe0ef          	jal	ra,3656 <rt_tick_get>
    5124:	89aa                	mv	s3,a0
    5126:	cfcfe0ef          	jal	ra,3622 <rt_hw_interrupt_disable>
    512a:	84aa                	mv	s1,a0
    512c:	a8b1                	j	5188 <rt_timer_check+0x74>
    512e:	fec40713          	addi	a4,s0,-20
    5132:	00268793          	addi	a5,a3,2
    5136:	078e                	slli	a5,a5,0x3
    5138:	973e                	add	a4,a4,a5
    513a:	0711                	addi	a4,a4,4
    513c:	97a2                	add	a5,a5,s0
    513e:	ff07a583          	lw	a1,-16(a5)
    5142:	ff47a603          	lw	a2,-12(a5)
    5146:	c1d0                	sw	a2,4(a1)
    5148:	ff07a583          	lw	a1,-16(a5)
    514c:	c20c                	sw	a1,0(a2)
    514e:	fee7aa23          	sw	a4,-12(a5)
    5152:	fee7a823          	sw	a4,-16(a5)
    5156:	0685                	addi	a3,a3,1
    5158:	fcd05be3          	blez	a3,512e <rt_timer_check+0x1a>
    515c:	441c                	lw	a5,8(s0)
    515e:	4448                	lw	a0,12(s0)
    5160:	9782                	jalr	a5
    5162:	cf4fe0ef          	jal	ra,3656 <rt_tick_get>
    5166:	89aa                	mv	s3,a0
    5168:	8b418793          	addi	a5,gp,-1868 # 20000274 <rt_timer_exit_hook>
    516c:	439c                	lw	a5,0(a5)
    516e:	c399                	beqz	a5,5174 <rt_timer_check+0x60>
    5170:	854a                	mv	a0,s2
    5172:	9782                	jalr	a5
    5174:	ff544783          	lbu	a5,-11(s0)
    5178:	0037f693          	andi	a3,a5,3
    517c:	470d                	li	a4,3
    517e:	02e68d63          	beq	a3,a4,51b8 <rt_timer_check+0xa4>
    5182:	9bf9                	andi	a5,a5,-2
    5184:	fef40aa3          	sb	a5,-11(s0)
    5188:	8b818793          	addi	a5,gp,-1864 # 20000278 <rt_timer_list>
    518c:	4380                	lw	s0,0(a5)
    518e:	02f40c63          	beq	s0,a5,51c6 <rt_timer_check+0xb2>
    5192:	fec40913          	addi	s2,s0,-20
    5196:	4848                	lw	a0,20(s0)
    5198:	40a98533          	sub	a0,s3,a0
    519c:	800007b7          	lui	a5,0x80000
    51a0:	ffe7c793          	xori	a5,a5,-2
    51a4:	02a7e163          	bltu	a5,a0,51c6 <rt_timer_check+0xb2>
    51a8:	8b018793          	addi	a5,gp,-1872 # 20000270 <rt_timer_enter_hook>
    51ac:	439c                	lw	a5,0(a5)
    51ae:	c399                	beqz	a5,51b4 <rt_timer_check+0xa0>
    51b0:	854a                	mv	a0,s2
    51b2:	9782                	jalr	a5
    51b4:	4681                	li	a3,0
    51b6:	b74d                	j	5158 <rt_timer_check+0x44>
    51b8:	9bf9                	andi	a5,a5,-2
    51ba:	fef40aa3          	sb	a5,-11(s0)
    51be:	854a                	mv	a0,s2
    51c0:	dd5ff0ef          	jal	ra,4f94 <rt_timer_start>
    51c4:	b7d1                	j	5188 <rt_timer_check+0x74>
    51c6:	8526                	mv	a0,s1
    51c8:	c66fe0ef          	jal	ra,362e <rt_hw_interrupt_enable>
    51cc:	40f2                	lw	ra,28(sp)
    51ce:	4462                	lw	s0,24(sp)
    51d0:	44d2                	lw	s1,20(sp)
    51d2:	4942                	lw	s2,16(sp)
    51d4:	49b2                	lw	s3,12(sp)
    51d6:	6105                	addi	sp,sp,32
    51d8:	8082                	ret

000051da <rt_system_timer_init>:
    51da:	4701                	li	a4,0
    51dc:	c311                	beqz	a4,51e0 <rt_system_timer_init+0x6>
    51de:	8082                	ret
    51e0:	00371693          	slli	a3,a4,0x3
    51e4:	8b818793          	addi	a5,gp,-1864 # 20000278 <rt_timer_list>
    51e8:	97b6                	add	a5,a5,a3
    51ea:	c3dc                	sw	a5,4(a5)
    51ec:	c39c                	sw	a5,0(a5)
    51ee:	0705                	addi	a4,a4,1
    51f0:	b7f5                	j	51dc <rt_system_timer_init+0x2>

000051f2 <rt_system_timer_thread_init>:
    51f2:	8082                	ret

000051f4 <memcmp>:
    51f4:	4701                	li	a4,0
    51f6:	00e61463          	bne	a2,a4,51fe <memcmp+0xa>
    51fa:	4501                	li	a0,0
    51fc:	8082                	ret
    51fe:	00e507b3          	add	a5,a0,a4
    5202:	0705                	addi	a4,a4,1
    5204:	00e586b3          	add	a3,a1,a4
    5208:	0007c783          	lbu	a5,0(a5) # 80000000 <_eusrstack+0x5fff0000>
    520c:	fff6c683          	lbu	a3,-1(a3)
    5210:	fed783e3          	beq	a5,a3,51f6 <memcmp+0x2>
    5214:	40d78533          	sub	a0,a5,a3
    5218:	8082                	ret

0000521a <memcpy>:
    521a:	00a5c7b3          	xor	a5,a1,a0
    521e:	8b8d                	andi	a5,a5,3
    5220:	00c50733          	add	a4,a0,a2
    5224:	e781                	bnez	a5,522c <memcpy+0x12>
    5226:	478d                	li	a5,3
    5228:	00c7ee63          	bltu	a5,a2,5244 <memcpy+0x2a>
    522c:	87aa                	mv	a5,a0
    522e:	0ae57063          	bgeu	a0,a4,52ce <memcpy+0xb4>
    5232:	0005c683          	lbu	a3,0(a1)
    5236:	0785                	addi	a5,a5,1
    5238:	0585                	addi	a1,a1,1
    523a:	fed78fa3          	sb	a3,-1(a5)
    523e:	fee7eae3          	bltu	a5,a4,5232 <memcpy+0x18>
    5242:	8082                	ret
    5244:	00357693          	andi	a3,a0,3
    5248:	87aa                	mv	a5,a0
    524a:	ca91                	beqz	a3,525e <memcpy+0x44>
    524c:	0005c683          	lbu	a3,0(a1)
    5250:	0785                	addi	a5,a5,1
    5252:	0585                	addi	a1,a1,1
    5254:	fed78fa3          	sb	a3,-1(a5)
    5258:	0037f693          	andi	a3,a5,3
    525c:	b7fd                	j	524a <memcpy+0x30>
    525e:	ffc77693          	andi	a3,a4,-4
    5262:	fe068613          	addi	a2,a3,-32
    5266:	06c7f063          	bgeu	a5,a2,52c6 <memcpy+0xac>
    526a:	0005a383          	lw	t2,0(a1)
    526e:	0045a283          	lw	t0,4(a1)
    5272:	0085af83          	lw	t6,8(a1)
    5276:	00c5af03          	lw	t5,12(a1)
    527a:	0105ae83          	lw	t4,16(a1)
    527e:	0145ae03          	lw	t3,20(a1)
    5282:	0185a303          	lw	t1,24(a1)
    5286:	01c5a883          	lw	a7,28(a1)
    528a:	02458593          	addi	a1,a1,36
    528e:	0077a023          	sw	t2,0(a5)
    5292:	ffc5a803          	lw	a6,-4(a1)
    5296:	0057a223          	sw	t0,4(a5)
    529a:	01f7a423          	sw	t6,8(a5)
    529e:	01e7a623          	sw	t5,12(a5)
    52a2:	01d7a823          	sw	t4,16(a5)
    52a6:	01c7aa23          	sw	t3,20(a5)
    52aa:	0067ac23          	sw	t1,24(a5)
    52ae:	0117ae23          	sw	a7,28(a5)
    52b2:	02478793          	addi	a5,a5,36
    52b6:	ff07ae23          	sw	a6,-4(a5)
    52ba:	b775                	j	5266 <memcpy+0x4c>
    52bc:	4190                	lw	a2,0(a1)
    52be:	0791                	addi	a5,a5,4
    52c0:	0591                	addi	a1,a1,4
    52c2:	fec7ae23          	sw	a2,-4(a5)
    52c6:	fed7ebe3          	bltu	a5,a3,52bc <memcpy+0xa2>
    52ca:	f6e7e4e3          	bltu	a5,a4,5232 <memcpy+0x18>
    52ce:	8082                	ret

000052d0 <_free_r>:
    52d0:	c1cd                	beqz	a1,5372 <_free_r+0xa2>
    52d2:	ffc5a783          	lw	a5,-4(a1)
    52d6:	1141                	addi	sp,sp,-16
    52d8:	c422                	sw	s0,8(sp)
    52da:	c606                	sw	ra,12(sp)
    52dc:	c226                	sw	s1,4(sp)
    52de:	ffc58413          	addi	s0,a1,-4
    52e2:	0007d363          	bgez	a5,52e8 <_free_r+0x18>
    52e6:	943e                	add	s0,s0,a5
    52e8:	84aa                	mv	s1,a0
    52ea:	292d                	jal	5724 <__malloc_lock>
    52ec:	8c018793          	addi	a5,gp,-1856 # 20000280 <__malloc_free_list>
    52f0:	439c                	lw	a5,0(a5)
    52f2:	eb99                	bnez	a5,5308 <_free_r+0x38>
    52f4:	00042223          	sw	zero,4(s0)
    52f8:	8c81a023          	sw	s0,-1856(gp) # 20000280 <__malloc_free_list>
    52fc:	4422                	lw	s0,8(sp)
    52fe:	40b2                	lw	ra,12(sp)
    5300:	8526                	mv	a0,s1
    5302:	4492                	lw	s1,4(sp)
    5304:	0141                	addi	sp,sp,16
    5306:	a105                	j	5726 <__malloc_unlock>
    5308:	00f47e63          	bgeu	s0,a5,5324 <_free_r+0x54>
    530c:	4014                	lw	a3,0(s0)
    530e:	00d40733          	add	a4,s0,a3
    5312:	00e79663          	bne	a5,a4,531e <_free_r+0x4e>
    5316:	4398                	lw	a4,0(a5)
    5318:	43dc                	lw	a5,4(a5)
    531a:	9736                	add	a4,a4,a3
    531c:	c018                	sw	a4,0(s0)
    531e:	c05c                	sw	a5,4(s0)
    5320:	bfe1                	j	52f8 <_free_r+0x28>
    5322:	87ba                	mv	a5,a4
    5324:	43d8                	lw	a4,4(a5)
    5326:	c319                	beqz	a4,532c <_free_r+0x5c>
    5328:	fee47de3          	bgeu	s0,a4,5322 <_free_r+0x52>
    532c:	4394                	lw	a3,0(a5)
    532e:	00d78633          	add	a2,a5,a3
    5332:	00861f63          	bne	a2,s0,5350 <_free_r+0x80>
    5336:	4010                	lw	a2,0(s0)
    5338:	96b2                	add	a3,a3,a2
    533a:	c394                	sw	a3,0(a5)
    533c:	00d78633          	add	a2,a5,a3
    5340:	fac71ee3          	bne	a4,a2,52fc <_free_r+0x2c>
    5344:	4310                	lw	a2,0(a4)
    5346:	4358                	lw	a4,4(a4)
    5348:	96b2                	add	a3,a3,a2
    534a:	c394                	sw	a3,0(a5)
    534c:	c3d8                	sw	a4,4(a5)
    534e:	b77d                	j	52fc <_free_r+0x2c>
    5350:	00c47563          	bgeu	s0,a2,535a <_free_r+0x8a>
    5354:	47b1                	li	a5,12
    5356:	c09c                	sw	a5,0(s1)
    5358:	b755                	j	52fc <_free_r+0x2c>
    535a:	4010                	lw	a2,0(s0)
    535c:	00c406b3          	add	a3,s0,a2
    5360:	00d71663          	bne	a4,a3,536c <_free_r+0x9c>
    5364:	4314                	lw	a3,0(a4)
    5366:	4358                	lw	a4,4(a4)
    5368:	96b2                	add	a3,a3,a2
    536a:	c014                	sw	a3,0(s0)
    536c:	c058                	sw	a4,4(s0)
    536e:	c3c0                	sw	s0,4(a5)
    5370:	b771                	j	52fc <_free_r+0x2c>
    5372:	8082                	ret

00005374 <_malloc_r>:
    5374:	1101                	addi	sp,sp,-32
    5376:	ca26                	sw	s1,20(sp)
    5378:	00358493          	addi	s1,a1,3
    537c:	98f1                	andi	s1,s1,-4
    537e:	ce06                	sw	ra,28(sp)
    5380:	cc22                	sw	s0,24(sp)
    5382:	c84a                	sw	s2,16(sp)
    5384:	c64e                	sw	s3,12(sp)
    5386:	04a1                	addi	s1,s1,8
    5388:	47b1                	li	a5,12
    538a:	04f4f163          	bgeu	s1,a5,53cc <_malloc_r+0x58>
    538e:	44b1                	li	s1,12
    5390:	04b4e063          	bltu	s1,a1,53d0 <_malloc_r+0x5c>
    5394:	892a                	mv	s2,a0
    5396:	2679                	jal	5724 <__malloc_lock>
    5398:	8c018793          	addi	a5,gp,-1856 # 20000280 <__malloc_free_list>
    539c:	4398                	lw	a4,0(a5)
    539e:	843a                	mv	s0,a4
    53a0:	e031                	bnez	s0,53e4 <_malloc_r+0x70>
    53a2:	8c418793          	addi	a5,gp,-1852 # 20000284 <__malloc_sbrk_start>
    53a6:	439c                	lw	a5,0(a5)
    53a8:	e791                	bnez	a5,53b4 <_malloc_r+0x40>
    53aa:	4581                	li	a1,0
    53ac:	854a                	mv	a0,s2
    53ae:	28c9                	jal	5480 <_sbrk_r>
    53b0:	8ca1a223          	sw	a0,-1852(gp) # 20000284 <__malloc_sbrk_start>
    53b4:	85a6                	mv	a1,s1
    53b6:	854a                	mv	a0,s2
    53b8:	20e1                	jal	5480 <_sbrk_r>
    53ba:	59fd                	li	s3,-1
    53bc:	07351763          	bne	a0,s3,542a <_malloc_r+0xb6>
    53c0:	47b1                	li	a5,12
    53c2:	00f92023          	sw	a5,0(s2)
    53c6:	854a                	mv	a0,s2
    53c8:	2eb9                	jal	5726 <__malloc_unlock>
    53ca:	a029                	j	53d4 <_malloc_r+0x60>
    53cc:	fc04d2e3          	bgez	s1,5390 <_malloc_r+0x1c>
    53d0:	47b1                	li	a5,12
    53d2:	c11c                	sw	a5,0(a0)
    53d4:	4501                	li	a0,0
    53d6:	40f2                	lw	ra,28(sp)
    53d8:	4462                	lw	s0,24(sp)
    53da:	44d2                	lw	s1,20(sp)
    53dc:	4942                	lw	s2,16(sp)
    53de:	49b2                	lw	s3,12(sp)
    53e0:	6105                	addi	sp,sp,32
    53e2:	8082                	ret
    53e4:	401c                	lw	a5,0(s0)
    53e6:	8f85                	sub	a5,a5,s1
    53e8:	0207ce63          	bltz	a5,5424 <_malloc_r+0xb0>
    53ec:	46ad                	li	a3,11
    53ee:	00f6f663          	bgeu	a3,a5,53fa <_malloc_r+0x86>
    53f2:	c01c                	sw	a5,0(s0)
    53f4:	943e                	add	s0,s0,a5
    53f6:	c004                	sw	s1,0(s0)
    53f8:	a031                	j	5404 <_malloc_r+0x90>
    53fa:	405c                	lw	a5,4(s0)
    53fc:	02871263          	bne	a4,s0,5420 <_malloc_r+0xac>
    5400:	8cf1a023          	sw	a5,-1856(gp) # 20000280 <__malloc_free_list>
    5404:	854a                	mv	a0,s2
    5406:	2605                	jal	5726 <__malloc_unlock>
    5408:	00b40513          	addi	a0,s0,11
    540c:	00440793          	addi	a5,s0,4
    5410:	9961                	andi	a0,a0,-8
    5412:	40f50733          	sub	a4,a0,a5
    5416:	d361                	beqz	a4,53d6 <_malloc_r+0x62>
    5418:	943a                	add	s0,s0,a4
    541a:	8f89                	sub	a5,a5,a0
    541c:	c01c                	sw	a5,0(s0)
    541e:	bf65                	j	53d6 <_malloc_r+0x62>
    5420:	c35c                	sw	a5,4(a4)
    5422:	b7cd                	j	5404 <_malloc_r+0x90>
    5424:	8722                	mv	a4,s0
    5426:	4040                	lw	s0,4(s0)
    5428:	bfa5                	j	53a0 <_malloc_r+0x2c>
    542a:	00350413          	addi	s0,a0,3
    542e:	9871                	andi	s0,s0,-4
    5430:	fc8503e3          	beq	a0,s0,53f6 <_malloc_r+0x82>
    5434:	40a405b3          	sub	a1,s0,a0
    5438:	854a                	mv	a0,s2
    543a:	2099                	jal	5480 <_sbrk_r>
    543c:	fb351de3          	bne	a0,s3,53f6 <_malloc_r+0x82>
    5440:	b741                	j	53c0 <_malloc_r+0x4c>

00005442 <iprintf>:
    5442:	7139                	addi	sp,sp,-64
    5444:	da3e                	sw	a5,52(sp)
    5446:	d22e                	sw	a1,36(sp)
    5448:	d432                	sw	a2,40(sp)
    544a:	d636                	sw	a3,44(sp)
    544c:	d83a                	sw	a4,48(sp)
    544e:	dc42                	sw	a6,56(sp)
    5450:	de46                	sw	a7,60(sp)
    5452:	80c18793          	addi	a5,gp,-2036 # 200001cc <_impure_ptr>
    5456:	cc22                	sw	s0,24(sp)
    5458:	4380                	lw	s0,0(a5)
    545a:	ca26                	sw	s1,20(sp)
    545c:	ce06                	sw	ra,28(sp)
    545e:	84aa                	mv	s1,a0
    5460:	c409                	beqz	s0,546a <iprintf+0x28>
    5462:	4c1c                	lw	a5,24(s0)
    5464:	e399                	bnez	a5,546a <iprintf+0x28>
    5466:	8522                	mv	a0,s0
    5468:	2291                	jal	55ac <__sinit>
    546a:	440c                	lw	a1,8(s0)
    546c:	1054                	addi	a3,sp,36
    546e:	8626                	mv	a2,s1
    5470:	8522                	mv	a0,s0
    5472:	c636                	sw	a3,12(sp)
    5474:	2605                	jal	5794 <_vfiprintf_r>
    5476:	40f2                	lw	ra,28(sp)
    5478:	4462                	lw	s0,24(sp)
    547a:	44d2                	lw	s1,20(sp)
    547c:	6121                	addi	sp,sp,64
    547e:	8082                	ret

00005480 <_sbrk_r>:
    5480:	1141                	addi	sp,sp,-16
    5482:	c422                	sw	s0,8(sp)
    5484:	842a                	mv	s0,a0
    5486:	852e                	mv	a0,a1
    5488:	1fffc797          	auipc	a5,0x1fffc
    548c:	2e07a623          	sw	zero,748(a5) # 20001774 <errno>
    5490:	c606                	sw	ra,12(sp)
    5492:	882fb0ef          	jal	ra,514 <_sbrk>
    5496:	57fd                	li	a5,-1
    5498:	00f51963          	bne	a0,a5,54aa <_sbrk_r+0x2a>
    549c:	1fffc797          	auipc	a5,0x1fffc
    54a0:	2d878793          	addi	a5,a5,728 # 20001774 <errno>
    54a4:	439c                	lw	a5,0(a5)
    54a6:	c391                	beqz	a5,54aa <_sbrk_r+0x2a>
    54a8:	c01c                	sw	a5,0(s0)
    54aa:	40b2                	lw	ra,12(sp)
    54ac:	4422                	lw	s0,8(sp)
    54ae:	0141                	addi	sp,sp,16
    54b0:	8082                	ret

000054b2 <strlen>:
    54b2:	87aa                	mv	a5,a0
    54b4:	0785                	addi	a5,a5,1
    54b6:	fff7c703          	lbu	a4,-1(a5)
    54ba:	ff6d                	bnez	a4,54b4 <strlen+0x2>
    54bc:	40a78533          	sub	a0,a5,a0
    54c0:	157d                	addi	a0,a0,-1
    54c2:	8082                	ret

000054c4 <strncmp>:
    54c4:	c605                	beqz	a2,54ec <strncmp+0x28>
    54c6:	167d                	addi	a2,a2,-1
    54c8:	4701                	li	a4,0
    54ca:	00e507b3          	add	a5,a0,a4
    54ce:	00e586b3          	add	a3,a1,a4
    54d2:	0007c783          	lbu	a5,0(a5)
    54d6:	0006c683          	lbu	a3,0(a3)
    54da:	00d79663          	bne	a5,a3,54e6 <strncmp+0x22>
    54de:	00c70463          	beq	a4,a2,54e6 <strncmp+0x22>
    54e2:	0705                	addi	a4,a4,1
    54e4:	f3fd                	bnez	a5,54ca <strncmp+0x6>
    54e6:	40d78533          	sub	a0,a5,a3
    54ea:	8082                	ret
    54ec:	4501                	li	a0,0
    54ee:	8082                	ret

000054f0 <std>:
    54f0:	1141                	addi	sp,sp,-16
    54f2:	c422                	sw	s0,8(sp)
    54f4:	c606                	sw	ra,12(sp)
    54f6:	842a                	mv	s0,a0
    54f8:	00b51623          	sh	a1,12(a0)
    54fc:	00c51723          	sh	a2,14(a0)
    5500:	00052023          	sw	zero,0(a0)
    5504:	00052223          	sw	zero,4(a0)
    5508:	00052423          	sw	zero,8(a0)
    550c:	06052223          	sw	zero,100(a0)
    5510:	00052823          	sw	zero,16(a0)
    5514:	00052a23          	sw	zero,20(a0)
    5518:	00052c23          	sw	zero,24(a0)
    551c:	4621                	li	a2,8
    551e:	4581                	li	a1,0
    5520:	05c50513          	addi	a0,a0,92
    5524:	e4ffa0ef          	jal	ra,372 <memset>
    5528:	00001797          	auipc	a5,0x1
    552c:	8c478793          	addi	a5,a5,-1852 # 5dec <__sread>
    5530:	d05c                	sw	a5,36(s0)
    5532:	00001797          	auipc	a5,0x1
    5536:	8ea78793          	addi	a5,a5,-1814 # 5e1c <__swrite>
    553a:	d41c                	sw	a5,40(s0)
    553c:	00001797          	auipc	a5,0x1
    5540:	92e78793          	addi	a5,a5,-1746 # 5e6a <__sseek>
    5544:	d45c                	sw	a5,44(s0)
    5546:	00001797          	auipc	a5,0x1
    554a:	95a78793          	addi	a5,a5,-1702 # 5ea0 <__sclose>
    554e:	d000                	sw	s0,32(s0)
    5550:	d81c                	sw	a5,48(s0)
    5552:	40b2                	lw	ra,12(sp)
    5554:	4422                	lw	s0,8(sp)
    5556:	0141                	addi	sp,sp,16
    5558:	8082                	ret

0000555a <_cleanup_r>:
    555a:	00001597          	auipc	a1,0x1
    555e:	cc258593          	addi	a1,a1,-830 # 621c <_fflush_r>
    5562:	aa99                	j	56b8 <_fwalk_reent>

00005564 <__sfmoreglue>:
    5564:	1141                	addi	sp,sp,-16
    5566:	c226                	sw	s1,4(sp)
    5568:	06800613          	li	a2,104
    556c:	fff58493          	addi	s1,a1,-1
    5570:	02c484b3          	mul	s1,s1,a2
    5574:	c04a                	sw	s2,0(sp)
    5576:	892e                	mv	s2,a1
    5578:	c422                	sw	s0,8(sp)
    557a:	c606                	sw	ra,12(sp)
    557c:	07448593          	addi	a1,s1,116
    5580:	df5ff0ef          	jal	ra,5374 <_malloc_r>
    5584:	842a                	mv	s0,a0
    5586:	cd01                	beqz	a0,559e <__sfmoreglue+0x3a>
    5588:	00052023          	sw	zero,0(a0)
    558c:	01252223          	sw	s2,4(a0)
    5590:	0531                	addi	a0,a0,12
    5592:	c408                	sw	a0,8(s0)
    5594:	06848613          	addi	a2,s1,104
    5598:	4581                	li	a1,0
    559a:	dd9fa0ef          	jal	ra,372 <memset>
    559e:	8522                	mv	a0,s0
    55a0:	40b2                	lw	ra,12(sp)
    55a2:	4422                	lw	s0,8(sp)
    55a4:	4492                	lw	s1,4(sp)
    55a6:	4902                	lw	s2,0(sp)
    55a8:	0141                	addi	sp,sp,16
    55aa:	8082                	ret

000055ac <__sinit>:
    55ac:	4d1c                	lw	a5,24(a0)
    55ae:	e7a5                	bnez	a5,5616 <__sinit+0x6a>
    55b0:	1141                	addi	sp,sp,-16
    55b2:	c606                	sw	ra,12(sp)
    55b4:	c422                	sw	s0,8(sp)
    55b6:	00000797          	auipc	a5,0x0
    55ba:	fa478793          	addi	a5,a5,-92 # 555a <_cleanup_r>
    55be:	d51c                	sw	a5,40(a0)
    55c0:	81018793          	addi	a5,gp,-2032 # 200001d0 <_global_impure_ptr>
    55c4:	439c                	lw	a5,0(a5)
    55c6:	04052423          	sw	zero,72(a0)
    55ca:	04052623          	sw	zero,76(a0)
    55ce:	04052823          	sw	zero,80(a0)
    55d2:	00f51463          	bne	a0,a5,55da <__sinit+0x2e>
    55d6:	4785                	li	a5,1
    55d8:	cd1c                	sw	a5,24(a0)
    55da:	842a                	mv	s0,a0
    55dc:	2835                	jal	5618 <__sfp>
    55de:	c048                	sw	a0,4(s0)
    55e0:	8522                	mv	a0,s0
    55e2:	281d                	jal	5618 <__sfp>
    55e4:	c408                	sw	a0,8(s0)
    55e6:	8522                	mv	a0,s0
    55e8:	2805                	jal	5618 <__sfp>
    55ea:	c448                	sw	a0,12(s0)
    55ec:	4048                	lw	a0,4(s0)
    55ee:	4601                	li	a2,0
    55f0:	4591                	li	a1,4
    55f2:	effff0ef          	jal	ra,54f0 <std>
    55f6:	4408                	lw	a0,8(s0)
    55f8:	4605                	li	a2,1
    55fa:	45a5                	li	a1,9
    55fc:	ef5ff0ef          	jal	ra,54f0 <std>
    5600:	4448                	lw	a0,12(s0)
    5602:	4609                	li	a2,2
    5604:	45c9                	li	a1,18
    5606:	eebff0ef          	jal	ra,54f0 <std>
    560a:	4785                	li	a5,1
    560c:	cc1c                	sw	a5,24(s0)
    560e:	40b2                	lw	ra,12(sp)
    5610:	4422                	lw	s0,8(sp)
    5612:	0141                	addi	sp,sp,16
    5614:	8082                	ret
    5616:	8082                	ret

00005618 <__sfp>:
    5618:	1141                	addi	sp,sp,-16
    561a:	81018793          	addi	a5,gp,-2032 # 200001d0 <_global_impure_ptr>
    561e:	c226                	sw	s1,4(sp)
    5620:	4384                	lw	s1,0(a5)
    5622:	c04a                	sw	s2,0(sp)
    5624:	c606                	sw	ra,12(sp)
    5626:	4c9c                	lw	a5,24(s1)
    5628:	c422                	sw	s0,8(sp)
    562a:	892a                	mv	s2,a0
    562c:	e781                	bnez	a5,5634 <__sfp+0x1c>
    562e:	8526                	mv	a0,s1
    5630:	f7dff0ef          	jal	ra,55ac <__sinit>
    5634:	04848493          	addi	s1,s1,72
    5638:	4480                	lw	s0,8(s1)
    563a:	40dc                	lw	a5,4(s1)
    563c:	17fd                	addi	a5,a5,-1
    563e:	0007d663          	bgez	a5,564a <__sfp+0x32>
    5642:	409c                	lw	a5,0(s1)
    5644:	cfb9                	beqz	a5,56a2 <__sfp+0x8a>
    5646:	4084                	lw	s1,0(s1)
    5648:	bfc5                	j	5638 <__sfp+0x20>
    564a:	00c41703          	lh	a4,12(s0)
    564e:	e739                	bnez	a4,569c <__sfp+0x84>
    5650:	77c1                	lui	a5,0xffff0
    5652:	0785                	addi	a5,a5,1
    5654:	06042223          	sw	zero,100(s0)
    5658:	00042023          	sw	zero,0(s0)
    565c:	00042223          	sw	zero,4(s0)
    5660:	00042423          	sw	zero,8(s0)
    5664:	c45c                	sw	a5,12(s0)
    5666:	00042823          	sw	zero,16(s0)
    566a:	00042a23          	sw	zero,20(s0)
    566e:	00042c23          	sw	zero,24(s0)
    5672:	4621                	li	a2,8
    5674:	4581                	li	a1,0
    5676:	05c40513          	addi	a0,s0,92
    567a:	cf9fa0ef          	jal	ra,372 <memset>
    567e:	02042a23          	sw	zero,52(s0)
    5682:	02042c23          	sw	zero,56(s0)
    5686:	04042423          	sw	zero,72(s0)
    568a:	04042623          	sw	zero,76(s0)
    568e:	8522                	mv	a0,s0
    5690:	40b2                	lw	ra,12(sp)
    5692:	4422                	lw	s0,8(sp)
    5694:	4492                	lw	s1,4(sp)
    5696:	4902                	lw	s2,0(sp)
    5698:	0141                	addi	sp,sp,16
    569a:	8082                	ret
    569c:	06840413          	addi	s0,s0,104
    56a0:	bf71                	j	563c <__sfp+0x24>
    56a2:	4591                	li	a1,4
    56a4:	854a                	mv	a0,s2
    56a6:	ebfff0ef          	jal	ra,5564 <__sfmoreglue>
    56aa:	c088                	sw	a0,0(s1)
    56ac:	fd49                	bnez	a0,5646 <__sfp+0x2e>
    56ae:	47b1                	li	a5,12
    56b0:	00f92023          	sw	a5,0(s2)
    56b4:	4401                	li	s0,0
    56b6:	bfe1                	j	568e <__sfp+0x76>

000056b8 <_fwalk_reent>:
    56b8:	7179                	addi	sp,sp,-48
    56ba:	d422                	sw	s0,40(sp)
    56bc:	d04a                	sw	s2,32(sp)
    56be:	cc52                	sw	s4,24(sp)
    56c0:	ca56                	sw	s5,20(sp)
    56c2:	c85a                	sw	s6,16(sp)
    56c4:	c65e                	sw	s7,12(sp)
    56c6:	d606                	sw	ra,44(sp)
    56c8:	d226                	sw	s1,36(sp)
    56ca:	ce4e                	sw	s3,28(sp)
    56cc:	8a2a                	mv	s4,a0
    56ce:	8aae                	mv	s5,a1
    56d0:	04850413          	addi	s0,a0,72
    56d4:	4901                	li	s2,0
    56d6:	4b05                	li	s6,1
    56d8:	5bfd                	li	s7,-1
    56da:	ec09                	bnez	s0,56f4 <_fwalk_reent+0x3c>
    56dc:	50b2                	lw	ra,44(sp)
    56de:	5422                	lw	s0,40(sp)
    56e0:	854a                	mv	a0,s2
    56e2:	5492                	lw	s1,36(sp)
    56e4:	5902                	lw	s2,32(sp)
    56e6:	49f2                	lw	s3,28(sp)
    56e8:	4a62                	lw	s4,24(sp)
    56ea:	4ad2                	lw	s5,20(sp)
    56ec:	4b42                	lw	s6,16(sp)
    56ee:	4bb2                	lw	s7,12(sp)
    56f0:	6145                	addi	sp,sp,48
    56f2:	8082                	ret
    56f4:	4404                	lw	s1,8(s0)
    56f6:	00442983          	lw	s3,4(s0)
    56fa:	19fd                	addi	s3,s3,-1
    56fc:	0009d463          	bgez	s3,5704 <_fwalk_reent+0x4c>
    5700:	4000                	lw	s0,0(s0)
    5702:	bfe1                	j	56da <_fwalk_reent+0x22>
    5704:	00c4d783          	lhu	a5,12(s1)
    5708:	00fb7b63          	bgeu	s6,a5,571e <_fwalk_reent+0x66>
    570c:	00e49783          	lh	a5,14(s1)
    5710:	01778763          	beq	a5,s7,571e <_fwalk_reent+0x66>
    5714:	85a6                	mv	a1,s1
    5716:	8552                	mv	a0,s4
    5718:	9a82                	jalr	s5
    571a:	00a96933          	or	s2,s2,a0
    571e:	06848493          	addi	s1,s1,104
    5722:	bfe1                	j	56fa <_fwalk_reent+0x42>

00005724 <__malloc_lock>:
    5724:	8082                	ret

00005726 <__malloc_unlock>:
    5726:	8082                	ret

00005728 <__sfputc_r>:
    5728:	461c                	lw	a5,8(a2)
    572a:	17fd                	addi	a5,a5,-1
    572c:	c61c                	sw	a5,8(a2)
    572e:	0007d963          	bgez	a5,5740 <__sfputc_r+0x18>
    5732:	4e18                	lw	a4,24(a2)
    5734:	00e7c563          	blt	a5,a4,573e <__sfputc_r+0x16>
    5738:	47a9                	li	a5,10
    573a:	00f59363          	bne	a1,a5,5740 <__sfputc_r+0x18>
    573e:	a7a5                	j	5ea6 <__swbuf_r>
    5740:	421c                	lw	a5,0(a2)
    5742:	852e                	mv	a0,a1
    5744:	00178713          	addi	a4,a5,1 # ffff0001 <_eusrstack+0xdffe0001>
    5748:	c218                	sw	a4,0(a2)
    574a:	00b78023          	sb	a1,0(a5)
    574e:	8082                	ret

00005750 <__sfputs_r>:
    5750:	1101                	addi	sp,sp,-32
    5752:	cc22                	sw	s0,24(sp)
    5754:	ca26                	sw	s1,20(sp)
    5756:	c84a                	sw	s2,16(sp)
    5758:	c64e                	sw	s3,12(sp)
    575a:	c452                	sw	s4,8(sp)
    575c:	ce06                	sw	ra,28(sp)
    575e:	892a                	mv	s2,a0
    5760:	89ae                	mv	s3,a1
    5762:	8432                	mv	s0,a2
    5764:	00d604b3          	add	s1,a2,a3
    5768:	5a7d                	li	s4,-1
    576a:	00941463          	bne	s0,s1,5772 <__sfputs_r+0x22>
    576e:	4501                	li	a0,0
    5770:	a811                	j	5784 <__sfputs_r+0x34>
    5772:	00044583          	lbu	a1,0(s0)
    5776:	864e                	mv	a2,s3
    5778:	854a                	mv	a0,s2
    577a:	fafff0ef          	jal	ra,5728 <__sfputc_r>
    577e:	0405                	addi	s0,s0,1
    5780:	ff4515e3          	bne	a0,s4,576a <__sfputs_r+0x1a>
    5784:	40f2                	lw	ra,28(sp)
    5786:	4462                	lw	s0,24(sp)
    5788:	44d2                	lw	s1,20(sp)
    578a:	4942                	lw	s2,16(sp)
    578c:	49b2                	lw	s3,12(sp)
    578e:	4a22                	lw	s4,8(sp)
    5790:	6105                	addi	sp,sp,32
    5792:	8082                	ret

00005794 <_vfiprintf_r>:
    5794:	7135                	addi	sp,sp,-160
    5796:	cd22                	sw	s0,152(sp)
    5798:	cb26                	sw	s1,148(sp)
    579a:	c94a                	sw	s2,144(sp)
    579c:	c74e                	sw	s3,140(sp)
    579e:	cf06                	sw	ra,156(sp)
    57a0:	c552                	sw	s4,136(sp)
    57a2:	c356                	sw	s5,132(sp)
    57a4:	c15a                	sw	s6,128(sp)
    57a6:	dede                	sw	s7,124(sp)
    57a8:	dce2                	sw	s8,120(sp)
    57aa:	dae6                	sw	s9,116(sp)
    57ac:	89aa                	mv	s3,a0
    57ae:	84ae                	mv	s1,a1
    57b0:	8932                	mv	s2,a2
    57b2:	8436                	mv	s0,a3
    57b4:	c509                	beqz	a0,57be <_vfiprintf_r+0x2a>
    57b6:	4d1c                	lw	a5,24(a0)
    57b8:	e399                	bnez	a5,57be <_vfiprintf_r+0x2a>
    57ba:	df3ff0ef          	jal	ra,55ac <__sinit>
    57be:	00002797          	auipc	a5,0x2
    57c2:	3d278793          	addi	a5,a5,978 # 7b90 <__sf_fake_stdin>
    57c6:	0cf49d63          	bne	s1,a5,58a0 <_vfiprintf_r+0x10c>
    57ca:	0049a483          	lw	s1,4(s3)
    57ce:	00c4d783          	lhu	a5,12(s1)
    57d2:	8ba1                	andi	a5,a5,8
    57d4:	cbe5                	beqz	a5,58c4 <_vfiprintf_r+0x130>
    57d6:	489c                	lw	a5,16(s1)
    57d8:	c7f5                	beqz	a5,58c4 <_vfiprintf_r+0x130>
    57da:	02000793          	li	a5,32
    57de:	02f104a3          	sb	a5,41(sp)
    57e2:	03000793          	li	a5,48
    57e6:	d202                	sw	zero,36(sp)
    57e8:	02f10523          	sb	a5,42(sp)
    57ec:	c622                	sw	s0,12(sp)
    57ee:	02500b93          	li	s7,37
    57f2:	00002a97          	auipc	s5,0x2
    57f6:	3dea8a93          	addi	s5,s5,990 # 7bd0 <__sf_fake_stdout+0x20>
    57fa:	4c05                	li	s8,1
    57fc:	4b29                	li	s6,10
    57fe:	844a                	mv	s0,s2
    5800:	00044783          	lbu	a5,0(s0)
    5804:	c399                	beqz	a5,580a <_vfiprintf_r+0x76>
    5806:	0f779163          	bne	a5,s7,58e8 <_vfiprintf_r+0x154>
    580a:	41240cb3          	sub	s9,s0,s2
    580e:	000c8e63          	beqz	s9,582a <_vfiprintf_r+0x96>
    5812:	86e6                	mv	a3,s9
    5814:	864a                	mv	a2,s2
    5816:	85a6                	mv	a1,s1
    5818:	854e                	mv	a0,s3
    581a:	f37ff0ef          	jal	ra,5750 <__sfputs_r>
    581e:	57fd                	li	a5,-1
    5820:	1ef50863          	beq	a0,a5,5a10 <_vfiprintf_r+0x27c>
    5824:	5692                	lw	a3,36(sp)
    5826:	96e6                	add	a3,a3,s9
    5828:	d236                	sw	a3,36(sp)
    582a:	00044783          	lbu	a5,0(s0)
    582e:	1e078163          	beqz	a5,5a10 <_vfiprintf_r+0x27c>
    5832:	57fd                	li	a5,-1
    5834:	00140913          	addi	s2,s0,1
    5838:	c802                	sw	zero,16(sp)
    583a:	ce02                	sw	zero,28(sp)
    583c:	ca3e                	sw	a5,20(sp)
    583e:	cc02                	sw	zero,24(sp)
    5840:	040109a3          	sb	zero,83(sp)
    5844:	d482                	sw	zero,104(sp)
    5846:	00094583          	lbu	a1,0(s2)
    584a:	4615                	li	a2,5
    584c:	8556                	mv	a0,s5
    584e:	363000ef          	jal	ra,63b0 <memchr>
    5852:	00190413          	addi	s0,s2,1
    5856:	47c2                	lw	a5,16(sp)
    5858:	e951                	bnez	a0,58ec <_vfiprintf_r+0x158>
    585a:	0107f713          	andi	a4,a5,16
    585e:	c709                	beqz	a4,5868 <_vfiprintf_r+0xd4>
    5860:	02000713          	li	a4,32
    5864:	04e109a3          	sb	a4,83(sp)
    5868:	0087f713          	andi	a4,a5,8
    586c:	c709                	beqz	a4,5876 <_vfiprintf_r+0xe2>
    586e:	02b00713          	li	a4,43
    5872:	04e109a3          	sb	a4,83(sp)
    5876:	00094683          	lbu	a3,0(s2)
    587a:	02a00713          	li	a4,42
    587e:	06e68f63          	beq	a3,a4,58fc <_vfiprintf_r+0x168>
    5882:	47f2                	lw	a5,28(sp)
    5884:	844a                	mv	s0,s2
    5886:	4681                	li	a3,0
    5888:	4625                	li	a2,9
    588a:	00044703          	lbu	a4,0(s0)
    588e:	00140593          	addi	a1,s0,1
    5892:	fd070713          	addi	a4,a4,-48
    5896:	0ae67863          	bgeu	a2,a4,5946 <_vfiprintf_r+0x1b2>
    589a:	caad                	beqz	a3,590c <_vfiprintf_r+0x178>
    589c:	ce3e                	sw	a5,28(sp)
    589e:	a0bd                	j	590c <_vfiprintf_r+0x178>
    58a0:	00002797          	auipc	a5,0x2
    58a4:	31078793          	addi	a5,a5,784 # 7bb0 <__sf_fake_stdout>
    58a8:	00f49563          	bne	s1,a5,58b2 <_vfiprintf_r+0x11e>
    58ac:	0089a483          	lw	s1,8(s3)
    58b0:	bf39                	j	57ce <_vfiprintf_r+0x3a>
    58b2:	00002797          	auipc	a5,0x2
    58b6:	2be78793          	addi	a5,a5,702 # 7b70 <__sf_fake_stderr>
    58ba:	f0f49ae3          	bne	s1,a5,57ce <_vfiprintf_r+0x3a>
    58be:	00c9a483          	lw	s1,12(s3)
    58c2:	b731                	j	57ce <_vfiprintf_r+0x3a>
    58c4:	85a6                	mv	a1,s1
    58c6:	854e                	mv	a0,s3
    58c8:	2dd9                	jal	5f9e <__swsetup_r>
    58ca:	d901                	beqz	a0,57da <_vfiprintf_r+0x46>
    58cc:	557d                	li	a0,-1
    58ce:	40fa                	lw	ra,156(sp)
    58d0:	446a                	lw	s0,152(sp)
    58d2:	44da                	lw	s1,148(sp)
    58d4:	494a                	lw	s2,144(sp)
    58d6:	49ba                	lw	s3,140(sp)
    58d8:	4a2a                	lw	s4,136(sp)
    58da:	4a9a                	lw	s5,132(sp)
    58dc:	4b0a                	lw	s6,128(sp)
    58de:	5bf6                	lw	s7,124(sp)
    58e0:	5c66                	lw	s8,120(sp)
    58e2:	5cd6                	lw	s9,116(sp)
    58e4:	610d                	addi	sp,sp,160
    58e6:	8082                	ret
    58e8:	0405                	addi	s0,s0,1
    58ea:	bf19                	j	5800 <_vfiprintf_r+0x6c>
    58ec:	41550533          	sub	a0,a0,s5
    58f0:	00ac1533          	sll	a0,s8,a0
    58f4:	8fc9                	or	a5,a5,a0
    58f6:	c83e                	sw	a5,16(sp)
    58f8:	8922                	mv	s2,s0
    58fa:	b7b1                	j	5846 <_vfiprintf_r+0xb2>
    58fc:	4732                	lw	a4,12(sp)
    58fe:	00470693          	addi	a3,a4,4
    5902:	4318                	lw	a4,0(a4)
    5904:	c636                	sw	a3,12(sp)
    5906:	02074963          	bltz	a4,5938 <_vfiprintf_r+0x1a4>
    590a:	ce3a                	sw	a4,28(sp)
    590c:	00044703          	lbu	a4,0(s0)
    5910:	02e00793          	li	a5,46
    5914:	04f71f63          	bne	a4,a5,5972 <_vfiprintf_r+0x1de>
    5918:	00144703          	lbu	a4,1(s0)
    591c:	02a00793          	li	a5,42
    5920:	02f71b63          	bne	a4,a5,5956 <_vfiprintf_r+0x1c2>
    5924:	47b2                	lw	a5,12(sp)
    5926:	0409                	addi	s0,s0,2
    5928:	00478713          	addi	a4,a5,4
    592c:	439c                	lw	a5,0(a5)
    592e:	c63a                	sw	a4,12(sp)
    5930:	0207c163          	bltz	a5,5952 <_vfiprintf_r+0x1be>
    5934:	ca3e                	sw	a5,20(sp)
    5936:	a835                	j	5972 <_vfiprintf_r+0x1de>
    5938:	40e00733          	neg	a4,a4
    593c:	0027e793          	ori	a5,a5,2
    5940:	ce3a                	sw	a4,28(sp)
    5942:	c83e                	sw	a5,16(sp)
    5944:	b7e1                	j	590c <_vfiprintf_r+0x178>
    5946:	036787b3          	mul	a5,a5,s6
    594a:	4685                	li	a3,1
    594c:	842e                	mv	s0,a1
    594e:	97ba                	add	a5,a5,a4
    5950:	bf2d                	j	588a <_vfiprintf_r+0xf6>
    5952:	57fd                	li	a5,-1
    5954:	b7c5                	j	5934 <_vfiprintf_r+0x1a0>
    5956:	0405                	addi	s0,s0,1
    5958:	ca02                	sw	zero,20(sp)
    595a:	4681                	li	a3,0
    595c:	4781                	li	a5,0
    595e:	4625                	li	a2,9
    5960:	00044703          	lbu	a4,0(s0)
    5964:	00140593          	addi	a1,s0,1
    5968:	fd070713          	addi	a4,a4,-48
    596c:	06e67863          	bgeu	a2,a4,59dc <_vfiprintf_r+0x248>
    5970:	f2f1                	bnez	a3,5934 <_vfiprintf_r+0x1a0>
    5972:	00044583          	lbu	a1,0(s0)
    5976:	460d                	li	a2,3
    5978:	00002517          	auipc	a0,0x2
    597c:	26050513          	addi	a0,a0,608 # 7bd8 <__sf_fake_stdout+0x28>
    5980:	231000ef          	jal	ra,63b0 <memchr>
    5984:	cd11                	beqz	a0,59a0 <_vfiprintf_r+0x20c>
    5986:	00002797          	auipc	a5,0x2
    598a:	25278793          	addi	a5,a5,594 # 7bd8 <__sf_fake_stdout+0x28>
    598e:	8d1d                	sub	a0,a0,a5
    5990:	04000793          	li	a5,64
    5994:	00a797b3          	sll	a5,a5,a0
    5998:	4542                	lw	a0,16(sp)
    599a:	0405                	addi	s0,s0,1
    599c:	8d5d                	or	a0,a0,a5
    599e:	c82a                	sw	a0,16(sp)
    59a0:	00044583          	lbu	a1,0(s0)
    59a4:	4619                	li	a2,6
    59a6:	00002517          	auipc	a0,0x2
    59aa:	23650513          	addi	a0,a0,566 # 7bdc <__sf_fake_stdout+0x2c>
    59ae:	00140913          	addi	s2,s0,1
    59b2:	02b10423          	sb	a1,40(sp)
    59b6:	1fb000ef          	jal	ra,63b0 <memchr>
    59ba:	c13d                	beqz	a0,5a20 <_vfiprintf_r+0x28c>
    59bc:	ffffa797          	auipc	a5,0xffffa
    59c0:	64478793          	addi	a5,a5,1604 # 0 <_sinit>
    59c4:	e795                	bnez	a5,59f0 <_vfiprintf_r+0x25c>
    59c6:	4742                	lw	a4,16(sp)
    59c8:	47b2                	lw	a5,12(sp)
    59ca:	10077713          	andi	a4,a4,256
    59ce:	cf09                	beqz	a4,59e8 <_vfiprintf_r+0x254>
    59d0:	0791                	addi	a5,a5,4
    59d2:	c63e                	sw	a5,12(sp)
    59d4:	5792                	lw	a5,36(sp)
    59d6:	97d2                	add	a5,a5,s4
    59d8:	d23e                	sw	a5,36(sp)
    59da:	b515                	j	57fe <_vfiprintf_r+0x6a>
    59dc:	036787b3          	mul	a5,a5,s6
    59e0:	4685                	li	a3,1
    59e2:	842e                	mv	s0,a1
    59e4:	97ba                	add	a5,a5,a4
    59e6:	bfad                	j	5960 <_vfiprintf_r+0x1cc>
    59e8:	079d                	addi	a5,a5,7
    59ea:	9be1                	andi	a5,a5,-8
    59ec:	07a1                	addi	a5,a5,8
    59ee:	b7d5                	j	59d2 <_vfiprintf_r+0x23e>
    59f0:	0078                	addi	a4,sp,12
    59f2:	00000697          	auipc	a3,0x0
    59f6:	d5e68693          	addi	a3,a3,-674 # 5750 <__sfputs_r>
    59fa:	8626                	mv	a2,s1
    59fc:	080c                	addi	a1,sp,16
    59fe:	854e                	mv	a0,s3
    5a00:	00000097          	auipc	ra,0x0
    5a04:	000000e7          	jalr	zero # 0 <_sinit>
    5a08:	57fd                	li	a5,-1
    5a0a:	8a2a                	mv	s4,a0
    5a0c:	fcf514e3          	bne	a0,a5,59d4 <_vfiprintf_r+0x240>
    5a10:	00c4d783          	lhu	a5,12(s1)
    5a14:	0407f793          	andi	a5,a5,64
    5a18:	ea079ae3          	bnez	a5,58cc <_vfiprintf_r+0x138>
    5a1c:	5512                	lw	a0,36(sp)
    5a1e:	bd45                	j	58ce <_vfiprintf_r+0x13a>
    5a20:	0078                	addi	a4,sp,12
    5a22:	00000697          	auipc	a3,0x0
    5a26:	d2e68693          	addi	a3,a3,-722 # 5750 <__sfputs_r>
    5a2a:	8626                	mv	a2,s1
    5a2c:	080c                	addi	a1,sp,16
    5a2e:	854e                	mv	a0,s3
    5a30:	2a01                	jal	5b40 <_printf_i>
    5a32:	bfd9                	j	5a08 <_vfiprintf_r+0x274>

00005a34 <_printf_common>:
    5a34:	7179                	addi	sp,sp,-48
    5a36:	ca56                	sw	s5,20(sp)
    5a38:	499c                	lw	a5,16(a1)
    5a3a:	8aba                	mv	s5,a4
    5a3c:	4598                	lw	a4,8(a1)
    5a3e:	d422                	sw	s0,40(sp)
    5a40:	d226                	sw	s1,36(sp)
    5a42:	ce4e                	sw	s3,28(sp)
    5a44:	cc52                	sw	s4,24(sp)
    5a46:	d606                	sw	ra,44(sp)
    5a48:	d04a                	sw	s2,32(sp)
    5a4a:	c85a                	sw	s6,16(sp)
    5a4c:	c65e                	sw	s7,12(sp)
    5a4e:	89aa                	mv	s3,a0
    5a50:	842e                	mv	s0,a1
    5a52:	84b2                	mv	s1,a2
    5a54:	8a36                	mv	s4,a3
    5a56:	00e7d363          	bge	a5,a4,5a5c <_printf_common+0x28>
    5a5a:	87ba                	mv	a5,a4
    5a5c:	c09c                	sw	a5,0(s1)
    5a5e:	04344703          	lbu	a4,67(s0)
    5a62:	c319                	beqz	a4,5a68 <_printf_common+0x34>
    5a64:	0785                	addi	a5,a5,1
    5a66:	c09c                	sw	a5,0(s1)
    5a68:	401c                	lw	a5,0(s0)
    5a6a:	0207f793          	andi	a5,a5,32
    5a6e:	c781                	beqz	a5,5a76 <_printf_common+0x42>
    5a70:	409c                	lw	a5,0(s1)
    5a72:	0789                	addi	a5,a5,2
    5a74:	c09c                	sw	a5,0(s1)
    5a76:	00042903          	lw	s2,0(s0)
    5a7a:	00697913          	andi	s2,s2,6
    5a7e:	00091a63          	bnez	s2,5a92 <_printf_common+0x5e>
    5a82:	01940b13          	addi	s6,s0,25
    5a86:	5bfd                	li	s7,-1
    5a88:	445c                	lw	a5,12(s0)
    5a8a:	4098                	lw	a4,0(s1)
    5a8c:	8f99                	sub	a5,a5,a4
    5a8e:	04f94c63          	blt	s2,a5,5ae6 <_printf_common+0xb2>
    5a92:	401c                	lw	a5,0(s0)
    5a94:	04344683          	lbu	a3,67(s0)
    5a98:	0207f793          	andi	a5,a5,32
    5a9c:	00d036b3          	snez	a3,a3
    5aa0:	eba5                	bnez	a5,5b10 <_printf_common+0xdc>
    5aa2:	04340613          	addi	a2,s0,67
    5aa6:	85d2                	mv	a1,s4
    5aa8:	854e                	mv	a0,s3
    5aaa:	9a82                	jalr	s5
    5aac:	57fd                	li	a5,-1
    5aae:	04f50363          	beq	a0,a5,5af4 <_printf_common+0xc0>
    5ab2:	401c                	lw	a5,0(s0)
    5ab4:	4611                	li	a2,4
    5ab6:	4098                	lw	a4,0(s1)
    5ab8:	8b99                	andi	a5,a5,6
    5aba:	4454                	lw	a3,12(s0)
    5abc:	4481                	li	s1,0
    5abe:	00c79763          	bne	a5,a2,5acc <_printf_common+0x98>
    5ac2:	40e684b3          	sub	s1,a3,a4
    5ac6:	0004d363          	bgez	s1,5acc <_printf_common+0x98>
    5aca:	4481                	li	s1,0
    5acc:	441c                	lw	a5,8(s0)
    5ace:	4818                	lw	a4,16(s0)
    5ad0:	00f75463          	bge	a4,a5,5ad8 <_printf_common+0xa4>
    5ad4:	8f99                	sub	a5,a5,a4
    5ad6:	94be                	add	s1,s1,a5
    5ad8:	4901                	li	s2,0
    5ada:	0469                	addi	s0,s0,26
    5adc:	5b7d                	li	s6,-1
    5ade:	05249863          	bne	s1,s2,5b2e <_printf_common+0xfa>
    5ae2:	4501                	li	a0,0
    5ae4:	a809                	j	5af6 <_printf_common+0xc2>
    5ae6:	4685                	li	a3,1
    5ae8:	865a                	mv	a2,s6
    5aea:	85d2                	mv	a1,s4
    5aec:	854e                	mv	a0,s3
    5aee:	9a82                	jalr	s5
    5af0:	01751e63          	bne	a0,s7,5b0c <_printf_common+0xd8>
    5af4:	557d                	li	a0,-1
    5af6:	50b2                	lw	ra,44(sp)
    5af8:	5422                	lw	s0,40(sp)
    5afa:	5492                	lw	s1,36(sp)
    5afc:	5902                	lw	s2,32(sp)
    5afe:	49f2                	lw	s3,28(sp)
    5b00:	4a62                	lw	s4,24(sp)
    5b02:	4ad2                	lw	s5,20(sp)
    5b04:	4b42                	lw	s6,16(sp)
    5b06:	4bb2                	lw	s7,12(sp)
    5b08:	6145                	addi	sp,sp,48
    5b0a:	8082                	ret
    5b0c:	0905                	addi	s2,s2,1
    5b0e:	bfad                	j	5a88 <_printf_common+0x54>
    5b10:	00d40733          	add	a4,s0,a3
    5b14:	03000613          	li	a2,48
    5b18:	04c701a3          	sb	a2,67(a4)
    5b1c:	04544703          	lbu	a4,69(s0)
    5b20:	00168793          	addi	a5,a3,1
    5b24:	97a2                	add	a5,a5,s0
    5b26:	0689                	addi	a3,a3,2
    5b28:	04e781a3          	sb	a4,67(a5)
    5b2c:	bf9d                	j	5aa2 <_printf_common+0x6e>
    5b2e:	4685                	li	a3,1
    5b30:	8622                	mv	a2,s0
    5b32:	85d2                	mv	a1,s4
    5b34:	854e                	mv	a0,s3
    5b36:	9a82                	jalr	s5
    5b38:	fb650ee3          	beq	a0,s6,5af4 <_printf_common+0xc0>
    5b3c:	0905                	addi	s2,s2,1
    5b3e:	b745                	j	5ade <_printf_common+0xaa>

00005b40 <_printf_i>:
    5b40:	7179                	addi	sp,sp,-48
    5b42:	d422                	sw	s0,40(sp)
    5b44:	d226                	sw	s1,36(sp)
    5b46:	d04a                	sw	s2,32(sp)
    5b48:	ce4e                	sw	s3,28(sp)
    5b4a:	d606                	sw	ra,44(sp)
    5b4c:	cc52                	sw	s4,24(sp)
    5b4e:	ca56                	sw	s5,20(sp)
    5b50:	c85a                	sw	s6,16(sp)
    5b52:	89b6                	mv	s3,a3
    5b54:	0185c683          	lbu	a3,24(a1)
    5b58:	06900793          	li	a5,105
    5b5c:	8932                	mv	s2,a2
    5b5e:	84aa                	mv	s1,a0
    5b60:	842e                	mv	s0,a1
    5b62:	04358613          	addi	a2,a1,67
    5b66:	02f68d63          	beq	a3,a5,5ba0 <_printf_i+0x60>
    5b6a:	06d7e263          	bltu	a5,a3,5bce <_printf_i+0x8e>
    5b6e:	05800793          	li	a5,88
    5b72:	18f68963          	beq	a3,a5,5d04 <_printf_i+0x1c4>
    5b76:	00d7ed63          	bltu	a5,a3,5b90 <_printf_i+0x50>
    5b7a:	22068263          	beqz	a3,5d9e <_printf_i+0x25e>
    5b7e:	04300793          	li	a5,67
    5b82:	0af68f63          	beq	a3,a5,5c40 <_printf_i+0x100>
    5b86:	04240a93          	addi	s5,s0,66
    5b8a:	04d40123          	sb	a3,66(s0)
    5b8e:	a0d1                	j	5c52 <_printf_i+0x112>
    5b90:	06300793          	li	a5,99
    5b94:	0af68663          	beq	a3,a5,5c40 <_printf_i+0x100>
    5b98:	06400793          	li	a5,100
    5b9c:	fef695e3          	bne	a3,a5,5b86 <_printf_i+0x46>
    5ba0:	401c                	lw	a5,0(s0)
    5ba2:	4308                	lw	a0,0(a4)
    5ba4:	0807f693          	andi	a3,a5,128
    5ba8:	00450593          	addi	a1,a0,4
    5bac:	c6cd                	beqz	a3,5c56 <_printf_i+0x116>
    5bae:	411c                	lw	a5,0(a0)
    5bb0:	c30c                	sw	a1,0(a4)
    5bb2:	0007d863          	bgez	a5,5bc2 <_printf_i+0x82>
    5bb6:	02d00713          	li	a4,45
    5bba:	40f007b3          	neg	a5,a5
    5bbe:	04e401a3          	sb	a4,67(s0)
    5bc2:	00002697          	auipc	a3,0x2
    5bc6:	02268693          	addi	a3,a3,34 # 7be4 <__sf_fake_stdout+0x34>
    5bca:	4729                	li	a4,10
    5bcc:	a875                	j	5c88 <_printf_i+0x148>
    5bce:	07000793          	li	a5,112
    5bd2:	16f68563          	beq	a3,a5,5d3c <_printf_i+0x1fc>
    5bd6:	02d7e563          	bltu	a5,a3,5c00 <_printf_i+0xc0>
    5bda:	06e00793          	li	a5,110
    5bde:	18f68c63          	beq	a3,a5,5d76 <_printf_i+0x236>
    5be2:	06f00793          	li	a5,111
    5be6:	faf690e3          	bne	a3,a5,5b86 <_printf_i+0x46>
    5bea:	400c                	lw	a1,0(s0)
    5bec:	431c                	lw	a5,0(a4)
    5bee:	0805f813          	andi	a6,a1,128
    5bf2:	00478513          	addi	a0,a5,4
    5bf6:	06080863          	beqz	a6,5c66 <_printf_i+0x126>
    5bfa:	c308                	sw	a0,0(a4)
    5bfc:	439c                	lw	a5,0(a5)
    5bfe:	a895                	j	5c72 <_printf_i+0x132>
    5c00:	07500793          	li	a5,117
    5c04:	fef683e3          	beq	a3,a5,5bea <_printf_i+0xaa>
    5c08:	07800793          	li	a5,120
    5c0c:	12f68c63          	beq	a3,a5,5d44 <_printf_i+0x204>
    5c10:	07300793          	li	a5,115
    5c14:	f6f699e3          	bne	a3,a5,5b86 <_printf_i+0x46>
    5c18:	431c                	lw	a5,0(a4)
    5c1a:	41d0                	lw	a2,4(a1)
    5c1c:	4581                	li	a1,0
    5c1e:	00478693          	addi	a3,a5,4
    5c22:	c314                	sw	a3,0(a4)
    5c24:	0007aa83          	lw	s5,0(a5)
    5c28:	8556                	mv	a0,s5
    5c2a:	786000ef          	jal	ra,63b0 <memchr>
    5c2e:	c501                	beqz	a0,5c36 <_printf_i+0xf6>
    5c30:	41550533          	sub	a0,a0,s5
    5c34:	c048                	sw	a0,4(s0)
    5c36:	405c                	lw	a5,4(s0)
    5c38:	c81c                	sw	a5,16(s0)
    5c3a:	040401a3          	sb	zero,67(s0)
    5c3e:	a871                	j	5cda <_printf_i+0x19a>
    5c40:	431c                	lw	a5,0(a4)
    5c42:	04240a93          	addi	s5,s0,66
    5c46:	00478693          	addi	a3,a5,4
    5c4a:	439c                	lw	a5,0(a5)
    5c4c:	c314                	sw	a3,0(a4)
    5c4e:	04f40123          	sb	a5,66(s0)
    5c52:	4785                	li	a5,1
    5c54:	b7d5                	j	5c38 <_printf_i+0xf8>
    5c56:	0407f693          	andi	a3,a5,64
    5c5a:	411c                	lw	a5,0(a0)
    5c5c:	c30c                	sw	a1,0(a4)
    5c5e:	dab1                	beqz	a3,5bb2 <_printf_i+0x72>
    5c60:	07c2                	slli	a5,a5,0x10
    5c62:	87c1                	srai	a5,a5,0x10
    5c64:	b7b9                	j	5bb2 <_printf_i+0x72>
    5c66:	0405f593          	andi	a1,a1,64
    5c6a:	c308                	sw	a0,0(a4)
    5c6c:	d9c1                	beqz	a1,5bfc <_printf_i+0xbc>
    5c6e:	0007d783          	lhu	a5,0(a5)
    5c72:	06f00713          	li	a4,111
    5c76:	0ee68863          	beq	a3,a4,5d66 <_printf_i+0x226>
    5c7a:	00002697          	auipc	a3,0x2
    5c7e:	f6a68693          	addi	a3,a3,-150 # 7be4 <__sf_fake_stdout+0x34>
    5c82:	4729                	li	a4,10
    5c84:	040401a3          	sb	zero,67(s0)
    5c88:	404c                	lw	a1,4(s0)
    5c8a:	c40c                	sw	a1,8(s0)
    5c8c:	0005c563          	bltz	a1,5c96 <_printf_i+0x156>
    5c90:	4008                	lw	a0,0(s0)
    5c92:	996d                	andi	a0,a0,-5
    5c94:	c008                	sw	a0,0(s0)
    5c96:	e399                	bnez	a5,5c9c <_printf_i+0x15c>
    5c98:	8ab2                	mv	s5,a2
    5c9a:	cd91                	beqz	a1,5cb6 <_printf_i+0x176>
    5c9c:	8ab2                	mv	s5,a2
    5c9e:	02e7f5b3          	remu	a1,a5,a4
    5ca2:	1afd                	addi	s5,s5,-1
    5ca4:	95b6                	add	a1,a1,a3
    5ca6:	0005c583          	lbu	a1,0(a1)
    5caa:	00ba8023          	sb	a1,0(s5)
    5cae:	02e7d5b3          	divu	a1,a5,a4
    5cb2:	0ce7f063          	bgeu	a5,a4,5d72 <_printf_i+0x232>
    5cb6:	47a1                	li	a5,8
    5cb8:	00f71e63          	bne	a4,a5,5cd4 <_printf_i+0x194>
    5cbc:	401c                	lw	a5,0(s0)
    5cbe:	8b85                	andi	a5,a5,1
    5cc0:	cb91                	beqz	a5,5cd4 <_printf_i+0x194>
    5cc2:	4058                	lw	a4,4(s0)
    5cc4:	481c                	lw	a5,16(s0)
    5cc6:	00e7c763          	blt	a5,a4,5cd4 <_printf_i+0x194>
    5cca:	03000793          	li	a5,48
    5cce:	fefa8fa3          	sb	a5,-1(s5)
    5cd2:	1afd                	addi	s5,s5,-1
    5cd4:	41560633          	sub	a2,a2,s5
    5cd8:	c810                	sw	a2,16(s0)
    5cda:	874e                	mv	a4,s3
    5cdc:	86ca                	mv	a3,s2
    5cde:	0070                	addi	a2,sp,12
    5ce0:	85a2                	mv	a1,s0
    5ce2:	8526                	mv	a0,s1
    5ce4:	d51ff0ef          	jal	ra,5a34 <_printf_common>
    5ce8:	5a7d                	li	s4,-1
    5cea:	0b451e63          	bne	a0,s4,5da6 <_printf_i+0x266>
    5cee:	557d                	li	a0,-1
    5cf0:	50b2                	lw	ra,44(sp)
    5cf2:	5422                	lw	s0,40(sp)
    5cf4:	5492                	lw	s1,36(sp)
    5cf6:	5902                	lw	s2,32(sp)
    5cf8:	49f2                	lw	s3,28(sp)
    5cfa:	4a62                	lw	s4,24(sp)
    5cfc:	4ad2                	lw	s5,20(sp)
    5cfe:	4b42                	lw	s6,16(sp)
    5d00:	6145                	addi	sp,sp,48
    5d02:	8082                	ret
    5d04:	04d582a3          	sb	a3,69(a1)
    5d08:	00002697          	auipc	a3,0x2
    5d0c:	edc68693          	addi	a3,a3,-292 # 7be4 <__sf_fake_stdout+0x34>
    5d10:	400c                	lw	a1,0(s0)
    5d12:	4308                	lw	a0,0(a4)
    5d14:	0805f813          	andi	a6,a1,128
    5d18:	411c                	lw	a5,0(a0)
    5d1a:	0511                	addi	a0,a0,4
    5d1c:	02080d63          	beqz	a6,5d56 <_printf_i+0x216>
    5d20:	c308                	sw	a0,0(a4)
    5d22:	0015f713          	andi	a4,a1,1
    5d26:	c701                	beqz	a4,5d2e <_printf_i+0x1ee>
    5d28:	0205e593          	ori	a1,a1,32
    5d2c:	c00c                	sw	a1,0(s0)
    5d2e:	4741                	li	a4,16
    5d30:	fbb1                	bnez	a5,5c84 <_printf_i+0x144>
    5d32:	400c                	lw	a1,0(s0)
    5d34:	fdf5f593          	andi	a1,a1,-33
    5d38:	c00c                	sw	a1,0(s0)
    5d3a:	b7a9                	j	5c84 <_printf_i+0x144>
    5d3c:	419c                	lw	a5,0(a1)
    5d3e:	0207e793          	ori	a5,a5,32
    5d42:	c19c                	sw	a5,0(a1)
    5d44:	07800793          	li	a5,120
    5d48:	04f402a3          	sb	a5,69(s0)
    5d4c:	00002697          	auipc	a3,0x2
    5d50:	eac68693          	addi	a3,a3,-340 # 7bf8 <__sf_fake_stdout+0x48>
    5d54:	bf75                	j	5d10 <_printf_i+0x1d0>
    5d56:	0405f813          	andi	a6,a1,64
    5d5a:	c308                	sw	a0,0(a4)
    5d5c:	fc0803e3          	beqz	a6,5d22 <_printf_i+0x1e2>
    5d60:	07c2                	slli	a5,a5,0x10
    5d62:	83c1                	srli	a5,a5,0x10
    5d64:	bf7d                	j	5d22 <_printf_i+0x1e2>
    5d66:	00002697          	auipc	a3,0x2
    5d6a:	e7e68693          	addi	a3,a3,-386 # 7be4 <__sf_fake_stdout+0x34>
    5d6e:	4721                	li	a4,8
    5d70:	bf11                	j	5c84 <_printf_i+0x144>
    5d72:	87ae                	mv	a5,a1
    5d74:	b72d                	j	5c9e <_printf_i+0x15e>
    5d76:	4194                	lw	a3,0(a1)
    5d78:	431c                	lw	a5,0(a4)
    5d7a:	49cc                	lw	a1,20(a1)
    5d7c:	0806f813          	andi	a6,a3,128
    5d80:	00478513          	addi	a0,a5,4
    5d84:	00080663          	beqz	a6,5d90 <_printf_i+0x250>
    5d88:	c308                	sw	a0,0(a4)
    5d8a:	439c                	lw	a5,0(a5)
    5d8c:	c38c                	sw	a1,0(a5)
    5d8e:	a801                	j	5d9e <_printf_i+0x25e>
    5d90:	c308                	sw	a0,0(a4)
    5d92:	0406f693          	andi	a3,a3,64
    5d96:	439c                	lw	a5,0(a5)
    5d98:	daf5                	beqz	a3,5d8c <_printf_i+0x24c>
    5d9a:	00b79023          	sh	a1,0(a5)
    5d9e:	00042823          	sw	zero,16(s0)
    5da2:	8ab2                	mv	s5,a2
    5da4:	bf1d                	j	5cda <_printf_i+0x19a>
    5da6:	4814                	lw	a3,16(s0)
    5da8:	8656                	mv	a2,s5
    5daa:	85ca                	mv	a1,s2
    5dac:	8526                	mv	a0,s1
    5dae:	9982                	jalr	s3
    5db0:	f3450fe3          	beq	a0,s4,5cee <_printf_i+0x1ae>
    5db4:	401c                	lw	a5,0(s0)
    5db6:	8b89                	andi	a5,a5,2
    5db8:	e78d                	bnez	a5,5de2 <_printf_i+0x2a2>
    5dba:	47b2                	lw	a5,12(sp)
    5dbc:	4448                	lw	a0,12(s0)
    5dbe:	f2f559e3          	bge	a0,a5,5cf0 <_printf_i+0x1b0>
    5dc2:	853e                	mv	a0,a5
    5dc4:	b735                	j	5cf0 <_printf_i+0x1b0>
    5dc6:	4685                	li	a3,1
    5dc8:	8656                	mv	a2,s5
    5dca:	85ca                	mv	a1,s2
    5dcc:	8526                	mv	a0,s1
    5dce:	9982                	jalr	s3
    5dd0:	f1650fe3          	beq	a0,s6,5cee <_printf_i+0x1ae>
    5dd4:	0a05                	addi	s4,s4,1
    5dd6:	445c                	lw	a5,12(s0)
    5dd8:	4732                	lw	a4,12(sp)
    5dda:	8f99                	sub	a5,a5,a4
    5ddc:	fefa45e3          	blt	s4,a5,5dc6 <_printf_i+0x286>
    5de0:	bfe9                	j	5dba <_printf_i+0x27a>
    5de2:	4a01                	li	s4,0
    5de4:	01940a93          	addi	s5,s0,25
    5de8:	5b7d                	li	s6,-1
    5dea:	b7f5                	j	5dd6 <_printf_i+0x296>

00005dec <__sread>:
    5dec:	1141                	addi	sp,sp,-16
    5dee:	c422                	sw	s0,8(sp)
    5df0:	842e                	mv	s0,a1
    5df2:	00e59583          	lh	a1,14(a1)
    5df6:	c606                	sw	ra,12(sp)
    5df8:	2bc9                	jal	63ca <_read_r>
    5dfa:	00054963          	bltz	a0,5e0c <__sread+0x20>
    5dfe:	487c                	lw	a5,84(s0)
    5e00:	97aa                	add	a5,a5,a0
    5e02:	c87c                	sw	a5,84(s0)
    5e04:	40b2                	lw	ra,12(sp)
    5e06:	4422                	lw	s0,8(sp)
    5e08:	0141                	addi	sp,sp,16
    5e0a:	8082                	ret
    5e0c:	00c45783          	lhu	a5,12(s0)
    5e10:	777d                	lui	a4,0xfffff
    5e12:	177d                	addi	a4,a4,-1
    5e14:	8ff9                	and	a5,a5,a4
    5e16:	00f41623          	sh	a5,12(s0)
    5e1a:	b7ed                	j	5e04 <__sread+0x18>

00005e1c <__swrite>:
    5e1c:	00c5d783          	lhu	a5,12(a1)
    5e20:	1101                	addi	sp,sp,-32
    5e22:	cc22                	sw	s0,24(sp)
    5e24:	ca26                	sw	s1,20(sp)
    5e26:	c84a                	sw	s2,16(sp)
    5e28:	c64e                	sw	s3,12(sp)
    5e2a:	ce06                	sw	ra,28(sp)
    5e2c:	1007f793          	andi	a5,a5,256
    5e30:	84aa                	mv	s1,a0
    5e32:	842e                	mv	s0,a1
    5e34:	8932                	mv	s2,a2
    5e36:	89b6                	mv	s3,a3
    5e38:	c791                	beqz	a5,5e44 <__swrite+0x28>
    5e3a:	00e59583          	lh	a1,14(a1)
    5e3e:	4689                	li	a3,2
    5e40:	4601                	li	a2,0
    5e42:	2189                	jal	6284 <_lseek_r>
    5e44:	00c45783          	lhu	a5,12(s0)
    5e48:	777d                	lui	a4,0xfffff
    5e4a:	177d                	addi	a4,a4,-1
    5e4c:	8ff9                	and	a5,a5,a4
    5e4e:	00f41623          	sh	a5,12(s0)
    5e52:	00e41583          	lh	a1,14(s0)
    5e56:	4462                	lw	s0,24(sp)
    5e58:	40f2                	lw	ra,28(sp)
    5e5a:	86ce                	mv	a3,s3
    5e5c:	864a                	mv	a2,s2
    5e5e:	49b2                	lw	s3,12(sp)
    5e60:	4942                	lw	s2,16(sp)
    5e62:	8526                	mv	a0,s1
    5e64:	44d2                	lw	s1,20(sp)
    5e66:	6105                	addi	sp,sp,32
    5e68:	a201                	j	5f68 <_write_r>

00005e6a <__sseek>:
    5e6a:	1141                	addi	sp,sp,-16
    5e6c:	c422                	sw	s0,8(sp)
    5e6e:	842e                	mv	s0,a1
    5e70:	00e59583          	lh	a1,14(a1)
    5e74:	c606                	sw	ra,12(sp)
    5e76:	2139                	jal	6284 <_lseek_r>
    5e78:	57fd                	li	a5,-1
    5e7a:	00c45703          	lhu	a4,12(s0)
    5e7e:	00f51b63          	bne	a0,a5,5e94 <__sseek+0x2a>
    5e82:	77fd                	lui	a5,0xfffff
    5e84:	17fd                	addi	a5,a5,-1
    5e86:	8ff9                	and	a5,a5,a4
    5e88:	00f41623          	sh	a5,12(s0)
    5e8c:	40b2                	lw	ra,12(sp)
    5e8e:	4422                	lw	s0,8(sp)
    5e90:	0141                	addi	sp,sp,16
    5e92:	8082                	ret
    5e94:	6785                	lui	a5,0x1
    5e96:	8fd9                	or	a5,a5,a4
    5e98:	00f41623          	sh	a5,12(s0)
    5e9c:	c868                	sw	a0,84(s0)
    5e9e:	b7fd                	j	5e8c <__sseek+0x22>

00005ea0 <__sclose>:
    5ea0:	00e59583          	lh	a1,14(a1)
    5ea4:	a429                	j	60ae <_close_r>

00005ea6 <__swbuf_r>:
    5ea6:	1101                	addi	sp,sp,-32
    5ea8:	cc22                	sw	s0,24(sp)
    5eaa:	ca26                	sw	s1,20(sp)
    5eac:	c84a                	sw	s2,16(sp)
    5eae:	ce06                	sw	ra,28(sp)
    5eb0:	c64e                	sw	s3,12(sp)
    5eb2:	84aa                	mv	s1,a0
    5eb4:	892e                	mv	s2,a1
    5eb6:	8432                	mv	s0,a2
    5eb8:	c509                	beqz	a0,5ec2 <__swbuf_r+0x1c>
    5eba:	4d1c                	lw	a5,24(a0)
    5ebc:	e399                	bnez	a5,5ec2 <__swbuf_r+0x1c>
    5ebe:	eeeff0ef          	jal	ra,55ac <__sinit>
    5ec2:	00002797          	auipc	a5,0x2
    5ec6:	cce78793          	addi	a5,a5,-818 # 7b90 <__sf_fake_stdin>
    5eca:	06f41963          	bne	s0,a5,5f3c <__swbuf_r+0x96>
    5ece:	40c0                	lw	s0,4(s1)
    5ed0:	4c1c                	lw	a5,24(s0)
    5ed2:	c41c                	sw	a5,8(s0)
    5ed4:	00c45783          	lhu	a5,12(s0)
    5ed8:	8ba1                	andi	a5,a5,8
    5eda:	c3c9                	beqz	a5,5f5c <__swbuf_r+0xb6>
    5edc:	481c                	lw	a5,16(s0)
    5ede:	cfbd                	beqz	a5,5f5c <__swbuf_r+0xb6>
    5ee0:	481c                	lw	a5,16(s0)
    5ee2:	4008                	lw	a0,0(s0)
    5ee4:	0ff97993          	andi	s3,s2,255
    5ee8:	0ff97913          	andi	s2,s2,255
    5eec:	8d1d                	sub	a0,a0,a5
    5eee:	485c                	lw	a5,20(s0)
    5ef0:	00f54663          	blt	a0,a5,5efc <__swbuf_r+0x56>
    5ef4:	85a2                	mv	a1,s0
    5ef6:	8526                	mv	a0,s1
    5ef8:	2615                	jal	621c <_fflush_r>
    5efa:	e52d                	bnez	a0,5f64 <__swbuf_r+0xbe>
    5efc:	441c                	lw	a5,8(s0)
    5efe:	0505                	addi	a0,a0,1
    5f00:	17fd                	addi	a5,a5,-1
    5f02:	c41c                	sw	a5,8(s0)
    5f04:	401c                	lw	a5,0(s0)
    5f06:	00178713          	addi	a4,a5,1
    5f0a:	c018                	sw	a4,0(s0)
    5f0c:	01378023          	sb	s3,0(a5)
    5f10:	485c                	lw	a5,20(s0)
    5f12:	00a78963          	beq	a5,a0,5f24 <__swbuf_r+0x7e>
    5f16:	00c45783          	lhu	a5,12(s0)
    5f1a:	8b85                	andi	a5,a5,1
    5f1c:	cb81                	beqz	a5,5f2c <__swbuf_r+0x86>
    5f1e:	47a9                	li	a5,10
    5f20:	00f91663          	bne	s2,a5,5f2c <__swbuf_r+0x86>
    5f24:	85a2                	mv	a1,s0
    5f26:	8526                	mv	a0,s1
    5f28:	2cd5                	jal	621c <_fflush_r>
    5f2a:	ed0d                	bnez	a0,5f64 <__swbuf_r+0xbe>
    5f2c:	40f2                	lw	ra,28(sp)
    5f2e:	4462                	lw	s0,24(sp)
    5f30:	854a                	mv	a0,s2
    5f32:	44d2                	lw	s1,20(sp)
    5f34:	4942                	lw	s2,16(sp)
    5f36:	49b2                	lw	s3,12(sp)
    5f38:	6105                	addi	sp,sp,32
    5f3a:	8082                	ret
    5f3c:	00002797          	auipc	a5,0x2
    5f40:	c7478793          	addi	a5,a5,-908 # 7bb0 <__sf_fake_stdout>
    5f44:	00f41463          	bne	s0,a5,5f4c <__swbuf_r+0xa6>
    5f48:	4480                	lw	s0,8(s1)
    5f4a:	b759                	j	5ed0 <__swbuf_r+0x2a>
    5f4c:	00002797          	auipc	a5,0x2
    5f50:	c2478793          	addi	a5,a5,-988 # 7b70 <__sf_fake_stderr>
    5f54:	f6f41ee3          	bne	s0,a5,5ed0 <__swbuf_r+0x2a>
    5f58:	44c0                	lw	s0,12(s1)
    5f5a:	bf9d                	j	5ed0 <__swbuf_r+0x2a>
    5f5c:	85a2                	mv	a1,s0
    5f5e:	8526                	mv	a0,s1
    5f60:	283d                	jal	5f9e <__swsetup_r>
    5f62:	dd3d                	beqz	a0,5ee0 <__swbuf_r+0x3a>
    5f64:	597d                	li	s2,-1
    5f66:	b7d9                	j	5f2c <__swbuf_r+0x86>

00005f68 <_write_r>:
    5f68:	1141                	addi	sp,sp,-16
    5f6a:	c422                	sw	s0,8(sp)
    5f6c:	842a                	mv	s0,a0
    5f6e:	852e                	mv	a0,a1
    5f70:	85b2                	mv	a1,a2
    5f72:	8636                	mv	a2,a3
    5f74:	1fffc797          	auipc	a5,0x1fffc
    5f78:	8007a023          	sw	zero,-2048(a5) # 20001774 <errno>
    5f7c:	c606                	sw	ra,12(sp)
    5f7e:	d42fa0ef          	jal	ra,4c0 <_write>
    5f82:	57fd                	li	a5,-1
    5f84:	00f51963          	bne	a0,a5,5f96 <_write_r+0x2e>
    5f88:	1fffb797          	auipc	a5,0x1fffb
    5f8c:	7ec78793          	addi	a5,a5,2028 # 20001774 <errno>
    5f90:	439c                	lw	a5,0(a5)
    5f92:	c391                	beqz	a5,5f96 <_write_r+0x2e>
    5f94:	c01c                	sw	a5,0(s0)
    5f96:	40b2                	lw	ra,12(sp)
    5f98:	4422                	lw	s0,8(sp)
    5f9a:	0141                	addi	sp,sp,16
    5f9c:	8082                	ret

00005f9e <__swsetup_r>:
    5f9e:	1141                	addi	sp,sp,-16
    5fa0:	80c18793          	addi	a5,gp,-2036 # 200001cc <_impure_ptr>
    5fa4:	c226                	sw	s1,4(sp)
    5fa6:	4384                	lw	s1,0(a5)
    5fa8:	c422                	sw	s0,8(sp)
    5faa:	c04a                	sw	s2,0(sp)
    5fac:	c606                	sw	ra,12(sp)
    5fae:	892a                	mv	s2,a0
    5fb0:	842e                	mv	s0,a1
    5fb2:	c491                	beqz	s1,5fbe <__swsetup_r+0x20>
    5fb4:	4c9c                	lw	a5,24(s1)
    5fb6:	e781                	bnez	a5,5fbe <__swsetup_r+0x20>
    5fb8:	8526                	mv	a0,s1
    5fba:	df2ff0ef          	jal	ra,55ac <__sinit>
    5fbe:	00002797          	auipc	a5,0x2
    5fc2:	bd278793          	addi	a5,a5,-1070 # 7b90 <__sf_fake_stdin>
    5fc6:	02f41c63          	bne	s0,a5,5ffe <__swsetup_r+0x60>
    5fca:	40c0                	lw	s0,4(s1)
    5fcc:	00c41703          	lh	a4,12(s0)
    5fd0:	01071793          	slli	a5,a4,0x10
    5fd4:	83c1                	srli	a5,a5,0x10
    5fd6:	0087f693          	andi	a3,a5,8
    5fda:	eebd                	bnez	a3,6058 <__swsetup_r+0xba>
    5fdc:	0107f693          	andi	a3,a5,16
    5fe0:	ee9d                	bnez	a3,601e <__swsetup_r+0x80>
    5fe2:	47a5                	li	a5,9
    5fe4:	00f92023          	sw	a5,0(s2)
    5fe8:	04076713          	ori	a4,a4,64
    5fec:	00e41623          	sh	a4,12(s0)
    5ff0:	557d                	li	a0,-1
    5ff2:	40b2                	lw	ra,12(sp)
    5ff4:	4422                	lw	s0,8(sp)
    5ff6:	4492                	lw	s1,4(sp)
    5ff8:	4902                	lw	s2,0(sp)
    5ffa:	0141                	addi	sp,sp,16
    5ffc:	8082                	ret
    5ffe:	00002797          	auipc	a5,0x2
    6002:	bb278793          	addi	a5,a5,-1102 # 7bb0 <__sf_fake_stdout>
    6006:	00f41463          	bne	s0,a5,600e <__swsetup_r+0x70>
    600a:	4480                	lw	s0,8(s1)
    600c:	b7c1                	j	5fcc <__swsetup_r+0x2e>
    600e:	00002797          	auipc	a5,0x2
    6012:	b6278793          	addi	a5,a5,-1182 # 7b70 <__sf_fake_stderr>
    6016:	faf41be3          	bne	s0,a5,5fcc <__swsetup_r+0x2e>
    601a:	44c0                	lw	s0,12(s1)
    601c:	bf45                	j	5fcc <__swsetup_r+0x2e>
    601e:	8b91                	andi	a5,a5,4
    6020:	c795                	beqz	a5,604c <__swsetup_r+0xae>
    6022:	584c                	lw	a1,52(s0)
    6024:	c991                	beqz	a1,6038 <__swsetup_r+0x9a>
    6026:	04440793          	addi	a5,s0,68
    602a:	00f58563          	beq	a1,a5,6034 <__swsetup_r+0x96>
    602e:	854a                	mv	a0,s2
    6030:	aa0ff0ef          	jal	ra,52d0 <_free_r>
    6034:	02042a23          	sw	zero,52(s0)
    6038:	00c45783          	lhu	a5,12(s0)
    603c:	00042223          	sw	zero,4(s0)
    6040:	fdb7f793          	andi	a5,a5,-37
    6044:	00f41623          	sh	a5,12(s0)
    6048:	481c                	lw	a5,16(s0)
    604a:	c01c                	sw	a5,0(s0)
    604c:	00c45783          	lhu	a5,12(s0)
    6050:	0087e793          	ori	a5,a5,8
    6054:	00f41623          	sh	a5,12(s0)
    6058:	481c                	lw	a5,16(s0)
    605a:	ef81                	bnez	a5,6072 <__swsetup_r+0xd4>
    605c:	00c45783          	lhu	a5,12(s0)
    6060:	20000713          	li	a4,512
    6064:	2807f793          	andi	a5,a5,640
    6068:	00e78563          	beq	a5,a4,6072 <__swsetup_r+0xd4>
    606c:	85a2                	mv	a1,s0
    606e:	854a                	mv	a0,s2
    6070:	2445                	jal	6310 <__smakebuf_r>
    6072:	00c45783          	lhu	a5,12(s0)
    6076:	0017f713          	andi	a4,a5,1
    607a:	c705                	beqz	a4,60a2 <__swsetup_r+0x104>
    607c:	485c                	lw	a5,20(s0)
    607e:	00042423          	sw	zero,8(s0)
    6082:	40f007b3          	neg	a5,a5
    6086:	cc1c                	sw	a5,24(s0)
    6088:	481c                	lw	a5,16(s0)
    608a:	4501                	li	a0,0
    608c:	f3bd                	bnez	a5,5ff2 <__swsetup_r+0x54>
    608e:	00c41783          	lh	a5,12(s0)
    6092:	0807f713          	andi	a4,a5,128
    6096:	df31                	beqz	a4,5ff2 <__swsetup_r+0x54>
    6098:	0407e793          	ori	a5,a5,64
    609c:	00f41623          	sh	a5,12(s0)
    60a0:	bf81                	j	5ff0 <__swsetup_r+0x52>
    60a2:	8b89                	andi	a5,a5,2
    60a4:	4701                	li	a4,0
    60a6:	e391                	bnez	a5,60aa <__swsetup_r+0x10c>
    60a8:	4858                	lw	a4,20(s0)
    60aa:	c418                	sw	a4,8(s0)
    60ac:	bff1                	j	6088 <__swsetup_r+0xea>

000060ae <_close_r>:
    60ae:	1141                	addi	sp,sp,-16
    60b0:	c422                	sw	s0,8(sp)
    60b2:	842a                	mv	s0,a0
    60b4:	852e                	mv	a0,a1
    60b6:	1fffb797          	auipc	a5,0x1fffb
    60ba:	6a07af23          	sw	zero,1726(a5) # 20001774 <errno>
    60be:	c606                	sw	ra,12(sp)
    60c0:	2645                	jal	6460 <_close>
    60c2:	57fd                	li	a5,-1
    60c4:	00f51963          	bne	a0,a5,60d6 <_close_r+0x28>
    60c8:	1fffb797          	auipc	a5,0x1fffb
    60cc:	6ac78793          	addi	a5,a5,1708 # 20001774 <errno>
    60d0:	439c                	lw	a5,0(a5)
    60d2:	c391                	beqz	a5,60d6 <_close_r+0x28>
    60d4:	c01c                	sw	a5,0(s0)
    60d6:	40b2                	lw	ra,12(sp)
    60d8:	4422                	lw	s0,8(sp)
    60da:	0141                	addi	sp,sp,16
    60dc:	8082                	ret

000060de <__sflush_r>:
    60de:	00c5d783          	lhu	a5,12(a1)
    60e2:	1101                	addi	sp,sp,-32
    60e4:	cc22                	sw	s0,24(sp)
    60e6:	ca26                	sw	s1,20(sp)
    60e8:	ce06                	sw	ra,28(sp)
    60ea:	c84a                	sw	s2,16(sp)
    60ec:	c64e                	sw	s3,12(sp)
    60ee:	0087f713          	andi	a4,a5,8
    60f2:	84aa                	mv	s1,a0
    60f4:	842e                	mv	s0,a1
    60f6:	ef79                	bnez	a4,61d4 <__sflush_r+0xf6>
    60f8:	41d8                	lw	a4,4(a1)
    60fa:	00e04d63          	bgtz	a4,6114 <__sflush_r+0x36>
    60fe:	41b8                	lw	a4,64(a1)
    6100:	00e04a63          	bgtz	a4,6114 <__sflush_r+0x36>
    6104:	4501                	li	a0,0
    6106:	40f2                	lw	ra,28(sp)
    6108:	4462                	lw	s0,24(sp)
    610a:	44d2                	lw	s1,20(sp)
    610c:	4942                	lw	s2,16(sp)
    610e:	49b2                	lw	s3,12(sp)
    6110:	6105                	addi	sp,sp,32
    6112:	8082                	ret
    6114:	5458                	lw	a4,44(s0)
    6116:	d77d                	beqz	a4,6104 <__sflush_r+0x26>
    6118:	0004a903          	lw	s2,0(s1)
    611c:	01379693          	slli	a3,a5,0x13
    6120:	0004a023          	sw	zero,0(s1)
    6124:	0606de63          	bgez	a3,61a0 <__sflush_r+0xc2>
    6128:	4870                	lw	a2,84(s0)
    612a:	00c45783          	lhu	a5,12(s0)
    612e:	8b91                	andi	a5,a5,4
    6130:	c799                	beqz	a5,613e <__sflush_r+0x60>
    6132:	405c                	lw	a5,4(s0)
    6134:	8e1d                	sub	a2,a2,a5
    6136:	585c                	lw	a5,52(s0)
    6138:	c399                	beqz	a5,613e <__sflush_r+0x60>
    613a:	403c                	lw	a5,64(s0)
    613c:	8e1d                	sub	a2,a2,a5
    613e:	545c                	lw	a5,44(s0)
    6140:	500c                	lw	a1,32(s0)
    6142:	4681                	li	a3,0
    6144:	8526                	mv	a0,s1
    6146:	9782                	jalr	a5
    6148:	57fd                	li	a5,-1
    614a:	00c45703          	lhu	a4,12(s0)
    614e:	00f51d63          	bne	a0,a5,6168 <__sflush_r+0x8a>
    6152:	4094                	lw	a3,0(s1)
    6154:	47f5                	li	a5,29
    6156:	06d7e963          	bltu	a5,a3,61c8 <__sflush_r+0xea>
    615a:	204007b7          	lui	a5,0x20400
    615e:	0785                	addi	a5,a5,1
    6160:	00d7d7b3          	srl	a5,a5,a3
    6164:	8b85                	andi	a5,a5,1
    6166:	c3ad                	beqz	a5,61c8 <__sflush_r+0xea>
    6168:	481c                	lw	a5,16(s0)
    616a:	00042223          	sw	zero,4(s0)
    616e:	c01c                	sw	a5,0(s0)
    6170:	01371793          	slli	a5,a4,0x13
    6174:	0007d863          	bgez	a5,6184 <__sflush_r+0xa6>
    6178:	57fd                	li	a5,-1
    617a:	00f51463          	bne	a0,a5,6182 <__sflush_r+0xa4>
    617e:	409c                	lw	a5,0(s1)
    6180:	e391                	bnez	a5,6184 <__sflush_r+0xa6>
    6182:	c868                	sw	a0,84(s0)
    6184:	584c                	lw	a1,52(s0)
    6186:	0124a023          	sw	s2,0(s1)
    618a:	ddad                	beqz	a1,6104 <__sflush_r+0x26>
    618c:	04440793          	addi	a5,s0,68
    6190:	00f58563          	beq	a1,a5,619a <__sflush_r+0xbc>
    6194:	8526                	mv	a0,s1
    6196:	93aff0ef          	jal	ra,52d0 <_free_r>
    619a:	02042a23          	sw	zero,52(s0)
    619e:	b79d                	j	6104 <__sflush_r+0x26>
    61a0:	500c                	lw	a1,32(s0)
    61a2:	4601                	li	a2,0
    61a4:	4685                	li	a3,1
    61a6:	8526                	mv	a0,s1
    61a8:	9702                	jalr	a4
    61aa:	57fd                	li	a5,-1
    61ac:	862a                	mv	a2,a0
    61ae:	f6f51ee3          	bne	a0,a5,612a <__sflush_r+0x4c>
    61b2:	409c                	lw	a5,0(s1)
    61b4:	dbbd                	beqz	a5,612a <__sflush_r+0x4c>
    61b6:	4775                	li	a4,29
    61b8:	00e78563          	beq	a5,a4,61c2 <__sflush_r+0xe4>
    61bc:	4759                	li	a4,22
    61be:	04e79463          	bne	a5,a4,6206 <__sflush_r+0x128>
    61c2:	0124a023          	sw	s2,0(s1)
    61c6:	bf3d                	j	6104 <__sflush_r+0x26>
    61c8:	04076713          	ori	a4,a4,64
    61cc:	00e41623          	sh	a4,12(s0)
    61d0:	557d                	li	a0,-1
    61d2:	bf15                	j	6106 <__sflush_r+0x28>
    61d4:	0105a983          	lw	s3,16(a1)
    61d8:	f20986e3          	beqz	s3,6104 <__sflush_r+0x26>
    61dc:	0005a903          	lw	s2,0(a1)
    61e0:	8b8d                	andi	a5,a5,3
    61e2:	0135a023          	sw	s3,0(a1)
    61e6:	41390933          	sub	s2,s2,s3
    61ea:	4701                	li	a4,0
    61ec:	e391                	bnez	a5,61f0 <__sflush_r+0x112>
    61ee:	49d8                	lw	a4,20(a1)
    61f0:	c418                	sw	a4,8(s0)
    61f2:	f12059e3          	blez	s2,6104 <__sflush_r+0x26>
    61f6:	541c                	lw	a5,40(s0)
    61f8:	500c                	lw	a1,32(s0)
    61fa:	86ca                	mv	a3,s2
    61fc:	864e                	mv	a2,s3
    61fe:	8526                	mv	a0,s1
    6200:	9782                	jalr	a5
    6202:	00a04963          	bgtz	a0,6214 <__sflush_r+0x136>
    6206:	00c45783          	lhu	a5,12(s0)
    620a:	0407e793          	ori	a5,a5,64
    620e:	00f41623          	sh	a5,12(s0)
    6212:	bf7d                	j	61d0 <__sflush_r+0xf2>
    6214:	99aa                	add	s3,s3,a0
    6216:	40a90933          	sub	s2,s2,a0
    621a:	bfe1                	j	61f2 <__sflush_r+0x114>

0000621c <_fflush_r>:
    621c:	499c                	lw	a5,16(a1)
    621e:	c3ad                	beqz	a5,6280 <_fflush_r+0x64>
    6220:	1101                	addi	sp,sp,-32
    6222:	cc22                	sw	s0,24(sp)
    6224:	ce06                	sw	ra,28(sp)
    6226:	842a                	mv	s0,a0
    6228:	c519                	beqz	a0,6236 <_fflush_r+0x1a>
    622a:	4d1c                	lw	a5,24(a0)
    622c:	e789                	bnez	a5,6236 <_fflush_r+0x1a>
    622e:	c62e                	sw	a1,12(sp)
    6230:	b7cff0ef          	jal	ra,55ac <__sinit>
    6234:	45b2                	lw	a1,12(sp)
    6236:	00002797          	auipc	a5,0x2
    623a:	95a78793          	addi	a5,a5,-1702 # 7b90 <__sf_fake_stdin>
    623e:	00f59c63          	bne	a1,a5,6256 <_fflush_r+0x3a>
    6242:	404c                	lw	a1,4(s0)
    6244:	00c59783          	lh	a5,12(a1)
    6248:	c79d                	beqz	a5,6276 <_fflush_r+0x5a>
    624a:	8522                	mv	a0,s0
    624c:	4462                	lw	s0,24(sp)
    624e:	40f2                	lw	ra,28(sp)
    6250:	6105                	addi	sp,sp,32
    6252:	e8dff06f          	j	60de <__sflush_r>
    6256:	00002797          	auipc	a5,0x2
    625a:	95a78793          	addi	a5,a5,-1702 # 7bb0 <__sf_fake_stdout>
    625e:	00f59463          	bne	a1,a5,6266 <_fflush_r+0x4a>
    6262:	440c                	lw	a1,8(s0)
    6264:	b7c5                	j	6244 <_fflush_r+0x28>
    6266:	00002797          	auipc	a5,0x2
    626a:	90a78793          	addi	a5,a5,-1782 # 7b70 <__sf_fake_stderr>
    626e:	fcf59be3          	bne	a1,a5,6244 <_fflush_r+0x28>
    6272:	444c                	lw	a1,12(s0)
    6274:	bfc1                	j	6244 <_fflush_r+0x28>
    6276:	40f2                	lw	ra,28(sp)
    6278:	4462                	lw	s0,24(sp)
    627a:	4501                	li	a0,0
    627c:	6105                	addi	sp,sp,32
    627e:	8082                	ret
    6280:	4501                	li	a0,0
    6282:	8082                	ret

00006284 <_lseek_r>:
    6284:	1141                	addi	sp,sp,-16
    6286:	c422                	sw	s0,8(sp)
    6288:	842a                	mv	s0,a0
    628a:	852e                	mv	a0,a1
    628c:	85b2                	mv	a1,a2
    628e:	8636                	mv	a2,a3
    6290:	1fffb797          	auipc	a5,0x1fffb
    6294:	4e07a223          	sw	zero,1252(a5) # 20001774 <errno>
    6298:	c606                	sw	ra,12(sp)
    629a:	2add                	jal	6490 <_lseek>
    629c:	57fd                	li	a5,-1
    629e:	00f51963          	bne	a0,a5,62b0 <_lseek_r+0x2c>
    62a2:	1fffb797          	auipc	a5,0x1fffb
    62a6:	4d278793          	addi	a5,a5,1234 # 20001774 <errno>
    62aa:	439c                	lw	a5,0(a5)
    62ac:	c391                	beqz	a5,62b0 <_lseek_r+0x2c>
    62ae:	c01c                	sw	a5,0(s0)
    62b0:	40b2                	lw	ra,12(sp)
    62b2:	4422                	lw	s0,8(sp)
    62b4:	0141                	addi	sp,sp,16
    62b6:	8082                	ret

000062b8 <__swhatbuf_r>:
    62b8:	7119                	addi	sp,sp,-128
    62ba:	daa6                	sw	s1,116(sp)
    62bc:	84ae                	mv	s1,a1
    62be:	00e59583          	lh	a1,14(a1)
    62c2:	dca2                	sw	s0,120(sp)
    62c4:	de86                	sw	ra,124(sp)
    62c6:	8432                	mv	s0,a2
    62c8:	0005dc63          	bgez	a1,62e0 <__swhatbuf_r+0x28>
    62cc:	00c4d783          	lhu	a5,12(s1)
    62d0:	0006a023          	sw	zero,0(a3)
    62d4:	0807f793          	andi	a5,a5,128
    62d8:	e39d                	bnez	a5,62fe <__swhatbuf_r+0x46>
    62da:	40000793          	li	a5,1024
    62de:	a015                	j	6302 <__swhatbuf_r+0x4a>
    62e0:	0830                	addi	a2,sp,24
    62e2:	c636                	sw	a3,12(sp)
    62e4:	2a29                	jal	63fe <_fstat_r>
    62e6:	46b2                	lw	a3,12(sp)
    62e8:	fe0542e3          	bltz	a0,62cc <__swhatbuf_r+0x14>
    62ec:	4772                	lw	a4,28(sp)
    62ee:	67bd                	lui	a5,0xf
    62f0:	8ff9                	and	a5,a5,a4
    62f2:	7779                	lui	a4,0xffffe
    62f4:	97ba                	add	a5,a5,a4
    62f6:	0017b793          	seqz	a5,a5
    62fa:	c29c                	sw	a5,0(a3)
    62fc:	bff9                	j	62da <__swhatbuf_r+0x22>
    62fe:	04000793          	li	a5,64
    6302:	c01c                	sw	a5,0(s0)
    6304:	50f6                	lw	ra,124(sp)
    6306:	5466                	lw	s0,120(sp)
    6308:	54d6                	lw	s1,116(sp)
    630a:	4501                	li	a0,0
    630c:	6109                	addi	sp,sp,128
    630e:	8082                	ret

00006310 <__smakebuf_r>:
    6310:	00c5d783          	lhu	a5,12(a1)
    6314:	1101                	addi	sp,sp,-32
    6316:	cc22                	sw	s0,24(sp)
    6318:	ce06                	sw	ra,28(sp)
    631a:	ca26                	sw	s1,20(sp)
    631c:	c84a                	sw	s2,16(sp)
    631e:	8b89                	andi	a5,a5,2
    6320:	842e                	mv	s0,a1
    6322:	cf89                	beqz	a5,633c <__smakebuf_r+0x2c>
    6324:	04740793          	addi	a5,s0,71
    6328:	c01c                	sw	a5,0(s0)
    632a:	c81c                	sw	a5,16(s0)
    632c:	4785                	li	a5,1
    632e:	c85c                	sw	a5,20(s0)
    6330:	40f2                	lw	ra,28(sp)
    6332:	4462                	lw	s0,24(sp)
    6334:	44d2                	lw	s1,20(sp)
    6336:	4942                	lw	s2,16(sp)
    6338:	6105                	addi	sp,sp,32
    633a:	8082                	ret
    633c:	0074                	addi	a3,sp,12
    633e:	0030                	addi	a2,sp,8
    6340:	84aa                	mv	s1,a0
    6342:	f77ff0ef          	jal	ra,62b8 <__swhatbuf_r>
    6346:	45a2                	lw	a1,8(sp)
    6348:	892a                	mv	s2,a0
    634a:	8526                	mv	a0,s1
    634c:	828ff0ef          	jal	ra,5374 <_malloc_r>
    6350:	ed01                	bnez	a0,6368 <__smakebuf_r+0x58>
    6352:	00c41783          	lh	a5,12(s0)
    6356:	2007f713          	andi	a4,a5,512
    635a:	fb79                	bnez	a4,6330 <__smakebuf_r+0x20>
    635c:	9bf1                	andi	a5,a5,-4
    635e:	0027e793          	ori	a5,a5,2
    6362:	00f41623          	sh	a5,12(s0)
    6366:	bf7d                	j	6324 <__smakebuf_r+0x14>
    6368:	fffff797          	auipc	a5,0xfffff
    636c:	1f278793          	addi	a5,a5,498 # 555a <_cleanup_r>
    6370:	d49c                	sw	a5,40(s1)
    6372:	00c45783          	lhu	a5,12(s0)
    6376:	c008                	sw	a0,0(s0)
    6378:	c808                	sw	a0,16(s0)
    637a:	0807e793          	ori	a5,a5,128
    637e:	00f41623          	sh	a5,12(s0)
    6382:	47a2                	lw	a5,8(sp)
    6384:	c85c                	sw	a5,20(s0)
    6386:	47b2                	lw	a5,12(sp)
    6388:	cf89                	beqz	a5,63a2 <__smakebuf_r+0x92>
    638a:	00e41583          	lh	a1,14(s0)
    638e:	8526                	mv	a0,s1
    6390:	2045                	jal	6430 <_isatty_r>
    6392:	c901                	beqz	a0,63a2 <__smakebuf_r+0x92>
    6394:	00c45783          	lhu	a5,12(s0)
    6398:	9bf1                	andi	a5,a5,-4
    639a:	0017e793          	ori	a5,a5,1
    639e:	00f41623          	sh	a5,12(s0)
    63a2:	00c45783          	lhu	a5,12(s0)
    63a6:	00f96933          	or	s2,s2,a5
    63aa:	01241623          	sh	s2,12(s0)
    63ae:	b749                	j	6330 <__smakebuf_r+0x20>

000063b0 <memchr>:
    63b0:	0ff5f593          	andi	a1,a1,255
    63b4:	962a                	add	a2,a2,a0
    63b6:	00c51463          	bne	a0,a2,63be <memchr+0xe>
    63ba:	4501                	li	a0,0
    63bc:	8082                	ret
    63be:	00054783          	lbu	a5,0(a0)
    63c2:	feb78de3          	beq	a5,a1,63bc <memchr+0xc>
    63c6:	0505                	addi	a0,a0,1
    63c8:	b7fd                	j	63b6 <memchr+0x6>

000063ca <_read_r>:
    63ca:	1141                	addi	sp,sp,-16
    63cc:	c422                	sw	s0,8(sp)
    63ce:	842a                	mv	s0,a0
    63d0:	852e                	mv	a0,a1
    63d2:	85b2                	mv	a1,a2
    63d4:	8636                	mv	a2,a3
    63d6:	1fffb797          	auipc	a5,0x1fffb
    63da:	3807af23          	sw	zero,926(a5) # 20001774 <errno>
    63de:	c606                	sw	ra,12(sp)
    63e0:	20c1                	jal	64a0 <_read>
    63e2:	57fd                	li	a5,-1
    63e4:	00f51963          	bne	a0,a5,63f6 <_read_r+0x2c>
    63e8:	1fffb797          	auipc	a5,0x1fffb
    63ec:	38c78793          	addi	a5,a5,908 # 20001774 <errno>
    63f0:	439c                	lw	a5,0(a5)
    63f2:	c391                	beqz	a5,63f6 <_read_r+0x2c>
    63f4:	c01c                	sw	a5,0(s0)
    63f6:	40b2                	lw	ra,12(sp)
    63f8:	4422                	lw	s0,8(sp)
    63fa:	0141                	addi	sp,sp,16
    63fc:	8082                	ret

000063fe <_fstat_r>:
    63fe:	1141                	addi	sp,sp,-16
    6400:	c422                	sw	s0,8(sp)
    6402:	842a                	mv	s0,a0
    6404:	852e                	mv	a0,a1
    6406:	85b2                	mv	a1,a2
    6408:	1fffb797          	auipc	a5,0x1fffb
    640c:	3607a623          	sw	zero,876(a5) # 20001774 <errno>
    6410:	c606                	sw	ra,12(sp)
    6412:	28b9                	jal	6470 <_fstat>
    6414:	57fd                	li	a5,-1
    6416:	00f51963          	bne	a0,a5,6428 <_fstat_r+0x2a>
    641a:	1fffb797          	auipc	a5,0x1fffb
    641e:	35a78793          	addi	a5,a5,858 # 20001774 <errno>
    6422:	439c                	lw	a5,0(a5)
    6424:	c391                	beqz	a5,6428 <_fstat_r+0x2a>
    6426:	c01c                	sw	a5,0(s0)
    6428:	40b2                	lw	ra,12(sp)
    642a:	4422                	lw	s0,8(sp)
    642c:	0141                	addi	sp,sp,16
    642e:	8082                	ret

00006430 <_isatty_r>:
    6430:	1141                	addi	sp,sp,-16
    6432:	c422                	sw	s0,8(sp)
    6434:	842a                	mv	s0,a0
    6436:	852e                	mv	a0,a1
    6438:	1fffb797          	auipc	a5,0x1fffb
    643c:	3207ae23          	sw	zero,828(a5) # 20001774 <errno>
    6440:	c606                	sw	ra,12(sp)
    6442:	283d                	jal	6480 <_isatty>
    6444:	57fd                	li	a5,-1
    6446:	00f51963          	bne	a0,a5,6458 <_isatty_r+0x28>
    644a:	1fffb797          	auipc	a5,0x1fffb
    644e:	32a78793          	addi	a5,a5,810 # 20001774 <errno>
    6452:	439c                	lw	a5,0(a5)
    6454:	c391                	beqz	a5,6458 <_isatty_r+0x28>
    6456:	c01c                	sw	a5,0(s0)
    6458:	40b2                	lw	ra,12(sp)
    645a:	4422                	lw	s0,8(sp)
    645c:	0141                	addi	sp,sp,16
    645e:	8082                	ret

00006460 <_close>:
    6460:	05800793          	li	a5,88
    6464:	1fffb717          	auipc	a4,0x1fffb
    6468:	30f72823          	sw	a5,784(a4) # 20001774 <errno>
    646c:	557d                	li	a0,-1
    646e:	8082                	ret

00006470 <_fstat>:
    6470:	05800793          	li	a5,88
    6474:	1fffb717          	auipc	a4,0x1fffb
    6478:	30f72023          	sw	a5,768(a4) # 20001774 <errno>
    647c:	557d                	li	a0,-1
    647e:	8082                	ret

00006480 <_isatty>:
    6480:	05800793          	li	a5,88
    6484:	1fffb717          	auipc	a4,0x1fffb
    6488:	2ef72823          	sw	a5,752(a4) # 20001774 <errno>
    648c:	4501                	li	a0,0
    648e:	8082                	ret

00006490 <_lseek>:
    6490:	05800793          	li	a5,88
    6494:	1fffb717          	auipc	a4,0x1fffb
    6498:	2ef72023          	sw	a5,736(a4) # 20001774 <errno>
    649c:	557d                	li	a0,-1
    649e:	8082                	ret

000064a0 <_read>:
    64a0:	05800793          	li	a5,88
    64a4:	1fffb717          	auipc	a4,0x1fffb
    64a8:	2cf72823          	sw	a5,720(a4) # 20001774 <errno>
    64ac:	557d                	li	a0,-1
    64ae:	8082                	ret
    64b0:	74b4                	flw	fa3,104(s1)
    64b2:	0000                	unimp
    64b4:	74c8                	flw	fa0,44(s1)
    64b6:	0000                	unimp
    64b8:	74d8                	flw	fa4,44(s1)
    64ba:	0000                	unimp
    64bc:	74ec                	flw	fa1,108(s1)
    64be:	0000                	unimp
    64c0:	74f8                	flw	fa4,108(s1)
    64c2:	0000                	unimp
    64c4:	7504                	flw	fs1,40(a0)
    64c6:	0000                	unimp
    64c8:	7508                	flw	fa0,40(a0)
    64ca:	0000                	unimp
    64cc:	7518                	flw	fa4,40(a0)
    64ce:	0000                	unimp
    64d0:	7528                	flw	fa0,104(a0)
    64d2:	0000                	unimp
    64d4:	7530                	flw	fa2,104(a0)
    64d6:	0000                	unimp
    64d8:	7544                	flw	fs1,44(a0)
    64da:	0000                	unimp
    64dc:	7554                	flw	fa3,44(a0)
    64de:	0000                	unimp
    64e0:	755c                	flw	fa5,44(a0)
    64e2:	0000                	unimp
    64e4:	7568                	flw	fa0,108(a0)
    64e6:	0000                	unimp
    64e8:	7574                	flw	fa3,108(a0)
    64ea:	0000                	unimp
    64ec:	7588                	flw	fa0,40(a1)
    64ee:	0000                	unimp
    64f0:	7590                	flw	fa2,40(a1)
    64f2:	0000                	unimp
    64f4:	75a0                	flw	fs0,104(a1)
    64f6:	0000                	unimp
    64f8:	75b0                	flw	fa2,104(a1)
    64fa:	0000                	unimp
    64fc:	74ac                	flw	fa1,104(s1)
    64fe:	0000                	unimp
    6500:	656c                	flw	fa1,76(a0)
    6502:	5f64                	lw	s1,124(a4)
    6504:	253a5053          	0x253a5053
    6508:	3830                	fld	fa2,112(s0)
    650a:	786c                	flw	fa1,116(s0)
    650c:	0a0d                	addi	s4,s4,3
    650e:	0000                	unimp
    6510:	656c                	flw	fa1,76(a0)
    6512:	2064                	fld	fs1,192(s0)
    6514:	202c6e6f          	jal	t3,cc716 <__rt_init_end+0xc4992>
    6518:	6e756f63          	bltu	a0,t2,6c16 <pins+0x5be>
    651c:	2074                	fld	fa3,192(s0)
    651e:	203a                	fld	ft0,392(sp)
    6520:	6425                	lui	s0,0x9
    6522:	0a0d                	addi	s4,s4,3
    6524:	0000                	unimp
    6526:	0000                	unimp
    6528:	656c                	flw	fa1,76(a0)
    652a:	2064                	fld	fs1,192(s0)
    652c:	0d66666f          	jal	a2,6c602 <__rt_init_end+0x6487e>
    6530:	000a                	c.slli	zero,0x2
	...

00006534 <__fsym___cmd_led_desc>:
    6534:	656c 2064 6173 706d 656c 6220 2079 7375     led sample by us
    6544:	6e69 2067 2f49 204f 7264 7669 7265 0073     ing I/O drivers.

00006554 <__fsym___cmd_led_name>:
    6554:	5f5f 6d63 5f64 656c 0064 0000 6820 7261     __cmd_led... har
    6564:	6664 6c75 0d74 000a 4e20 494d 4820 6e61     dfult... NMI Han
    6574:	6c64 7265 0a0d 0000 0a0d 4d20 5543 203a     dler...... MCU: 
    6584:	4843 3233 3356 3730 0a0d 0000 5320 7379     CH32V307.... Sys
    6594:	6c43 3a6b 2520 4864 0d7a 000a 4320 6968     Clk: %dHz... Chi
    65a4:	4970 3a44 2520 3830 0d78 000a 7720 7777     pID: %08x... www
    65b4:	772e 6863 632e 0d6e 000a 0000               .wch.cn.....

000065c0 <_ch32_pin_ops>:
    65c0:	1062 0000 101e 0000 1042 0000 10f0 0000     b.......B.......
    65d0:	11e8 0000 1286 0000                         ........

000065d8 <pin_irq_map>:
    65d8:	0001 0000 0016 0000 0002 0000 0017 0000     ................
    65e8:	0004 0000 0018 0000 0008 0000 0019 0000     ................
    65f8:	0010 0000 001a 0000 0020 0000 0027 0000     ........ ...'...
    6608:	0040 0000 0027 0000 0080 0000 0027 0000     @...'.......'...
    6618:	0100 0000 0027 0000 0200 0000 0027 0000     ....'.......'...
    6628:	0400 0000 0038 0000 0800 0000 0038 0000     ....8.......8...
    6638:	1000 0000 0038 0000 2000 0000 0038 0000     ....8.... ..8...
    6648:	4000 0000 0038 0000 8000 0000 0038 0000     .@..8.......8...

00006658 <pins>:
    6658:	ffff ffff 0000 0000 0000 0000 0000 0000     ................
    6668:	0001 0000 0fc4 0000 1800 4001 0004 0000     ...........@....
    6678:	0002 0000 0fc4 0000 1800 4001 0008 0000     ...........@....
    6688:	0003 0000 0fc4 0000 1800 4001 0010 0000     ...........@....
    6698:	0004 0000 0fc4 0000 1800 4001 0020 0000     ...........@ ...
    66a8:	0005 0000 0fc4 0000 1800 4001 0040 0000     ...........@@...
    66b8:	ffff ffff 0000 0000 0000 0000 0000 0000     ................
    66c8:	0007 0000 0fb4 0000 1000 4001 2000 0000     ...........@. ..
    66d8:	0008 0000 0fb4 0000 1000 4001 4000 0000     ...........@.@..
    66e8:	0009 0000 0fb4 0000 1000 4001 8000 0000     ...........@....
    66f8:	ffff ffff 0000 0000 0000 0000 0000 0000     ................
    6708:	ffff ffff 0000 0000 0000 0000 0000 0000     ................
    6718:	ffff ffff 0000 0000 0000 0000 0000 0000     ................
    6728:	ffff ffff 0000 0000 0000 0000 0000 0000     ................
    6738:	ffff ffff 0000 0000 0000 0000 0000 0000     ................
    6748:	000f 0000 0fb4 0000 1000 4001 0001 0000     ...........@....
    6758:	0010 0000 0fb4 0000 1000 4001 0002 0000     ...........@....
    6768:	0011 0000 0fb4 0000 1000 4001 0004 0000     ...........@....
    6778:	0012 0000 0fb4 0000 1000 4001 0008 0000     ...........@....
    6788:	ffff ffff 0000 0000 0000 0000 0000 0000     ................
    6798:	ffff ffff 0000 0000 0000 0000 0000 0000     ................
    67a8:	ffff ffff 0000 0000 0000 0000 0000 0000     ................
    67b8:	ffff ffff 0000 0000 0000 0000 0000 0000     ................
    67c8:	0017 0000 0fa4 0000 0800 4001 0001 0000     ...........@....
    67d8:	0018 0000 0fa4 0000 0800 4001 0002 0000     ...........@....
    67e8:	0019 0000 0fa4 0000 0800 4001 0004 0000     ...........@....
    67f8:	001a 0000 0fa4 0000 0800 4001 0008 0000     ...........@....
    6808:	ffff ffff 0000 0000 0000 0000 0000 0000     ................
    6818:	ffff ffff 0000 0000 0000 0000 0000 0000     ................
    6828:	001d 0000 0fa4 0000 0800 4001 0010 0000     ...........@....
    6838:	001e 0000 0fa4 0000 0800 4001 0020 0000     ...........@ ...
    6848:	001f 0000 0fa4 0000 0800 4001 0040 0000     ...........@@...
    6858:	0020 0000 0fa4 0000 0800 4001 0080 0000      ..........@....
    6868:	0021 0000 0fb4 0000 1000 4001 0010 0000     !..........@....
    6878:	0022 0000 0fb4 0000 1000 4001 0020 0000     "..........@ ...
    6888:	0023 0000 0f94 0000 0c00 4001 0001 0000     #..........@....
    6898:	0024 0000 0f94 0000 0c00 4001 0002 0000     $..........@....
    68a8:	0025 0000 0f94 0000 0c00 4001 0004 0000     %..........@....
    68b8:	0026 0000 0fc4 0000 1800 4001 0080 0000     &..........@....
    68c8:	0027 0000 0fc4 0000 1800 4001 0100 0000     '..........@....
    68d8:	0028 0000 0fc4 0000 1800 4001 0200 0000     (..........@....
    68e8:	0029 0000 0fc4 0000 1800 4001 0400 0000     )..........@....
    68f8:	002a 0000 0fc4 0000 1800 4001 0800 0000     *..........@....
    6908:	002b 0000 0fc4 0000 1800 4001 1000 0000     +..........@....
    6918:	002c 0000 0fc4 0000 1800 4001 2000 0000     ,..........@. ..
    6928:	002d 0000 0fc4 0000 1800 4001 4000 0000     -..........@.@..
    6938:	002e 0000 0fc4 0000 1800 4001 8000 0000     ...........@....
    6948:	002f 0000 0f94 0000 0c00 4001 0400 0000     /..........@....
    6958:	0030 0000 0f94 0000 0c00 4001 0800 0000     0..........@....
    6968:	ffff ffff 0000 0000 0000 0000 0000 0000     ................
    6978:	ffff ffff 0000 0000 0000 0000 0000 0000     ................
    6988:	0033 0000 0f94 0000 0c00 4001 1000 0000     3..........@....
    6998:	0034 0000 0f94 0000 0c00 4001 2000 0000     4..........@. ..
    69a8:	0035 0000 0f94 0000 0c00 4001 4000 0000     5..........@.@..
    69b8:	0036 0000 0f94 0000 0c00 4001 8000 0000     6..........@....
    69c8:	0037 0000 0f82 0000 1400 4001 0100 0000     7..........@....
    69d8:	0038 0000 0f82 0000 1400 4001 0200 0000     8..........@....
    69e8:	0039 0000 0f82 0000 1400 4001 0400 0000     9..........@....
    69f8:	003a 0000 0f82 0000 1400 4001 0800 0000     :..........@....
    6a08:	003b 0000 0f82 0000 1400 4001 1000 0000     ;..........@....
    6a18:	003c 0000 0f82 0000 1400 4001 2000 0000     <..........@. ..
    6a28:	003d 0000 0f82 0000 1400 4001 4000 0000     =..........@.@..
    6a38:	003e 0000 0f82 0000 1400 4001 8000 0000     >..........@....
    6a48:	003f 0000 0fb4 0000 1000 4001 0040 0000     ?..........@@...
    6a58:	0040 0000 0fb4 0000 1000 4001 0080 0000     @..........@....
    6a68:	0041 0000 0fb4 0000 1000 4001 0100 0000     A..........@....
    6a78:	0042 0000 0fb4 0000 1000 4001 0200 0000     B..........@....
    6a88:	0043 0000 0fa4 0000 0800 4001 0100 0000     C..........@....
    6a98:	0044 0000 0fa4 0000 0800 4001 0200 0000     D..........@....
    6aa8:	0045 0000 0fa4 0000 0800 4001 0400 0000     E..........@....
    6ab8:	0046 0000 0fa4 0000 0800 4001 0800 0000     F..........@....
    6ac8:	0047 0000 0fa4 0000 0800 4001 1000 0000     G..........@....
    6ad8:	0048 0000 0fa4 0000 0800 4001 2000 0000     H..........@. ..
    6ae8:	ffff ffff 0000 0000 0000 0000 0000 0000     ................
    6af8:	ffff ffff 0000 0000 0000 0000 0000 0000     ................
    6b08:	ffff ffff 0000 0000 0000 0000 0000 0000     ................
    6b18:	004c 0000 0fa4 0000 0800 4001 4000 0000     L..........@.@..
    6b28:	004d 0000 0fa4 0000 0800 4001 8000 0000     M..........@....
    6b38:	004e 0000 0fb4 0000 1000 4001 0400 0000     N..........@....
    6b48:	004f 0000 0fb4 0000 1000 4001 0800 0000     O..........@....
    6b58:	0050 0000 0fb4 0000 1000 4001 1000 0000     P..........@....
    6b68:	0051 0000 0f82 0000 1400 4001 0001 0000     Q..........@....
    6b78:	0052 0000 0f82 0000 1400 4001 0002 0000     R..........@....
    6b88:	0053 0000 0f82 0000 1400 4001 0004 0000     S..........@....
    6b98:	0054 0000 0f82 0000 1400 4001 0008 0000     T..........@....
    6ba8:	0055 0000 0f82 0000 1400 4001 0010 0000     U..........@....
    6bb8:	0056 0000 0f82 0000 1400 4001 0020 0000     V..........@ ...
    6bc8:	0057 0000 0f82 0000 1400 4001 0040 0000     W..........@@...
    6bd8:	0058 0000 0f82 0000 1400 4001 0080 0000     X..........@....
    6be8:	0059 0000 0f94 0000 0c00 4001 0008 0000     Y..........@....
    6bf8:	005a 0000 0f94 0000 0c00 4001 0010 0000     Z..........@....
    6c08:	005b 0000 0f94 0000 0c00 4001 0020 0000     [..........@ ...
    6c18:	005c 0000 0f94 0000 0c00 4001 0040 0000     \..........@@...
    6c28:	005d 0000 0f94 0000 0c00 4001 0080 0000     ]..........@....
    6c38:	ffff ffff 0000 0000 0000 0000 0000 0000     ................
    6c48:	005f 0000 0f94 0000 0c00 4001 0100 0000     _..........@....
    6c58:	0060 0000 0f94 0000 0c00 4001 0200 0000     `..........@....
    6c68:	0061 0000 0fc4 0000 1800 4001 0001 0000     a..........@....
    6c78:	0062 0000 0fc4 0000 1800 4001 0002 0000     b..........@....
    6c88:	ffff ffff 0000 0000 0000 0000 0000 0000     ................
    6c98:	ffff ffff 0000 0000 0000 0000 0000 0000     ................
    6ca8:	6970 006e                                   pin.

00006cac <ch32_uart_ops>:
    6cac:	18de 0000 1b1e 0000 1af0 0000 1ac6 0000     ................
    6cbc:	18a4 0000 6175 7472 0031 0000               ....uart1...

00006cc8 <__fsym_pinRead_desc>:
    6cc8:	6572 6461 7320 6174 7574 2073 7266 6d6f     read status from
    6cd8:	6820 7261 7764 7261 2065 6970 006e 0000      hardware pin...

00006ce8 <__fsym_pinRead_name>:
    6ce8:	6970 526e 6165 0064                         pinRead.

00006cf0 <__fsym_pinWrite_desc>:
    6cf0:	7277 7469 2065 6176 756c 2065 6f74 6820     write value to h
    6d00:	7261 7764 7261 2065 6970 006e               ardware pin.

00006d0c <__fsym_pinWrite_name>:
    6d0c:	6970 576e 6972 6574 0000 0000               pinWrite....

00006d18 <__fsym_pinMode_desc>:
    6d18:	6573 2074 6168 6472 6177 6572 7020 6e69     set hardware pin
    6d28:	6d20 646f 0065 0000                          mode...

00006d30 <__fsym_pinMode_name>:
    6d30:	6970 4d6e 646f 0065 6564 6976 6563 0000     pinMode.device..
    6d40:	2d25 2e2a 2073 2020 2020 2020 2020 7974     %-*.s         ty
    6d50:	6570 2020 2020 2020 2020 7220 6665 6320     pe         ref c
    6d60:	756f 746e 000a 0000 2d20 2d2d 2d2d 2d2d     ount.... -------
    6d70:	2d2d 2d2d 2d2d 2d2d 2d2d 2d2d 202d 2d2d     ------------- --
    6d80:	2d2d 2d2d 2d2d 2d2d 000a 0000 2d25 2e2a     --------....%-*.
    6d90:	732a 2520 322d 7330 2520 382d 0a64 0000     *s %-20s %-8d...
    6da0:	7665 6e65 0074 0000 2d25 2e2a 2073 2020     event...%-*.s   
    6db0:	2020 7320 7465 2020 2020 7573 7073 6e65        set    suspen
    6dc0:	2064 6874 6572 6461 000a 0000 2020 2d2d     d thread....  --
    6dd0:	2d2d 2d2d 2d2d 2d2d 2d20 2d2d 2d2d 2d2d     -------- -------
    6de0:	2d2d 2d2d 2d2d 0a2d 0000 0000 2d25 2e2a     -------.....%-*.
    6df0:	732a 2020 7830 3025 7838 2520 3330 3a64     *s  0x%08x %03d:
    6e00:	0000 0000 2d25 2e2a 732a 2020 7830 3025     ....%-*.*s  0x%0
    6e10:	7838 3020 000a 0000 616d 6c69 6f62 0078     8x 0....mailbox.
    6e20:	2d25 2e2a 2073 6e65 7274 2079 6973 657a     %-*.s entry size
    6e30:	7320 7375 6570 646e 7420 7268 6165 0a64      suspend thread.
    6e40:	0000 0000 2d20 2d2d 202d 2d20 2d2d 202d     .... ----  ---- 
    6e50:	2d2d 2d2d 2d2d 2d2d 2d2d 2d2d 2d2d 000a     --------------..
    6e60:	2d25 2e2a 732a 2520 3430 2064 2520 3430     %-*.*s %04d  %04
    6e70:	2064 6425 003a 0000 2d25 2e2a 732a 2520     d %d:...%-*.*s %
    6e80:	3430 2064 2520 3430 2064 6425 000a 0000     04d  %04d %d....
    6e90:	736d 7167 6575 6575 0000 0000 2d25 2e2a     msgqueue....%-*.
    6ea0:	2073 6e65 7274 2079 7573 7073 6e65 2064     s entry suspend 
    6eb0:	6874 6572 6461 000a 2d20 2d2d 202d 2d20     thread.. ----  -
    6ec0:	2d2d 2d2d 2d2d 2d2d 2d2d 2d2d 0a2d 0000     -------------...
    6ed0:	2d25 2e2a 732a 2520 3430 2064 2520 3a64     %-*.*s %04d  %d:
    6ee0:	0000 0000 2d25 2e2a 732a 2520 3430 2064     ....%-*.*s %04d 
    6ef0:	2520 0a64 0000 0000 756d 6574 0078 0000      %d.....mutex...
    6f00:	2d25 2e2a 2073 2020 776f 656e 2072 6820     %-*.s   owner  h
    6f10:	6c6f 2064 7573 7073 6e65 2064 6874 6572     old suspend thre
    6f20:	6461 000a 2d20 2d2d 2d2d 2d2d 202d 2d2d     ad.. -------- --
    6f30:	2d2d 2d20 2d2d 2d2d 2d2d 2d2d 2d2d 2d2d     -- -------------
    6f40:	0a2d 0000 2d25 2e2a 732a 2520 382d 2a2e     -...%-*.*s %-8.*
    6f50:	2073 3025 6434 2520 0a64 0000 6573 616d     s %04d %d...sema
    6f60:	6870 726f 0065 0000 2d25 2e2a 2073 2076     phore...%-*.s v 
    6f70:	2020 7573 7073 6e65 2064 6874 6572 6461       suspend thread
    6f80:	000a 0000 2d20 2d2d 2d20 2d2d 2d2d 2d2d     .... --- -------
    6f90:	2d2d 2d2d 2d2d 0a2d 0000 0000 2d25 2e2a     -------.....%-*.
    6fa0:	732a 2520 3330 2064 6425 003a 2d25 2e2a     *s %03d %d:.%-*.
    6fb0:	732a 2520 3330 2064 6425 000a 6874 6572     *s %03d %d..thre
    6fc0:	6461 0000 2d25 2e2a 2073 7270 2069 7320     ad..%-*.s pri  s
    6fd0:	6174 7574 2073 2020 2020 7320 2070 2020     tatus      sp   
    6fe0:	2020 7473 6361 206b 6973 657a 6d20 7861       stack size max
    6ff0:	7520 6573 2064 656c 7466 7420 6369 206b      used left tick 
    7000:	6520 7272 726f 000a 002d 0000 2d20 2d2d      error..-... ---
    7010:	2020 2d2d 2d2d 2d2d 202d 2d2d 2d2d 2d2d       ------- ------
    7020:	2d2d 2d2d 2d20 2d2d 2d2d 2d2d 2d2d 202d     ---- ---------- 
    7030:	2d20 2d2d 2d2d 202d 2d20 2d2d 2d2d 2d2d      ------  -------
    7040:	2d2d 202d 2d2d 0a2d 0000 0000 2d25 2e2a     --- ---.....%-*.
    7050:	732a 2520 6433 0020 7220 6165 7964 2020     *s %3d . ready  
    7060:	0000 0000 7320 7375 6570 646e 0000 0000     .... suspend....
    7070:	6920 696e 2074 2020 0000 0000 6320 6f6c      init   .... clo
    7080:	6573 2020 0000 0000 3020 2578 3830 2078     se  .... 0x%08x 
    7090:	7830 3025 7838 2020 2020 3025 6432 2525     0x%08x    %02d%%
    70a0:	2020 3020 2578 3830 2078 3025 6433 000a        0x%08x %03d..
    70b0:	6974 656d 0072 0000 2d25 2e2a 2073 7020     timer...%-*.s  p
    70c0:	7265 6f69 6964 2063 2020 6974 656d 756f     eriodic   timeou
    70d0:	2074 2020 2020 2020 6c66 6761 000a 0000     t       flag....
    70e0:	2d20 2d2d 2d2d 2d2d 2d2d 202d 2d2d 2d2d      ---------- ----
    70f0:	2d2d 2d2d 2d2d 2d20 2d2d 2d2d 2d2d 2d2d     ------ ---------
    7100:	2d2d 000a 2d25 2e2a 732a 3020 2578 3830     --..%-*.*s 0x%08
    7110:	2078 7830 3025 7838 0020 0000 6361 6974     x 0x%08x ...acti
    7120:	6176 6574 0a64 0000 6564 6361 6974 6176     vated...deactiva
    7130:	6574 0a64 0000 0000 7563 7272 6e65 2074     ted.....current 
    7140:	6974 6b63 303a 2578 3830 0a78 0000 0000     tick:0x%08x.....
    7150:	5b1b 4a32 5b1b 0048 2d2d 7546 636e 6974     .[2J.[H.--Functi
    7160:	6e6f 4c20 7369 3a74 000a 0000 5f5f 0000     on List:....__..
    7170:	2d25 3631 2073 2d2d 2520 0a73 0000 0000     %-16s -- %s.....

00007180 <__fsym_list_desc>:
    7180:	696c 7473 6120 6c6c 7320 6d79 6f62 206c     list all symbol 
    7190:	6e69 7320 7379 6574 006d 0000               in system...

0000719c <__fsym_list_name>:
    719c:	696c 7473 0000 0000                         list....

000071a4 <__fsym___cmd_list_device_desc>:
    71a4:	696c 7473 6420 7665 6369 2065 6e69 7320     list device in s
    71b4:	7379 6574 006d 0000                         ystem...

000071bc <__fsym___cmd_list_device_name>:
    71bc:	5f5f 6d63 5f64 696c 7473 645f 7665 6369     __cmd_list_devic
    71cc:	0065 0000                                   e...

000071d0 <__fsym_list_device_desc>:
    71d0:	696c 7473 6420 7665 6369 2065 6e69 7320     list device in s
    71e0:	7379 6574 006d 0000                         ystem...

000071e8 <__fsym_list_device_name>:
    71e8:	696c 7473 645f 7665 6369 0065               list_device.

000071f4 <__fsym___cmd_list_timer_desc>:
    71f4:	696c 7473 7420 6d69 7265 6920 206e 7973     list timer in sy
    7204:	7473 6d65 0000 0000                         stem....

0000720c <__fsym___cmd_list_timer_name>:
    720c:	5f5f 6d63 5f64 696c 7473 745f 6d69 7265     __cmd_list_timer
    721c:	0000 0000                                   ....

00007220 <__fsym_list_timer_desc>:
    7220:	696c 7473 7420 6d69 7265 6920 206e 7973     list timer in sy
    7230:	7473 6d65 0000 0000                         stem....

00007238 <__fsym_list_timer_name>:
    7238:	696c 7473 745f 6d69 7265 0000               list_timer..

00007244 <__fsym___cmd_list_msgqueue_desc>:
    7244:	696c 7473 6d20 7365 6173 6567 7120 6575     list message que
    7254:	6575 6920 206e 7973 7473 6d65 0000 0000     ue in system....

00007264 <__fsym___cmd_list_msgqueue_name>:
    7264:	5f5f 6d63 5f64 696c 7473 6d5f 6773 7571     __cmd_list_msgqu
    7274:	7565 0065                                   eue.

00007278 <__fsym_list_msgqueue_desc>:
    7278:	696c 7473 6d20 7365 6173 6567 7120 6575     list message que
    7288:	6575 6920 206e 7973 7473 6d65 0000 0000     ue in system....

00007298 <__fsym_list_msgqueue_name>:
    7298:	696c 7473 6d5f 6773 7571 7565 0065 0000     list_msgqueue...

000072a8 <__fsym___cmd_list_mailbox_desc>:
    72a8:	696c 7473 6d20 6961 206c 6f62 2078 6e69     list mail box in
    72b8:	7320 7379 6574 006d                          system.

000072c0 <__fsym___cmd_list_mailbox_name>:
    72c0:	5f5f 6d63 5f64 696c 7473 6d5f 6961 626c     __cmd_list_mailb
    72d0:	786f 0000                                   ox..

000072d4 <__fsym_list_mailbox_desc>:
    72d4:	696c 7473 6d20 6961 206c 6f62 2078 6e69     list mail box in
    72e4:	7320 7379 6574 006d                          system.

000072ec <__fsym_list_mailbox_name>:
    72ec:	696c 7473 6d5f 6961 626c 786f 0000 0000     list_mailbox....

000072fc <__fsym___cmd_list_mutex_desc>:
    72fc:	696c 7473 6d20 7475 7865 6920 206e 7973     list mutex in sy
    730c:	7473 6d65 0000 0000                         stem....

00007314 <__fsym___cmd_list_mutex_name>:
    7314:	5f5f 6d63 5f64 696c 7473 6d5f 7475 7865     __cmd_list_mutex
    7324:	0000 0000                                   ....

00007328 <__fsym_list_mutex_desc>:
    7328:	696c 7473 6d20 7475 7865 6920 206e 7973     list mutex in sy
    7338:	7473 6d65 0000 0000                         stem....

00007340 <__fsym_list_mutex_name>:
    7340:	696c 7473 6d5f 7475 7865 0000               list_mutex..

0000734c <__fsym___cmd_list_event_desc>:
    734c:	696c 7473 6520 6576 746e 6920 206e 7973     list event in sy
    735c:	7473 6d65 0000 0000                         stem....

00007364 <__fsym___cmd_list_event_name>:
    7364:	5f5f 6d63 5f64 696c 7473 655f 6576 746e     __cmd_list_event
    7374:	0000 0000                                   ....

00007378 <__fsym_list_event_desc>:
    7378:	696c 7473 6520 6576 746e 6920 206e 7973     list event in sy
    7388:	7473 6d65 0000 0000                         stem....

00007390 <__fsym_list_event_name>:
    7390:	696c 7473 655f 6576 746e 0000               list_event..

0000739c <__fsym___cmd_list_sem_desc>:
    739c:	696c 7473 7320 6d65 7061 6f68 6572 6920     list semaphore i
    73ac:	206e 7973 7473 6d65 0000 0000               n system....

000073b8 <__fsym___cmd_list_sem_name>:
    73b8:	5f5f 6d63 5f64 696c 7473 735f 6d65 0000     __cmd_list_sem..

000073c8 <__fsym_list_sem_desc>:
    73c8:	696c 7473 7320 6d65 7061 6f68 656e 6920     list semaphone i
    73d8:	206e 7973 7473 6d65 0000 0000               n system....

000073e4 <__fsym_list_sem_name>:
    73e4:	696c 7473 735f 6d65 0000 0000               list_sem....

000073f0 <__fsym___cmd_list_thread_desc>:
    73f0:	696c 7473 7420 7268 6165 0064               list thread.

000073fc <__fsym___cmd_list_thread_name>:
    73fc:	5f5f 6d63 5f64 696c 7473 745f 7268 6165     __cmd_list_threa
    740c:	0064 0000                                   d...

00007410 <__fsym_list_thread_desc>:
    7410:	696c 7473 7420 7268 6165 0064               list thread.

0000741c <__fsym_list_thread_name>:
    741c:	696c 7473 745f 7268 6165 0064               list_thread.

00007428 <__fsym___cmd_clear_desc>:
    7428:	6874 2065 6574 6d72 6e69 6c61 7320 7263     the terminal scr
    7438:	6565 006e                                   een.

0000743c <__fsym___cmd_clear_name>:
    743c:	5f5f 6d63 5f64 6c63 6165 0072               __cmd_clear.

00007448 <__fsym_clear_desc>:
    7448:	6874 2065 6574 6d72 6e69 6c61 7320 7263     the terminal scr
    7458:	6565 006e                                   een.

0000745c <__fsym_clear_name>:
    745c:	6c63 6165 0072 0000                         clear...

00007464 <__fsym___cmd_reboot_desc>:
    7464:	6572 6f62 746f 7420 6568 6220 616f 6472     reboot the board
    7474:	0000 0000                                   ....

00007478 <__fsym___cmd_reboot_name>:
    7478:	5f5f 6d63 5f64 6572 6f62 746f 0000 0000     __cmd_reboot....

00007488 <__fsym_reboot_desc>:
    7488:	6572 6f62 746f 7420 6568 6220 616f 6472     reboot the board
    7498:	0000 0000                                   ....

0000749c <__fsym_reboot_name>:
    749c:	6572 6f62 746f 0000 7325 0000 002f 0000     reboot..%s../...
    74ac:	6e55 6e6b 776f 006e 6843 7261 6361 6574     Unknown.Characte
    74bc:	2072 6544 6976 6563 0000 0000 6c42 636f     r Device....Bloc
    74cc:	206b 6544 6976 6563 0000 0000 654e 7774     k Device....Netw
    74dc:	726f 206b 6e49 6574 6672 6361 0065 0000     ork Interface...
    74ec:	544d 2044 6544 6976 6563 0000 4143 204e     MTD Device..CAN 
    74fc:	6544 6976 6563 0000 5452 0043 6f53 6e75     Device..RTC.Soun
    750c:	2064 6544 6976 6563 0000 0000 7247 7061     d Device....Grap
    751c:	6968 2063 6544 6976 6563 0000 3249 2043     hic Device..I2C 
    752c:	7542 0073 5355 2042 6c53 7661 2065 6544     Bus.USB Slave De
    753c:	6976 6563 0000 0000 5355 2042 6f48 7473     vice....USB Host
    754c:	4220 7375 0000 0000 5053 2049 7542 0073      Bus....SPI Bus.
    755c:	5053 2049 6544 6976 6563 0000 4453 4f49     SPI Device..SDIO
    756c:	4220 7375 0000 0000 4d50 5020 6573 6475      Bus....PM Pseud
    757c:	206f 6544 6976 6563 0000 0000 6950 6570     o Device....Pipe
    758c:	0000 0000 6f50 7472 6c61 4420 7665 6369     ....Portal Devic
    759c:	0065 0000 6954 656d 2072 6544 6976 6563     e...Timer Device
    75ac:	0000 0000 694d 6373 6c65 616c 656e 756f     ....Miscellaneou
    75bc:	2073 6544 6976 6563 0000 0000 7325 203a     s Device....%s: 
    75cc:	6f63 6d6d 6e61 2064 6f6e 2074 6f66 6e75     command not foun
    75dc:	2e64 000a 5452 542d 7268 6165 2064 6873     d...RT-Thread sh
    75ec:	6c65 206c 6f63 6d6d 6e61 7364 0a3a 0000     ell commands:...
    75fc:	5f5f 6d63 5f64 0000 2d25 3631 2073 202d     __cmd_..%-16s - 
    760c:	7325 000a 6f54 206f 616d 796e 6120 6772     %s..Too many arg
    761c:	2073 2021 6557 6f20 6c6e 2079 7355 3a65     s ! We only Use:
    762c:	000a 0000 7325 0020                         ....%s .

00007634 <__fsym___cmd_help_desc>:
    7634:	5452 542d 7268 6165 2064 6873 6c65 206c     RT-Thread shell 
    7644:	6568 706c 0000 0000                         help....

0000764c <__fsym___cmd_help_name>:
    764c:	5f5f 6d63 5f64 6568 706c 0000               __cmd_help..

00007658 <__fsym___cmd_free_desc>:
    7658:	6853 776f 7420 6568 6d20 6d65 726f 2079     Show the memory 
    7668:	7375 6761 2065 6e69 7420 6568 7320 7379     usage in the sys
    7678:	6574 006d                                   tem.

0000767c <__fsym___cmd_free_name>:
    767c:	5f5f 6d63 5f64 7266 6565 0000               __cmd_free..

00007688 <__fsym___cmd_ps_desc>:
    7688:	694c 7473 7420 7268 6165 7364 6920 206e     List threads in 
    7698:	6874 2065 7973 7473 6d65 0000               the system..

000076a4 <__fsym___cmd_ps_name>:
    76a4:	5f5f 6d63 5f64 7370 0000 0000 6966 736e     __cmd_ps....fins
    76b4:	3a68 6320 6e61 6e20 746f 6620 6e69 2064     h: can not find 
    76c4:	6564 6976 6563 203a 7325 000a 6f6e 6d20     device: %s..no m
    76d4:	6d65 726f 2079 6f66 2072 6873 6c65 0a6c     emory for shell.
    76e4:	0000 0000 7374 6568 6c6c 0000 6873 7872     ....tshell..shrx
    76f4:	0000 0000 0008 0000 6325 0000 2508 2073     ........%c...%s 
    7704:	0820 0000 2008 0008 5b1b 4b32 000d 0000      .... ...[2K....
    7714:	7325 7325 0000 0000 616d 6e69 0000 0000     %s%s....main....
    7724:	6f54 6920 696e 6974 6c61 7a69 2065 6564     To initialize de
    7734:	6976 6563 253a 2073 6166 6c69 6465 202e     vice:%s failed. 
    7744:	6854 2065 7265 6f72 2072 6f63 6564 6920     The error code i
    7754:	2073 6425 000a 0000 6974 6c64 0065 0000     s %d....tidle...
    7764:	ca6a ffff ca8e ffff ca8e ffff ca8e ffff     j...............
    7774:	ca8e ffff ca8e ffff ca8e ffff ca8e ffff     ................
    7784:	ca8e ffff ca8e ffff ca8e ffff ca8e ffff     ................
    7794:	ca8e ffff ca8e ffff ca8e ffff ca8e ffff     ................
    77a4:	ca8e ffff ca8e ffff ca8e ffff ca8e ffff     ................
    77b4:	ca8e ffff ca8e ffff ca8e ffff ca8e ffff     ................
    77c4:	ca8e ffff ca8e ffff ca8e ffff ca8e ffff     ................
    77d4:	ca8e ffff ca8e ffff ca8e ffff ca8e ffff     ................
    77e4:	ca8e ffff ca8e ffff ca8e ffff ca8e ffff     ................
    77f4:	ca8e ffff ca8e ffff ca8e ffff ca8e ffff     ................
    7804:	ca8e ffff ca8e ffff ca8e ffff ca8e ffff     ................
    7814:	ca8e ffff ca8e ffff ca8e ffff ca8e ffff     ................
    7824:	ca8e ffff ca8e ffff ca8e ffff ca7e ffff     ............~...
    7834:	ca8e ffff ca8e ffff ca8e ffff ca8e ffff     ................
    7844:	ca8e ffff ca8e ffff ca8e ffff ca8e ffff     ................
    7854:	ca8e ffff ca8e ffff c974 ffff ca86 ffff     ........t.......
    7864:	ca8e ffff ca8e ffff ca8e ffff ca8e ffff     ................
    7874:	ca86 ffff ca8e ffff ca8e ffff ca8e ffff     ................
    7884:	ca8e ffff ca8e ffff ca7a ffff ca3e ffff     ........z...>...
    7894:	ca8e ffff ca8e ffff c9bc ffff ca8e ffff     ................
    78a4:	cab6 ffff ca8e ffff ca8e ffff caba ffff     ................

000078b4 <__lowest_bit_bitmap>:
    78b4:	0000 0001 0002 0001 0003 0001 0002 0001     ................
    78c4:	0004 0001 0002 0001 0003 0001 0002 0001     ................
    78d4:	0005 0001 0002 0001 0003 0001 0002 0001     ................
    78e4:	0004 0001 0002 0001 0003 0001 0002 0001     ................
    78f4:	0006 0001 0002 0001 0003 0001 0002 0001     ................
    7904:	0004 0001 0002 0001 0003 0001 0002 0001     ................
    7914:	0005 0001 0002 0001 0003 0001 0002 0001     ................
    7924:	0004 0001 0002 0001 0003 0001 0002 0001     ................
    7934:	0007 0001 0002 0001 0003 0001 0002 0001     ................
    7944:	0004 0001 0002 0001 0003 0001 0002 0001     ................
    7954:	0005 0001 0002 0001 0003 0001 0002 0001     ................
    7964:	0004 0001 0002 0001 0003 0001 0002 0001     ................
    7974:	0006 0001 0002 0001 0003 0001 0002 0001     ................
    7984:	0004 0001 0002 0001 0003 0001 0002 0001     ................
    7994:	0005 0001 0002 0001 0003 0001 0002 0001     ................
    79a4:	0004 0001 0002 0001 0003 0001 0002 0001     ................

000079b4 <large_digits.2585>:
    79b4:	3130 3332 3534 3736 3938 4241 4443 4645     0123456789ABCDEF
    79c4:	0000 0000 200a 205c 207c 0a2f 0000 0000     ..... \ | /.....
    79d4:	202d 5452 2d20 2020 2020 5420 7268 6165     - RT -     Threa
    79e4:	2064 704f 7265 7461 6e69 2067 7953 7473     d Operating Syst
    79f4:	6d65 000a 6f4e 2076 3932 3220 3230 0034     em..Nov 29 2024.
    7a04:	2f20 7c20 5c20 2020 2020 2520 2e64 6425      / | \     %d.%d
    7a14:	252e 2064 7562 6c69 2064 7325 000a 0000     .%d build %s....
    7a24:	3220 3030 2036 202d 3032 3931 4320 706f      2006 - 2019 Cop
    7a34:	7279 6769 7468 6220 2079 7472 742d 7268     yright by rt-thr
    7a44:	6165 2064 6574 6d61 000a 0000 4e28 4c55     ead team....(NUL
    7a54:	294c 0000                                   L)..

00007a58 <small_digits.2584>:
    7a58:	3130 3332 3534 3736 3938 6261 6463 6665     0123456789abcdef
    7a68:	0000 0000 6f74 6174 206c 656d 6f6d 7972     ....total memory
    7a78:	203a 6425 000a 0000 7375 6465 6d20 6d65     : %d....used mem
    7a88:	726f 2079 203a 6425 000a 0000 616d 6978     ory : %d....maxi
    7a98:	756d 206d 6c61 6f6c 6163 6574 2064 656d     mum allocated me
    7aa8:	6f6d 7972 203a 6425 000a 0000               mory: %d....

00007ab4 <__fsym_list_mem_desc>:
    7ab4:	696c 7473 6d20 6d65 726f 2079 7375 6761     list memory usag
    7ac4:	2065 6e69 6f66 6d72 7461 6f69 006e 0000     e information...

00007ad4 <__fsym_list_mem_name>:
    7ad4:	696c 7473 6d5f 6d65 0000 0000 6f74 6620     list_mem....to f
    7ae4:	6572 2065 2061 6162 2064 6164 6174 6220     ree a bad data b
    7af4:	6f6c 6b63 0a3a 0000 656d 3a6d 3020 2578     lock:...mem: 0x%
    7b04:	3830 2c78 7520 6573 2064 6c66 6761 203a     08x, used flag: 
    7b14:	6425 202c 616d 6967 2063 6f63 6564 203a     %d, magic code: 
    7b24:	7830 3025 7834 000a 6568 7061 0000 0000     0x%04x..heap....
    7b34:	656d 206d 6e69 7469 202c 7265 6f72 2072     mem init, error 
    7b44:	6562 6967 206e 6461 7264 7365 2073 7830     begin address 0x
    7b54:	7825 202c 6e61 2064 6e65 2064 6461 7264     %x, and end addr
    7b64:	7365 2073 7830 7825 000a 0000               ess 0x%x....

00007b70 <__sf_fake_stderr>:
	...

00007b90 <__sf_fake_stdin>:
	...

00007bb0 <__sf_fake_stdout>:
	...
    7bd0:	2d23 2b30 0020 0000 6c68 004c 6665 4567     #-0+ ...hlL.efgE
    7be0:	4746 0000 3130 3332 3534 3736 3938 4241     FG..0123456789AB
    7bf0:	4443 4645 0000 0000 3130 3332 3534 3736     CDEF....01234567
    7c00:	3938 6261 6463 6665 0000 0000               89abcdef....

00007c0c <__fsym___cmd_led>:
    7c0c:	6554 0000 6534 0000 041a 0000               Te..4e......

00007c18 <__fsym_pinRead>:
    7c18:	6ce8 0000 6cc8 0000 1dbe 0000               .l...l......

00007c24 <__fsym_pinWrite>:
    7c24:	6d0c 0000 6cf0 0000 1da0 0000               .m...l......

00007c30 <__fsym_pinMode>:
    7c30:	6d30 0000 6d18 0000 1d82 0000               0m...m......

00007c3c <__fsym_list>:
    7c3c:	719c 0000 7180 0000 2a58 0000               .q...q..X*..

00007c48 <__fsym___cmd_list_device>:
    7c48:	71bc 0000 71a4 0000 2976 0000               .q...q..v)..

00007c54 <__fsym_list_device>:
    7c54:	71e8 0000 71d0 0000 2976 0000               .q...q..v)..

00007c60 <__fsym___cmd_list_timer>:
    7c60:	720c 0000 71f4 0000 2a44 0000               .r...q..D*..

00007c6c <__fsym_list_timer>:
    7c6c:	7238 0000 7220 0000 2a44 0000               8r.. r..D*..

00007c78 <__fsym___cmd_list_msgqueue>:
    7c78:	7264 0000 7244 0000 2896 0000               dr..Dr...(..

00007c84 <__fsym_list_msgqueue>:
    7c84:	7298 0000 7278 0000 2896 0000               .r..xr...(..

00007c90 <__fsym___cmd_list_mailbox>:
    7c90:	72c0 0000 72a8 0000 27a4 0000               .r...r...'..

00007c9c <__fsym_list_mailbox>:
    7c9c:	72ec 0000 72d4 0000 27a4 0000               .r...r...'..

00007ca8 <__fsym___cmd_list_mutex>:
    7ca8:	7314 0000 72fc 0000 26ac 0000               .s...r...&..

00007cb4 <__fsym_list_mutex>:
    7cb4:	7340 0000 7328 0000 26ac 0000               @s..(s...&..

00007cc0 <__fsym___cmd_list_event>:
    7cc0:	7364 0000 734c 0000 25fe 0000               ds..Ls...%..

00007ccc <__fsym_list_event>:
    7ccc:	7390 0000 7378 0000 25fe 0000               .s..xs...%..

00007cd8 <__fsym___cmd_list_sem>:
    7cd8:	73b8 0000 739c 0000 2522 0000               .s...s.."%..

00007ce4 <__fsym_list_sem>:
    7ce4:	73e4 0000 73c8 0000 2522 0000               .s...s.."%..

00007cf0 <__fsym___cmd_list_thread>:
    7cf0:	73fc 0000 73f0 0000 2434 0000               .s...s..4$..

00007cfc <__fsym_list_thread>:
    7cfc:	741c 0000 7410 0000 2434 0000               .t...t..4$..

00007d08 <__fsym___cmd_clear>:
    7d08:	743c 0000 7428 0000 226e 0000               <t..(t..n"..

00007d14 <__fsym_clear>:
    7d14:	745c 0000 7448 0000 226e 0000               \t..Ht..n"..

00007d20 <__fsym___cmd_reboot>:
    7d20:	7478 0000 7464 0000 225c 0000               xt..dt..\"..

00007d2c <__fsym_reboot>:
    7d2c:	749c 0000 7488 0000 225c 0000               .t...t..\"..

00007d38 <__fsym___cmd_help>:
    7d38:	764c 0000 7634 0000 2bd2 0000               Lv..4v...+..

00007d44 <__fsym___cmd_free>:
    7d44:	767c 0000 7658 0000 2e42 0000               |v..Xv..B...

00007d50 <__fsym___cmd_ps>:
    7d50:	76a4 0000 7688 0000 2e32 0000               .v...v..2...

00007d5c <__fsym_list_mem>:
    7d5c:	7ad4 0000 7ab4 0000 447c 0000               .z...z..|D..

00007d68 <__rt_init_rti_start>:
    7d68:	36b4 0000                                   .6..

00007d6c <__rt_init_rti_board_start>:
    7d6c:	36b8 0000                                   .6..

00007d70 <__rt_init_rt_hw_pin_init>:
    7d70:	0fd6 0000                                   ....

00007d74 <__rt_init_rt_hw_usart_init>:
    7d74:	19e0 0000                                   ....

00007d78 <__rt_init_rti_board_end>:
    7d78:	36bc 0000                                   .6..

00007d7c <__rt_init_finsh_system_init>:
    7d7c:	352a 0000                                   *5..

00007d80 <__rt_init_rti_end>:
    7d80:	36c0 0000                                   .6..
