
E:/MyCode/VSCode/WCH/CH32V307VCT6_CMake_RT_Thread_2024_11_27/build/CH32V307VCT6_CMake_RT_Thread_2024_11_27.elf:     file format elf32-littleriscv
E:/MyCode/VSCode/WCH/CH32V307VCT6_CMake_RT_Thread_2024_11_27/build/CH32V307VCT6_CMake_RT_Thread_2024_11_27.elf
architecture: riscv:rv32, flags 0x00000112:
EXEC_P, HAS_SYMS, D_PAGED
start address 0x00000000

Program Header:
    LOAD off    0x00001000 vaddr 0x00000000 paddr 0x00000000 align 2**12
         filesz 0x00007dac memsz 0x00007dac flags r-x
    LOAD off    0x00009000 vaddr 0x20000000 paddr 0x00007dac align 2**12
         filesz 0x000001d8 memsz 0x00001778 flags rw-
    LOAD off    0x00009800 vaddr 0x2000f800 paddr 0x2000f800 align 2**12
         filesz 0x00000000 memsz 0x00000800 flags rw-

Sections:
Idx Name          Size      VMA       LMA       File off  Algn
  0 .init         00000004  00000000  00000000  00001000  2**1
                  CONTENTS, ALLOC, LOAD, READONLY, CODE
  1 .vector       000001bc  00000004  00000004  00001004  2**1
                  CONTENTS, ALLOC, LOAD, READONLY, CODE
  2 .text         00007bec  000001c0  000001c0  000011c0  2**2
                  CONTENTS, ALLOC, LOAD, READONLY, CODE
  3 .fini         00000000  00007dac  00007dac  000091d8  2**0
                  CONTENTS, ALLOC, LOAD, CODE
  4 .dalign       00000000  20000000  20000000  000091d8  2**0
                  CONTENTS
  5 .dlalign      00000000  00007dac  00007dac  000091d8  2**0
                  CONTENTS
  6 .data         000001d8  20000000  00007dac  00009000  2**2
                  CONTENTS, ALLOC, LOAD, DATA
  7 .bss          000015a0  200001d8  00007f84  000091d8  2**2
                  ALLOC
  8 .stack        00000800  2000f800  2000f800  00009800  2**0
                  ALLOC
  9 .comment      00000033  00000000  00000000  000091d8  2**0
                  CONTENTS, READONLY
 10 .debug_frame  00000940  00000000  00000000  0000920c  2**2
                  CONTENTS, READONLY, DEBUGGING
 11 .stab         00000084  00000000  00000000  00009b4c  2**2
                  CONTENTS, READONLY, DEBUGGING
 12 .stabstr      00000117  00000000  00000000  00009bd0  2**0
                  CONTENTS, READONLY, DEBUGGING
SYMBOL TABLE:
00000000 l    d  .init	00000000 .init
00000004 l    d  .vector	00000000 .vector
000001c0 l    d  .text	00000000 .text
00007dac l    d  .fini	00000000 .fini
20000000 l    d  .dalign	00000000 .dalign
00007dac l    d  .dlalign	00000000 .dlalign
20000000 l    d  .data	00000000 .data
200001d8 l    d  .bss	00000000 .bss
2000f800 l    d  .stack	00000000 .stack
00000000 l    d  .comment	00000000 .comment
00000000 l    d  .debug_frame	00000000 .debug_frame
00000000 l    d  .stab	00000000 .stab
00000000 l    d  .stabstr	00000000 .stabstr
00000000 l    df *ABS*	00000000 CMakeFiles/CH32V307VCT6_CMake_RT_Thread_2024_11_27.elf.dir/Startup/startup_ch32v30x_D8C.S.obj
00000004 l       .vector	00000000 _vector_base
00000000 l    df *ABS*	00000000 led.c
00000000 l    df *ABS*	00000000 core_riscv.c
00000000 l    df *ABS*	00000000 debug.c
200001c0 l     O .data	00000004 curbrk.5280
00000000 l    df *ABS*	00000000 ch32v30x_dbgmcu.c
00000000 l    df *ABS*	00000000 ch32v30x_exti.c
00000000 l    df *ABS*	00000000 ch32v30x_gpio.c
00000000 l    df *ABS*	00000000 ch32v30x_rcc.c
20000000 l     O .data	00000010 APBAHBPrescTable
200001c4 l     O .data	00000004 ADCPrescTable
00000000 l    df *ABS*	00000000 ch32v30x_usart.c
00000000 l    df *ABS*	00000000 ch32v30x_it.c
00000000 l    df *ABS*	00000000 main.c
00000000 l    df *ABS*	00000000 system_ch32v30x.c
00000000 l    df *ABS*	00000000 drv_gpio.c
00000e62 l     F .text	00000008 GPIOD_CLK_ENABLE
00000e6a l     F .text	00000006 GPIOB_CLK_ENABLE
00000e70 l     F .text	00000006 GPIOA_CLK_ENABLE
00000e76 l     F .text	00000006 GPIOC_CLK_ENABLE
00000e7c l     F .text	00000008 GPIOE_CLK_ENABLE
000065e8 l     O .text	00000018 _ch32_pin_ops
00006600 l     O .text	00000080 pin_irq_map
00006680 l     O .text	00000650 pins
00000000 l    df *ABS*	00000000 drv_usart.c
00001794 l     F .text	0000010a ch32_configure
00001966 l     F .text	0000002a ch32_getc
00001990 l     F .text	0000002e ch32_putc
000019be l     F .text	0000006e ch32_control
00006cd4 l     O .text	00000014 ch32_uart_ops
00000000 l    df *ABS*	00000000 board.c
200002f8 l     O .bss	00001000 rt_heap
00000000 l    df *ABS*	00000000 pin.c
00001bbc l     F .text	00000022 _pin_control
00001c1e l     F .text	00000036 _pin_read
00001c54 l     F .text	00000032 _pin_write
200012f8 l     O .bss	00000048 _hw_pin
00000000 l    df *ABS*	00000000 serial.c
00001cde l     F .text	0000001c rt_serial_init
00001cfa l     F .text	00000066 rt_serial_write
00001d60 l     F .text	000000c8 rt_serial_open
00001e28 l     F .text	00000094 rt_serial_control
00001ebc l     F .text	000000d0 rt_serial_read
00001f8c l     F .text	0000004e rt_serial_close
00000000 l    df *ABS*	00000000 cmd.c
0000212c l     F .text	00000050 show_wait_queue
0000217c l     F .text	0000005c object_name_maxlen
00000000 l    df *ABS*	00000000 msh.c
00000000 l    df *ABS*	00000000 msh_cmd.c
00000000 l    df *ABS*	00000000 shell.c
00002dc6 l     F .text	00000016 finsh_rx_ind
00002ef2 l     F .text	00000032 shell_handle_history
20001340 l     O .bss	00000081 finsh_prompt.4329
00000000 l    df *ABS*	00000000 cpuport.c
00000000 l    df *ABS*	00000000 clock.c
200001f8 l     O .bss	00000004 rt_tick
00000000 l    df *ABS*	00000000 components.c
00003572 l     F .text	00000004 rti_start
000035ca l     F .text	00000004 rti_board_end
000035c2 l     F .text	00000004 rti_end
000035c6 l     F .text	00000004 rti_board_start
00000000 l    df *ABS*	00000000 device.c
00000000 l    df *ABS*	00000000 idle.c
0000391a l     F .text	00000028 rt_thread_idle_entry
200013c4 l     O .bss	00000080 idle
20001444 l     O .bss	00000010 idle_hook_list
20001454 l     O .bss	00000200 rt_thread_stack
00000000 l    df *ABS*	00000000 ipc.c
00000000 l    df *ABS*	00000000 irq.c
200001fc l     O .bss	00000004 rt_interrupt_enter_hook
20000200 l     O .bss	00000004 rt_interrupt_leave_hook
00000000 l    df *ABS*	00000000 kservice.c
00003b6a l     F .text	0000020a print_number
20001654 l     O .bss	00000080 rt_log_buf.2695
000079dc l     O .text	00000011 large_digits.2585
00007a80 l     O .text	00000011 small_digits.2584
20000208 l     O .bss	00000004 __rt_errno
2000020c l     O .bss	00000004 _console_device
00000000 l    df *ABS*	00000000 mem.c
000044a4 l     F .text	00000068 plug_holes
200016d4 l     O .bss	00000020 heap_sem
20000210 l     O .bss	00000004 heap_end
20000214 l     O .bss	00000004 heap_ptr
20000218 l     O .bss	00000004 lfree
2000021c l     O .bss	00000004 max_mem
20000220 l     O .bss	00000004 mem_size_aligned
20000224 l     O .bss	00000004 rt_free_hook
20000228 l     O .bss	00000004 rt_malloc_hook
2000022c l     O .bss	00000004 used_mem
00000000 l    df *ABS*	00000000 object.c
200000e0 l     O .data	00000080 rt_object_container
20000230 l     O .bss	00000004 rt_object_attach_hook
20000234 l     O .bss	00000004 rt_object_detach_hook
00000000 l    df *ABS*	00000000 scheduler.c
2000024c l     O .bss	00000004 rt_scheduler_hook
20000250 l     O .bss	00000002 rt_scheduler_lock_nest
00000000 l    df *ABS*	00000000 thread.c
00004cb0 l     F .text	00000094 _rt_thread_init.isra.0
20000260 l     O .bss	00000004 rt_thread_inited_hook
20000264 l     O .bss	00000004 rt_thread_resume_hook
20000268 l     O .bss	00000004 rt_thread_suspend_hook
00000000 l    df *ABS*	00000000 timer.c
2000026c l     O .bss	00000004 random_nr.2485
20000270 l     O .bss	00000004 rt_timer_enter_hook
20000274 l     O .bss	00000004 rt_timer_exit_hook
20000278 l     O .bss	00000008 rt_timer_list
00000000 l    df *ABS*	00000000 memcmp.c
00000000 l    df *ABS*	00000000 memcpy.c
00000000 l    df *ABS*	00000000 nano-mallocr.c
00000000 l    df *ABS*	00000000 nano-mallocr.c
00000000 l    df *ABS*	00000000 printf.c
00000000 l    df *ABS*	00000000 sbrkr.c
00000000 l    df *ABS*	00000000 strlen.c
00000000 l    df *ABS*	00000000 strncmp.c
00000000 l    df *ABS*	00000000 findfp.c
00005518 l     F .text	0000006a std
00000000 l    df *ABS*	00000000 fwalk.c
00000000 l    df *ABS*	00000000 mlock.c
00000000 l    df *ABS*	00000000 nano-vfprintf.c
00005750 l     F .text	00000028 __sfputc_r
00000000 l    df *ABS*	00000000 nano-vfprintf_i.c
00000000 l    df *ABS*	00000000 stdio.c
00000000 l    df *ABS*	00000000 wbuf.c
00000000 l    df *ABS*	00000000 writer.c
00000000 l    df *ABS*	00000000 wsetup.c
00000000 l    df *ABS*	00000000 closer.c
00000000 l    df *ABS*	00000000 fflush.c
00000000 l    df *ABS*	00000000 lseekr.c
00000000 l    df *ABS*	00000000 makebuf.c
00000000 l    df *ABS*	00000000 memchr.c
00000000 l    df *ABS*	00000000 readr.c
00000000 l    df *ABS*	00000000 fstatr.c
00000000 l    df *ABS*	00000000 isattyr.c
00000000 l    df *ABS*	00000000 close.c
00000000 l    df *ABS*	00000000 fstat.c
00000000 l    df *ABS*	00000000 isatty.c
00000000 l    df *ABS*	00000000 lseek.c
00000000 l    df *ABS*	00000000 read.c
00000000 l    df *ABS*	00000000 impure.c
20000160 l     O .data	00000060 impure_data
00000000 l    df *ABS*	00000000 reent.c
0000142a g     F .text	00000086 EXTI2_IRQHandler
00000a34  w      .text	00000000 TIM8_TRG_COM_IRQHandler
00004734 g     F .text	00000028 rt_calloc
00000a34  w      .text	00000000 TIM8_CC_IRQHandler
00007d24 g     O .text	0000000c __fsym_list_thread
0000366c g     F .text	0000000e entry
00006458 g     F .text	00000030 _isatty_r
000021d8 g     F .text	0000016e list_thread
00002fc0 g     F .text	000004d4 finsh_thread_entry
00004a20 g     F .text	00000008 rt_object_is_systemobject
00003e6a g     F .text	00000036 rt_strncpy
00003494 g     F .text	00000034 rt_hw_stack_init
000062ac g     F .text	00000034 _lseek_r
00004f0c g     F .text	0000000e rt_thread_mdelay
00000a34  w      .text	00000000 UART8_IRQHandler
00002a50 g     F .text	0000023e msh_exec
00007314 g     O .text	0000000d __fsym_list_mailbox_name
0000493a g     F .text	000000ac rt_object_allocate
00007c40 g     O .text	0000000c __fsym_pinRead
000078dc g     O .text	00000100 __lowest_bit_bitmap
0000546a g     F .text	0000003e printf
200009c0 g       .data	00000000 __global_pointer$
00004a62 g     F .text	00000032 rt_system_scheduler_start
00000a34  w      .text	00000000 TIM1_CC_IRQHandler
00000496 g     F .text	00000030 LED1_BLINK_INIT
200001f0 g     O .bss	00000004 rt_interrupt_to_thread
00005e92 g     F .text	00000036 __sseek
000055d4 g     F .text	0000006c __sinit
00005ece g     F .text	000000c2 __swbuf_r
00000b3c g     F .text	00000074 HardFault_Handler
0000558c g     F .text	00000048 __sfmoreglue
0000574e g     F .text	00000002 __malloc_unlock
0000740c g     O .text	00000009 __fsym_list_sem_name
00000a34  w      .text	00000000 TIM6_IRQHandler
00003878 g     F .text	00000006 rt_device_set_rx_indicate
00001b48 g     F .text	00000074 SysTick_Handler
0000475c g     F .text	000000d6 rt_free
0000655c g     O .text	00000020 __fsym___cmd_led_desc
200001ec g     O .bss	00000004 rt_interrupt_from_thread
00004546 g     F .text	0000008c rt_system_heap_init
00000a34  w      .text	00000000 PVD_IRQHandler
00003576 g     F .text	0000004c main_thread_entry
00000a34  w      .text	00000000 SDIO_IRQHandler
000074c4 g     O .text	00000007 __fsym_reboot_name
00000a34  w      .text	00000000 TIM9_BRK_IRQHandler
0000515a g     F .text	000000b6 rt_timer_check
00004b1e g     F .text	00000054 rt_schedule_insert_thread
00002346 g     F .text	000000e2 list_sem
00003730 g     F .text	0000009c rt_device_open
00000a34  w      .text	00000000 DMA2_Channel8_IRQHandler
00000ac8 g     F .text	00000074 NMI_Handler
00000a34  w      .text	00000000 CAN2_RX1_IRQHandler
000014b0 g     F .text	00000086 EXTI3_IRQHandler
0000054c g     F .text	0000000a DBGMCU_GetCHIPID
0000295e g     F .text	00000070 list
00007afc g     O .text	00000009 __fsym_list_mem_name
200001e4 g     O .bss	00000004 _sysvar_table_begin
0000733c g     O .text	00000011 __fsym___cmd_list_mutex_name
00007dac g       .text	00000000 __rtmsymtab_start
00000a34  w      .text	00000000 USBHS_IRQHandler
000009ca g     F .text	0000000c USART_GetFlagStatus
00000a34  w      .text	00000000 DMA2_Channel9_IRQHandler
00006426 g     F .text	00000032 _fstat_r
0000387e g     F .text	0000009c rt_thread_idle_excute
00004e5e g     F .text	0000005e rt_thread_suspend
0000436c g     F .text	00000086 rt_kprintf
00000a34  w      .text	00000000 TIM10_CC_IRQHandler
20001774 g     O .bss	00000004 errno
00003b64 g     F .text	00000006 rt_interrupt_get_nest
200001d8 g       .bss	00000000 _sbss
00000800 g       *ABS*	00000000 __stack_size
00004c8c g     F .text	00000024 rt_thread_timeout
00007464 g     O .text	0000000c __fsym___cmd_clear_name
00002db6 g     F .text	00000010 cmd_free
00000a34  w      .text	00000000 USBFS_IRQHandler
000073a0 g     O .text	00000015 __fsym_list_event_desc
00007cac g     O .text	0000000c __fsym_list_msgqueue
00007d90 g       .text	00000000 __rt_init_start
000025c4 g     F .text	000000e8 list_mailbox
00006d40 g     O .text	00000016 __fsym_pinMode_desc
00007d90 g       .text	00000000 __fsymtab_end
00001bf4 g     F .text	00000016 rt_pin_write
00007450 g     O .text	00000014 __fsym___cmd_clear_desc
00003818 g     F .text	00000030 rt_device_read
200001d8 g     O .bss	00000004 shell
00005242 g     F .text	000000b6 memcpy
00005582 g     F .text	0000000a _cleanup_r
00002ddc g     F .text	000000a4 finsh_system_init
0000131c g     F .text	00000086 EXTI0_IRQHandler
00000a34  w      .text	00000000 I2C2_EV_IRQHandler
00000a34  w      .text	00000000 TIM10_TRG_COM_IRQHandler
00004fa8 g     F .text	0000004e rt_timer_init
00007dac g       .text	00000000 __rt_init_end
00003942 g     F .text	00000044 rt_thread_idle_init
200001c8 g     O .data	00000004 SystemCoreClock
00007cdc g     O .text	0000000c __fsym_list_mutex
200001e0 g     O .bss	00000004 _syscall_table_end
200002e0 g     O .bss	00000018 uart1
00004a28 g     F .text	0000003a rt_system_scheduler_init
0000367a g     F .text	00000072 rt_device_find
000001c0 g       .text	00000000 rt_hw_context_switch_to
00006498 g     F .text	00000010 _fstat
00007d98 g     O .text	00000004 __rt_init_rt_hw_pin_init
00000004 g       .init	00000000 _einit
200001f4 g     O .bss	00000004 rt_thread_switch_interrupt_flag
00000898 g     F .text	0000001e RCC_APB2PeriphClockCmd
00000a34  w      .text	00000000 CAN2_SCE_IRQHandler
00007da8 g     O .text	00000004 __rt_init_rti_end
00000a34  w      .text	00000000 ADC1_2_IRQHandler
000005ec g     F .text	000000d4 GPIO_Init
000073e0 g     O .text	0000000f __fsym___cmd_list_sem_name
00000a34  w      .text	00000000 Break_Point_Handler
00007ca0 g     O .text	0000000c __fsym___cmd_list_msgqueue
000071a8 g     O .text	0000001a __fsym_list_desc
00000a34  w      .text	00000000 SPI1_IRQHandler
00001fda g     F .text	00000052 rt_hw_serial_register
00000964 g     F .text	00000020 USART_Cmd
000034e8 g     F .text	00000026 rt_hw_context_switch_interrupt
000071c4 g     O .text	00000005 __fsym_list_name
000074a0 g     O .text	0000000d __fsym___cmd_reboot_name
000054a8 g     F .text	00000032 _sbrk_r
00000a34  w      .text	00000000 TAMPER_IRQHandler
00007418 g     O .text	0000000c __fsym___cmd_list_thread_desc
000063f2 g     F .text	00000034 _read_r
00007484 g     O .text	00000006 __fsym_clear_name
00004d98 g     F .text	0000005e rt_thread_create
00007dac g       .text	00000000 __rtmsymtab_end
00007260 g     O .text	0000000b __fsym_list_timer_name
00000a1e g     F .text	00000016 USART_ClearITPendingBit
00000a34  w      .text	00000000 CAN2_RX0_IRQHandler
0000657c g     O .text	0000000a __fsym___cmd_led_name
00004df6 g     F .text	00000068 rt_thread_yield
00003618 g     F .text	0000002a rt_application_init
00000a34  w      .text	00000000 TIM8_UP_IRQHandler
00000a34  w      .text	00000000 Ecall_M_Mode_Handler
000045d2 g     F .text	00000162 rt_malloc
2000f800 g       .stack	00000000 _heap_end
000064a8 g     F .text	00000010 _isatty
00003ab8 g     F .text	0000005c rt_sem_release
00007d0c g     O .text	0000000c __fsym_list_sem
200001d0 g     O .data	00000004 _global_impure_ptr
00001ac0  w    F .text	0000000a rt_heap_begin_get
00007c64 g     O .text	0000000c __fsym_list
00000a34  w      .text	00000000 DMA2_Channel2_IRQHandler
00000a34  w      .text	00000000 DMA1_Channel4_IRQHandler
00000516 g     F .text	00000036 _sbrk
20000020 g     O .data	000000c0 pin_irq_hdr_tab
00007424 g     O .text	00000012 __fsym___cmd_list_thread_name
00006d58 g     O .text	00000008 __fsym_pinMode_name
00007d48 g     O .text	0000000c __fsym___cmd_reboot
000072fc g     O .text	00000018 __fsym_list_mailbox_desc
00004ff6 g     F .text	00000030 rt_timer_detach
00000a34  w      .text	00000000 TIM9_UP_IRQHandler
00002a4c g     F .text	00000004 msh_is_used
00000a34  w      .text	00000000 USART3_IRQHandler
000005e2 g     F .text	0000000a EXTI_ClearITPendingBit
000035ce g     F .text	0000004a rt_components_board_init
000074b0 g     O .text	00000011 __fsym_reboot_desc
00000a34  w      .text	00000000 RTC_IRQHandler
000043f2 g     F .text	0000003e rt_show_version
20001778 g       .bss	00000000 _ebss
000009d6 g     F .text	00000048 USART_GetITStatus
00007d90 g     O .text	00000004 __rt_init_rti_start
00000a34  w      .text	00000000 DMA1_Channel7_IRQHandler
00001ad4 g     F .text	00000074 rt_hw_board_init
00001c86 g     F .text	00000058 rt_device_pin_register
00007d30 g     O .text	0000000c __fsym___cmd_clear
00000a34  w      .text	00000000 CAN1_RX1_IRQHandler
00004f1a g     F .text	0000005c rt_thread_resume
00003642 g     F .text	0000002a rtthread_startup
000010ac g     F .text	00000094 ch32_pin_dettach_irq
00000a34  w      .text	00000000 DVP_IRQHandler
00000a34  w      .text	00000000 UART5_IRQHandler
000072c0 g     O .text	0000000e __fsym_list_msgqueue_name
00005114 g     F .text	00000046 rt_timer_control
00004832 g     F .text	00000028 rt_object_get_information
200016f4 g     O .bss	00000080 rt_thread_priority_table
000006ca g     F .text	00000004 GPIO_SetBits
20000288 g     O .bss	00000058 serial1
00000a34  w      .text	00000000 TIM4_IRQHandler
00006cf0 g     O .text	0000001e __fsym_pinRead_desc
00002114 g     F .text	00000018 clear
20000238 g     O .bss	00000004 rt_object_put_hook
000006d2 g     F .text	0000000a GPIO_WriteBit
00004c2a g     F .text	00000062 rt_thread_exit
00000a34  w      .text	00000000 DMA2_Channel1_IRQHandler
00007374 g     O .text	00000015 __fsym___cmd_list_event_desc
0000041a g     F .text	0000007c led
000036ec g     F .text	00000044 rt_device_register
00003e2a g     F .text	00000040 rt_memmove
00007b98 g     O .text	00000020 __sf_fake_stderr
00002102 g     F .text	00000012 reboot
00000a34  w      .text	00000000 I2C1_EV_IRQHandler
00007cb8 g     O .text	0000000c __fsym___cmd_list_mailbox
00000706 g     F .text	00000192 RCC_GetClocksFreq
00006d34 g     O .text	00000009 __fsym_pinWrite_name
00000a34  w      .text	00000000 DMA1_Channel6_IRQHandler
000026ac g     F .text	000000e6 list_msgqueue
00005778 g     F .text	00000044 __sfputs_r
00000a34  w      .text	00000000 UART4_IRQHandler
00000a34  w      .text	00000000 DMA2_Channel4_IRQHandler
000063d8 g     F .text	0000001a memchr
000008b6 g     F .text	000000ae USART_Init
000052f8 g     F .text	000000a4 _free_r
00000a34  w      .text	00000000 TIM3_IRQHandler
00000a34  w      .text	00000000 RCC_IRQHandler
00003ee4 g     F .text	0000001a rt_strlen
00000a34  w      .text	00000000 TIM1_TRG_COM_IRQHandler
00007d54 g     O .text	0000000c __fsym_reboot
00007d60 g     O .text	0000000c __fsym___cmd_help
00000a34  w      .text	00000000 DMA1_Channel1_IRQHandler
20000244 g     O .bss	00000001 rt_current_priority
00000ef0 g     F .text	000000be ch32_pin_mode
00007c88 g     O .text	0000000c __fsym___cmd_list_timer
00000000 g       .init	00000000 _start
000072d0 g     O .text	00000018 __fsym___cmd_list_mailbox_desc
00000a34  w      .text	00000000 DMA2_Channel7_IRQHandler
20000010 g     O .data	00000010 AHBPrescTable
000064b8 g     F .text	00000010 _lseek
00002428 g     F .text	000000e0 list_event
00001694 g     F .text	000000fc EXTI15_10_IRQHandler
000054ec g     F .text	0000002c strncmp
00001bde g     F .text	00000016 rt_pin_mode
00000984 g     F .text	0000003c USART_ITConfig
00007c58 g     O .text	0000000c __fsym_pinMode
000071cc g     O .text	00000016 __fsym___cmd_list_device_desc
00000556 g     F .text	0000006e EXTI_Init
00007c7c g     O .text	0000000c __fsym_list_device
00007cd0 g     O .text	0000000c __fsym___cmd_list_mutex
00001c0a g     F .text	00000014 rt_pin_read
00007674 g     O .text	0000000b __fsym___cmd_help_name
00003516 g     F .text	00000034 rt_tick_increase
0000450c g     F .text	0000003a list_mem
000076b0 g     O .text	0000001b __fsym___cmd_ps_desc
000006ce g     F .text	00000004 GPIO_ResetBits
00007350 g     O .text	00000015 __fsym_list_mutex_desc
00000a34  w      .text	00000000 TIM7_IRQHandler
000050ca g     F .text	0000004a rt_timer_stop
000060d6 g     F .text	00000030 _close_r
00000a34  w      .text	00000000 CAN2_TX_IRQHandler
00007680 g     O .text	00000024 __fsym___cmd_free_desc
20000000 g       .dalign	00000000 _data_vma
00003efe g     F .text	00000426 rt_vsnprintf
00007d18 g     O .text	0000000c __fsym___cmd_list_thread
00000a34  w      .text	00000000 TIM5_IRQHandler
0000521c g     F .text	00000026 memcmp
00000e84 g     F .text	00000030 ch32_pin_write
00005fc6 g     F .text	00000110 __swsetup_r
000015bc g     F .text	000000d8 EXTI9_5_IRQHandler
00007470 g     O .text	00000014 __fsym_clear_desc
000034c8 g     F .text	0000000e sw_clearpend
00005640 g     F .text	000000a0 __sfp
0000354a g     F .text	00000028 rt_tick_from_millisecond
200001dc g     O .bss	00000004 _syscall_table_begin
00001aca  w    F .text	0000000a rt_heap_end_get
000006dc g     F .text	0000002a GPIO_EXTILineConfig
00001790 g     F .text	00000004 ch32dma_transmit
00005e14 g     F .text	00000030 __sread
00002e80 g     F .text	00000072 finsh_get_prompt
00000a34  w      .text	00000000 ETH_WKUP_IRQHandler
0000574c g     F .text	00000002 __malloc_lock
00006244 g     F .text	00000068 _fflush_r
00004430 g     F .text	00000074 __rt_ffs
000005c4 g     F .text	0000001e EXTI_GetITStatus
00000a34  w      .text	00000000 SPI2_IRQHandler
00007bb8 g     O .text	00000020 __sf_fake_stdin
00002c8e g     F .text	00000118 msh_auto_complete
200001e8 g     O .bss	00000004 _sysvar_table_end
00004bcc g     F .text	0000001e rt_enter_critical
00004ebc g     F .text	00000050 rt_thread_sleep
00000372 g     F .text	000000a8 memset
00000bb0 g     F .text	00000072 main
0000765c g     O .text	00000015 __fsym___cmd_help_desc
00000a34  w      .text	00000000 TIM10_BRK_IRQHandler
00003b3c g     F .text	00000028 rt_interrupt_leave
00000a34  w      .text	00000000 TIM9_CC_IRQHandler
00007234 g     O .text	00000011 __fsym___cmd_list_timer_name
00005ec8 g     F .text	00000006 __sclose
00000a34  w      .text	00000000 DMA2_Channel5_IRQHandler
0000521a g     F .text	00000002 rt_system_timer_thread_init
00004d44 g     F .text	0000004c rt_thread_init
0000539c g     F .text	000000ce _malloc_r
0000721c g     O .text	00000015 __fsym___cmd_list_timer_desc
000004c6 g     F .text	00000004 __get_SP
00007d90 g       .text	00000000 __vsymtab_start
00000a34  w      .text	00000000 DMA1_Channel5_IRQHandler
00001536 g     F .text	00000086 EXTI4_IRQHandler
000073c4 g     O .text	00000019 __fsym___cmd_list_sem_desc
20000204 g     O .bss	00000001 rt_interrupt_nest
00000a34  w      .text	00000000 USB_LP_CAN1_RX0_IRQHandler
0000748c g     O .text	00000011 __fsym___cmd_reboot_desc
00007324 g     O .text	00000015 __fsym___cmd_list_mutex_desc
0000436a  w    F .text	00000002 rt_hw_console_output
2000023c g     O .bss	00000004 rt_object_take_hook
00002886 g     F .text	000000d8 list_timer
0000726c g     O .text	0000001d __fsym___cmd_list_msgqueue_desc
00000c22 g     F .text	0000010a SystemInit
00000a34  w      .text	00000000 RNG_IRQHandler
000076a4 g     O .text	0000000b __fsym___cmd_free_name
000034d6 g     F .text	0000000c rt_hw_interrupt_disable
00004f76 g     F .text	00000032 rt_thread_startup
20000248 g     O .bss	00000004 rt_current_thread
0000546a g     F .text	0000003e iprintf
00004324 g     F .text	00000008 rt_console_get_device
00000a34  w      .text	00000000 USB_HP_CAN1_TX_IRQHandler
00000000 g       .init	00000000 _sinit
00007368 g     O .text	0000000b __fsym_list_mutex_name
00005f90 g     F .text	00000036 _write_r
00000a34  w      .text	00000000 DMA1_Channel3_IRQHandler
2000025c g     O .bss	00000004 rt_thread_ready_priority_group
00000a34  w      .text	00000000 ETH_IRQHandler
00005a5c g     F .text	0000010c _printf_common
00007d6c g     O .text	0000000c __fsym___cmd_free
200001cc g     O .data	00000004 _impure_ptr
00000a34  w      .text	00000000 TIM1_UP_IRQHandler
000072e8 g     O .text	00000013 __fsym___cmd_list_mailbox_name
00006106 g     F .text	0000013e __sflush_r
000071e4 g     O .text	00000012 __fsym___cmd_list_device_name
20000254 g     O .bss	00000008 rt_thread_defunct
00007da0 g     O .text	00000004 __rt_init_rti_board_end
00000a34  w      .text	00000000 WWDG_IRQHandler
00007c4c g     O .text	0000000c __fsym_pinWrite
00003986 g     F .text	00000036 rt_sem_init
00000236 g       .text	00000000 rt_hw_context_switch_exit
00000a34  w      .text	00000000 USBHSWakeup_IRQHandler
00003d9c g     F .text	0000008e rt_memset
00002792 g     F .text	000000f4 list_device
00000a34  w      .text	00000000 DMA2_Channel11_IRQHandler
00007cc4 g     O .text	0000000c __fsym_list_mailbox
00000a34  w      .text	00000000 Ecall_U_Mode_Handler
00003ea0 g     F .text	00000044 rt_strncmp
00007ce8 g     O .text	0000000c __fsym___cmd_list_event
00000a34  w      .text	00000000 DMA2_Channel6_IRQHandler
00007d90 g       .text	00000000 __vsymtab_end
000076cc g     O .text	00000009 __fsym___cmd_ps_name
00007c94 g     O .text	0000000c __fsym_list_timer
00006d10 g     O .text	00000008 __fsym_pinRead_name
00000a34  w      .text	00000000 TIM2_IRQHandler
20010000 g       .stack	00000000 _eusrstack
00004906 g     F .text	00000034 rt_object_detach
00000290 g       .text	00000000 SW_Handler
00007d9c g     O .text	00000004 __rt_init_rt_hw_usart_init
00003d74 g     F .text	00000028 rt_set_errno
00005210 g     F .text	0000000a rt_system_timer_init
00004b72 g     F .text	0000005a rt_schedule_remove_thread
00000a34  w      .text	00000000 TIM1_BRK_IRQHandler
000062e0 g     F .text	00000058 __swhatbuf_r
000009c0 g     F .text	0000000a USART_SendData
00003b14 g     F .text	00000028 rt_interrupt_enter
00000a34  w      .text	00000000 DMA2_Channel10_IRQHandler
000013a2 g     F .text	00000088 EXTI1_IRQHandler
000034e2 g     F .text	00000006 rt_hw_interrupt_enable
00007d84 g     O .text	0000000c __fsym_list_mem
000004ca g     F .text	0000004c _write
200001d8 g       .data	00000000 _edata
00007c70 g     O .text	0000000c __fsym___cmd_list_device
20001778 g       .bss	00000000 _end
0000728c g     O .text	00000014 __fsym___cmd_list_msgqueue_name
00004bea g     F .text	00000040 rt_exit_critical
00000a34  w      .text	00000000 RTCAlarm_IRQHandler
00002508 g     F .text	000000bc list_mutex
00002da6 g     F .text	00000010 cmd_ps
00007dac g       .dlalign	00000000 _data_lma
00002f24 g     F .text	0000009c finsh_set_device
00000a34  w      .text	00000000 TIM10_UP_IRQHandler
00000a34  w      .text	00000000 TIM9_TRG_COM_IRQHandler
00000a34  w      .text	00000000 UART7_IRQHandler
00000a34  w      .text	00000000 USART2_IRQHandler
00000a34  w      .text	00000000 UART6_IRQHandler
00005e44 g     F .text	0000004e __swrite
000037cc g     F .text	0000004c rt_device_close
00004d90 g     F .text	00000008 rt_thread_self
000057bc g     F .text	000002a0 _vfiprintf_r
00007da4 g     O .text	00000004 __rt_init_finsh_system_init
000071f8 g     O .text	00000016 __fsym_list_device_desc
000056e0 g     F .text	0000006c _fwalk_reent
00000d2c g     F .text	00000136 SystemCoreClockUpdate
00007438 g     O .text	0000000c __fsym_list_thread_desc
00000a34  w      .text	00000000 I2C2_ER_IRQHandler
00000a34  w      .text	00000000 DMA1_Channel2_IRQHandler
000049e6 g     F .text	0000003a rt_object_delete
0000350e g     F .text	00000008 rt_tick_get
0000189e g     F .text	000000c8 rt_hw_usart_init
00007bd8 g     O .text	00000020 __sf_fake_stdout
00000a34  w      .text	00000000 TIM8_BRK_IRQHandler
000064c8 g     F .text	00000010 _read
000073b8 g     O .text	0000000b __fsym_list_event_name
00000a36  w      .text	00000000 handle_reset
00000a34  w      .text	00000000 CAN1_SCE_IRQHandler
00007cf4 g     O .text	0000000c __fsym_list_event
20000240 g     O .bss	00000004 rt_object_trytake_hook
00000a34  w      .text	00000000 FLASH_IRQHandler
0000738c g     O .text	00000011 __fsym___cmd_list_event_name
00007adc g     O .text	0000001e __fsym_list_mem_desc
000039bc g     F .text	000000fc rt_sem_take
00001a2c g     F .text	00000094 USART1_IRQHandler
00007d00 g     O .text	0000000c __fsym___cmd_list_sem
00006338 g     F .text	000000a0 __smakebuf_r
000054da g     F .text	00000012 strlen
00005b68 g     F .text	000002ac _printf_i
00000a34  w      .text	00000000 SPI3_IRQHandler
00007c34 g     O .text	0000000c __fsym___cmd_led
00007248 g     O .text	00000015 __fsym_list_timer_desc
20000284 g     O .bss	00000004 __malloc_sbrk_start
0000432c g     F .text	0000003e rt_console_set_device
00000fae g     F .text	000000fe ch32_pin_attach_irq
00000a34  w      .text	00000000 I2C1_ER_IRQHandler
00007d94 g     O .text	00000004 __rt_init_rti_board_start
00003848 g     F .text	00000030 rt_device_write
20000280 g     O .bss	00000004 __malloc_free_list
00007444 g     O .text	0000000c __fsym_list_thread_name
00007c34 g       .text	00000000 __fsymtab_start
00001306 g     F .text	00000016 rt_hw_pin_init
000057bc g     F .text	000002a0 _vfprintf_r
00007d3c g     O .text	0000000c __fsym_clear
00004a94 g     F .text	0000008a rt_schedule
0000485a g     F .text	000000ac rt_object_init
00000eb4 g     F .text	0000003c ch32_pin_read
00007d78 g     O .text	0000000c __fsym___cmd_ps
000006c0 g     F .text	0000000a GPIO_ReadInputDataBit
00006d18 g     O .text	0000001c __fsym_pinWrite_desc
00005026 g     F .text	000000a4 rt_timer_start
000029ce g     F .text	0000007e msh_help
0000202c g     F .text	000000d6 rt_hw_serial_isr
00000a34  w      .text	00000000 USBWakeUp_IRQHandler
000001dc g       .text	00000000 rt_hw_context_switch
00006488 g     F .text	00000010 _close
00000a34  w      .text	00000000 DMA2_Channel3_IRQHandler
00001140 g     F .text	000001c6 ch32_pin_irq_enable
00007210 g     O .text	0000000c __fsym_list_device_name
000072a0 g     O .text	0000001d __fsym_list_msgqueue_desc
000073f0 g     O .text	00000019 __fsym_list_sem_desc



Disassembly of section .init:

00000000 <_sinit>:
   0:	2370006f          	j	a36 <handle_reset>

Disassembly of section .vector:

00000004 <_vector_base>:
	...
   c:	0ac8                	addi	a0,sp,340
   e:	0000                	unimp
  10:	0b3c                	addi	a5,sp,408
  12:	0000                	unimp
  14:	0000                	unimp
  16:	0000                	unimp
  18:	0a34                	addi	a3,sp,280
	...
  22:	0000                	unimp
  24:	0a34                	addi	a3,sp,280
  26:	0000                	unimp
  28:	0a34                	addi	a3,sp,280
	...
  32:	0000                	unimp
  34:	1b48                	addi	a0,sp,436
  36:	0000                	unimp
  38:	0000                	unimp
  3a:	0000                	unimp
  3c:	0290                	addi	a2,sp,320
  3e:	0000                	unimp
  40:	0000                	unimp
  42:	0000                	unimp
  44:	0a34                	addi	a3,sp,280
  46:	0000                	unimp
  48:	0a34                	addi	a3,sp,280
  4a:	0000                	unimp
  4c:	0a34                	addi	a3,sp,280
  4e:	0000                	unimp
  50:	0a34                	addi	a3,sp,280
  52:	0000                	unimp
  54:	0a34                	addi	a3,sp,280
  56:	0000                	unimp
  58:	0a34                	addi	a3,sp,280
  5a:	0000                	unimp
  5c:	131c                	addi	a5,sp,416
  5e:	0000                	unimp
  60:	13a2                	slli	t2,t2,0x28
  62:	0000                	unimp
  64:	142a                	slli	s0,s0,0x2a
  66:	0000                	unimp
  68:	14b0                	addi	a2,sp,616
  6a:	0000                	unimp
  6c:	1536                	slli	a0,a0,0x2d
  6e:	0000                	unimp
  70:	0a34                	addi	a3,sp,280
  72:	0000                	unimp
  74:	0a34                	addi	a3,sp,280
  76:	0000                	unimp
  78:	0a34                	addi	a3,sp,280
  7a:	0000                	unimp
  7c:	0a34                	addi	a3,sp,280
  7e:	0000                	unimp
  80:	0a34                	addi	a3,sp,280
  82:	0000                	unimp
  84:	0a34                	addi	a3,sp,280
  86:	0000                	unimp
  88:	0a34                	addi	a3,sp,280
  8a:	0000                	unimp
  8c:	0a34                	addi	a3,sp,280
  8e:	0000                	unimp
  90:	0a34                	addi	a3,sp,280
  92:	0000                	unimp
  94:	0a34                	addi	a3,sp,280
  96:	0000                	unimp
  98:	0a34                	addi	a3,sp,280
  9a:	0000                	unimp
  9c:	0a34                	addi	a3,sp,280
  9e:	0000                	unimp
  a0:	15bc                	addi	a5,sp,744
  a2:	0000                	unimp
  a4:	0a34                	addi	a3,sp,280
  a6:	0000                	unimp
  a8:	0a34                	addi	a3,sp,280
  aa:	0000                	unimp
  ac:	0a34                	addi	a3,sp,280
  ae:	0000                	unimp
  b0:	0a34                	addi	a3,sp,280
  b2:	0000                	unimp
  b4:	0a34                	addi	a3,sp,280
  b6:	0000                	unimp
  b8:	0a34                	addi	a3,sp,280
  ba:	0000                	unimp
  bc:	0a34                	addi	a3,sp,280
  be:	0000                	unimp
  c0:	0a34                	addi	a3,sp,280
  c2:	0000                	unimp
  c4:	0a34                	addi	a3,sp,280
  c6:	0000                	unimp
  c8:	0a34                	addi	a3,sp,280
  ca:	0000                	unimp
  cc:	0a34                	addi	a3,sp,280
  ce:	0000                	unimp
  d0:	0a34                	addi	a3,sp,280
  d2:	0000                	unimp
  d4:	0a34                	addi	a3,sp,280
  d6:	0000                	unimp
  d8:	1a2c                	addi	a1,sp,312
  da:	0000                	unimp
  dc:	0a34                	addi	a3,sp,280
  de:	0000                	unimp
  e0:	0a34                	addi	a3,sp,280
  e2:	0000                	unimp
  e4:	1694                	addi	a3,sp,864
  e6:	0000                	unimp
  e8:	0a34                	addi	a3,sp,280
  ea:	0000                	unimp
  ec:	0a34                	addi	a3,sp,280
  ee:	0000                	unimp
  f0:	0a34                	addi	a3,sp,280
  f2:	0000                	unimp
  f4:	0a34                	addi	a3,sp,280
  f6:	0000                	unimp
  f8:	0a34                	addi	a3,sp,280
  fa:	0000                	unimp
  fc:	0a34                	addi	a3,sp,280
  fe:	0000                	unimp
 100:	0a34                	addi	a3,sp,280
 102:	0000                	unimp
 104:	0000                	unimp
 106:	0000                	unimp
 108:	0a34                	addi	a3,sp,280
 10a:	0000                	unimp
 10c:	0a34                	addi	a3,sp,280
 10e:	0000                	unimp
 110:	0a34                	addi	a3,sp,280
 112:	0000                	unimp
 114:	0a34                	addi	a3,sp,280
 116:	0000                	unimp
 118:	0a34                	addi	a3,sp,280
 11a:	0000                	unimp
 11c:	0a34                	addi	a3,sp,280
 11e:	0000                	unimp
 120:	0a34                	addi	a3,sp,280
 122:	0000                	unimp
 124:	0a34                	addi	a3,sp,280
 126:	0000                	unimp
 128:	0a34                	addi	a3,sp,280
 12a:	0000                	unimp
 12c:	0a34                	addi	a3,sp,280
 12e:	0000                	unimp
 130:	0a34                	addi	a3,sp,280
 132:	0000                	unimp
 134:	0a34                	addi	a3,sp,280
 136:	0000                	unimp
 138:	0a34                	addi	a3,sp,280
 13a:	0000                	unimp
 13c:	0a34                	addi	a3,sp,280
 13e:	0000                	unimp
 140:	0a34                	addi	a3,sp,280
 142:	0000                	unimp
 144:	0a34                	addi	a3,sp,280
 146:	0000                	unimp
 148:	0a34                	addi	a3,sp,280
 14a:	0000                	unimp
 14c:	0a34                	addi	a3,sp,280
 14e:	0000                	unimp
 150:	0a34                	addi	a3,sp,280
 152:	0000                	unimp
 154:	0a34                	addi	a3,sp,280
 156:	0000                	unimp
 158:	0a34                	addi	a3,sp,280
 15a:	0000                	unimp
 15c:	0a34                	addi	a3,sp,280
 15e:	0000                	unimp
 160:	0a34                	addi	a3,sp,280
 162:	0000                	unimp
 164:	0a34                	addi	a3,sp,280
 166:	0000                	unimp
 168:	0a34                	addi	a3,sp,280
 16a:	0000                	unimp
 16c:	0a34                	addi	a3,sp,280
 16e:	0000                	unimp
 170:	0a34                	addi	a3,sp,280
 172:	0000                	unimp
 174:	0a34                	addi	a3,sp,280
 176:	0000                	unimp
 178:	0a34                	addi	a3,sp,280
 17a:	0000                	unimp
 17c:	0a34                	addi	a3,sp,280
 17e:	0000                	unimp
 180:	0a34                	addi	a3,sp,280
 182:	0000                	unimp
 184:	0a34                	addi	a3,sp,280
 186:	0000                	unimp
 188:	0a34                	addi	a3,sp,280
 18a:	0000                	unimp
 18c:	0a34                	addi	a3,sp,280
 18e:	0000                	unimp
 190:	0a34                	addi	a3,sp,280
 192:	0000                	unimp
 194:	0a34                	addi	a3,sp,280
 196:	0000                	unimp
 198:	0a34                	addi	a3,sp,280
 19a:	0000                	unimp
 19c:	0a34                	addi	a3,sp,280
 19e:	0000                	unimp
 1a0:	0a34                	addi	a3,sp,280
	...

Disassembly of section .text:

000001c0 <rt_hw_context_switch_to>:
     1c0:	20010297          	auipc	t0,0x20010
     1c4:	e4028293          	addi	t0,t0,-448 # 20010000 <_eusrstack>
     1c8:	e0028293          	addi	t0,t0,-512
     1cc:	34029073          	csrw	mscratch,t0
     1d0:	00052103          	lw	sp,0(a0)
     1d4:	4522                	lw	a0,8(sp)
     1d6:	30051073          	csrw	mstatus,a0
     1da:	a8b1                	j	236 <rt_hw_context_switch_exit>

000001dc <rt_hw_context_switch>:
     1dc:	7119                	addi	sp,sp,-128
     1de:	00252023          	sw	sp,0(a0)
     1e2:	c006                	sw	ra,0(sp)
     1e4:	c206                	sw	ra,4(sp)
     1e6:	ca16                	sw	t0,20(sp)
     1e8:	300022f3          	csrr	t0,mstatus
     1ec:	0082f293          	andi	t0,t0,8
     1f0:	00028463          	beqz	t0,1f8 <rt_hw_context_switch+0x1c>
     1f4:	08000293          	li	t0,128
     1f8:	c416                	sw	t0,8(sp)
     1fa:	c812                	sw	tp,16(sp)
     1fc:	cc1a                	sw	t1,24(sp)
     1fe:	ce1e                	sw	t2,28(sp)
     200:	d022                	sw	s0,32(sp)
     202:	d226                	sw	s1,36(sp)
     204:	d42a                	sw	a0,40(sp)
     206:	d62e                	sw	a1,44(sp)
     208:	d832                	sw	a2,48(sp)
     20a:	da36                	sw	a3,52(sp)
     20c:	dc3a                	sw	a4,56(sp)
     20e:	de3e                	sw	a5,60(sp)
     210:	c0c2                	sw	a6,64(sp)
     212:	c2c6                	sw	a7,68(sp)
     214:	c4ca                	sw	s2,72(sp)
     216:	c6ce                	sw	s3,76(sp)
     218:	c8d2                	sw	s4,80(sp)
     21a:	cad6                	sw	s5,84(sp)
     21c:	ccda                	sw	s6,88(sp)
     21e:	cede                	sw	s7,92(sp)
     220:	d0e2                	sw	s8,96(sp)
     222:	d2e6                	sw	s9,100(sp)
     224:	d4ea                	sw	s10,104(sp)
     226:	d6ee                	sw	s11,108(sp)
     228:	d8f2                	sw	t3,112(sp)
     22a:	daf6                	sw	t4,116(sp)
     22c:	dcfa                	sw	t5,120(sp)
     22e:	defe                	sw	t6,124(sp)
     230:	0005a103          	lw	sp,0(a1)
     234:	a009                	j	236 <rt_hw_context_switch_exit>

00000236 <rt_hw_context_switch_exit>:
     236:	4502                	lw	a0,0(sp)
     238:	34151073          	csrw	mepc,a0
     23c:	4092                	lw	ra,4(sp)
     23e:	00008537          	lui	a0,0x8
     242:	80050513          	addi	a0,a0,-2048 # 7800 <__fsym___cmd_ps_name+0x134>
     246:	30052073          	csrs	mstatus,a0
     24a:	4522                	lw	a0,8(sp)
     24c:	30052073          	csrs	mstatus,a0
     250:	4242                	lw	tp,16(sp)
     252:	42d2                	lw	t0,20(sp)
     254:	4362                	lw	t1,24(sp)
     256:	43f2                	lw	t2,28(sp)
     258:	5402                	lw	s0,32(sp)
     25a:	5492                	lw	s1,36(sp)
     25c:	5522                	lw	a0,40(sp)
     25e:	55b2                	lw	a1,44(sp)
     260:	5642                	lw	a2,48(sp)
     262:	56d2                	lw	a3,52(sp)
     264:	5762                	lw	a4,56(sp)
     266:	57f2                	lw	a5,60(sp)
     268:	4806                	lw	a6,64(sp)
     26a:	4896                	lw	a7,68(sp)
     26c:	4926                	lw	s2,72(sp)
     26e:	49b6                	lw	s3,76(sp)
     270:	4a46                	lw	s4,80(sp)
     272:	4ad6                	lw	s5,84(sp)
     274:	4b66                	lw	s6,88(sp)
     276:	4bf6                	lw	s7,92(sp)
     278:	5c06                	lw	s8,96(sp)
     27a:	5c96                	lw	s9,100(sp)
     27c:	5d26                	lw	s10,104(sp)
     27e:	5db6                	lw	s11,108(sp)
     280:	5e46                	lw	t3,112(sp)
     282:	5ed6                	lw	t4,116(sp)
     284:	5f66                	lw	t5,120(sp)
     286:	5ff6                	lw	t6,124(sp)
     288:	6109                	addi	sp,sp,128
     28a:	30200073          	mret
	...

00000290 <SW_Handler>:
     290:	7119                	addi	sp,sp,-128
     292:	ca16                	sw	t0,20(sp)
     294:	08000293          	li	t0,128
     298:	c416                	sw	t0,8(sp)
     29a:	02000293          	li	t0,32
     29e:	8042a073          	csrs	0x804,t0
     2a2:	c206                	sw	ra,4(sp)
     2a4:	c812                	sw	tp,16(sp)
     2a6:	cc1a                	sw	t1,24(sp)
     2a8:	ce1e                	sw	t2,28(sp)
     2aa:	d022                	sw	s0,32(sp)
     2ac:	d226                	sw	s1,36(sp)
     2ae:	d42a                	sw	a0,40(sp)
     2b0:	d62e                	sw	a1,44(sp)
     2b2:	d832                	sw	a2,48(sp)
     2b4:	da36                	sw	a3,52(sp)
     2b6:	dc3a                	sw	a4,56(sp)
     2b8:	de3e                	sw	a5,60(sp)
     2ba:	c0c2                	sw	a6,64(sp)
     2bc:	c2c6                	sw	a7,68(sp)
     2be:	c4ca                	sw	s2,72(sp)
     2c0:	c6ce                	sw	s3,76(sp)
     2c2:	c8d2                	sw	s4,80(sp)
     2c4:	cad6                	sw	s5,84(sp)
     2c6:	ccda                	sw	s6,88(sp)
     2c8:	cede                	sw	s7,92(sp)
     2ca:	d0e2                	sw	s8,96(sp)
     2cc:	d2e6                	sw	s9,100(sp)
     2ce:	d4ea                	sw	s10,104(sp)
     2d0:	d6ee                	sw	s11,108(sp)
     2d2:	d8f2                	sw	t3,112(sp)
     2d4:	daf6                	sw	t4,116(sp)
     2d6:	dcfa                	sw	t5,120(sp)
     2d8:	defe                	sw	t6,124(sp)
     2da:	34011173          	csrrw	sp,mscratch,sp
     2de:	037030ef          	jal	ra,3b14 <rt_interrupt_enter>
     2e2:	1e6030ef          	jal	ra,34c8 <sw_clearpend>
     2e6:	057030ef          	jal	ra,3b3c <rt_interrupt_leave>
     2ea:	34011173          	csrrw	sp,mscratch,sp
     2ee:	83418413          	addi	s0,gp,-1996 # 200001f4 <rt_thread_switch_interrupt_flag>
     2f2:	00042903          	lw	s2,0(s0)
     2f6:	02090463          	beqz	s2,31e <SW_Handler+0x8e>
     2fa:	00042023          	sw	zero,0(s0)
     2fe:	34102573          	csrr	a0,mepc
     302:	c02a                	sw	a0,0(sp)
     304:	82c18413          	addi	s0,gp,-2004 # 200001ec <rt_interrupt_from_thread>
     308:	4004                	lw	s1,0(s0)
     30a:	0024a023          	sw	sp,0(s1)
     30e:	83018413          	addi	s0,gp,-2000 # 200001f0 <rt_interrupt_to_thread>
     312:	4004                	lw	s1,0(s0)
     314:	0004a103          	lw	sp,0(s1)
     318:	4502                	lw	a0,0(sp)
     31a:	34151073          	csrw	mepc,a0
     31e:	4092                	lw	ra,4(sp)
     320:	000082b7          	lui	t0,0x8
     324:	80028293          	addi	t0,t0,-2048 # 7800 <__fsym___cmd_ps_name+0x134>
     328:	3002a073          	csrs	mstatus,t0
     32c:	42a2                	lw	t0,8(sp)
     32e:	3002a073          	csrs	mstatus,t0
     332:	4242                	lw	tp,16(sp)
     334:	42d2                	lw	t0,20(sp)
     336:	4362                	lw	t1,24(sp)
     338:	43f2                	lw	t2,28(sp)
     33a:	5402                	lw	s0,32(sp)
     33c:	5492                	lw	s1,36(sp)
     33e:	5522                	lw	a0,40(sp)
     340:	55b2                	lw	a1,44(sp)
     342:	5642                	lw	a2,48(sp)
     344:	56d2                	lw	a3,52(sp)
     346:	5762                	lw	a4,56(sp)
     348:	57f2                	lw	a5,60(sp)
     34a:	4806                	lw	a6,64(sp)
     34c:	4896                	lw	a7,68(sp)
     34e:	4926                	lw	s2,72(sp)
     350:	49b6                	lw	s3,76(sp)
     352:	4a46                	lw	s4,80(sp)
     354:	4ad6                	lw	s5,84(sp)
     356:	4b66                	lw	s6,88(sp)
     358:	4bf6                	lw	s7,92(sp)
     35a:	5c06                	lw	s8,96(sp)
     35c:	5c96                	lw	s9,100(sp)
     35e:	5d26                	lw	s10,104(sp)
     360:	5db6                	lw	s11,108(sp)
     362:	5e46                	lw	t3,112(sp)
     364:	5ed6                	lw	t4,116(sp)
     366:	5f66                	lw	t5,120(sp)
     368:	5ff6                	lw	t6,124(sp)
     36a:	6109                	addi	sp,sp,128
     36c:	30200073          	mret
	...

00000372 <memset>:
     372:	433d                	li	t1,15
     374:	872a                	mv	a4,a0
     376:	02c37363          	bgeu	t1,a2,39c <memset+0x2a>
     37a:	00f77793          	andi	a5,a4,15
     37e:	efbd                	bnez	a5,3fc <memset+0x8a>
     380:	e5ad                	bnez	a1,3ea <memset+0x78>
     382:	ff067693          	andi	a3,a2,-16
     386:	8a3d                	andi	a2,a2,15
     388:	96ba                	add	a3,a3,a4
     38a:	c30c                	sw	a1,0(a4)
     38c:	c34c                	sw	a1,4(a4)
     38e:	c70c                	sw	a1,8(a4)
     390:	c74c                	sw	a1,12(a4)
     392:	0741                	addi	a4,a4,16
     394:	fed76be3          	bltu	a4,a3,38a <memset+0x18>
     398:	e211                	bnez	a2,39c <memset+0x2a>
     39a:	8082                	ret
     39c:	40c306b3          	sub	a3,t1,a2
     3a0:	068a                	slli	a3,a3,0x2
     3a2:	00000297          	auipc	t0,0x0
     3a6:	9696                	add	a3,a3,t0
     3a8:	00a68067          	jr	10(a3)
     3ac:	00b70723          	sb	a1,14(a4)
     3b0:	00b706a3          	sb	a1,13(a4)
     3b4:	00b70623          	sb	a1,12(a4)
     3b8:	00b705a3          	sb	a1,11(a4)
     3bc:	00b70523          	sb	a1,10(a4)
     3c0:	00b704a3          	sb	a1,9(a4)
     3c4:	00b70423          	sb	a1,8(a4)
     3c8:	00b703a3          	sb	a1,7(a4)
     3cc:	00b70323          	sb	a1,6(a4)
     3d0:	00b702a3          	sb	a1,5(a4)
     3d4:	00b70223          	sb	a1,4(a4)
     3d8:	00b701a3          	sb	a1,3(a4)
     3dc:	00b70123          	sb	a1,2(a4)
     3e0:	00b700a3          	sb	a1,1(a4)
     3e4:	00b70023          	sb	a1,0(a4)
     3e8:	8082                	ret
     3ea:	0ff5f593          	andi	a1,a1,255
     3ee:	00859693          	slli	a3,a1,0x8
     3f2:	8dd5                	or	a1,a1,a3
     3f4:	01059693          	slli	a3,a1,0x10
     3f8:	8dd5                	or	a1,a1,a3
     3fa:	b761                	j	382 <memset+0x10>
     3fc:	00279693          	slli	a3,a5,0x2
     400:	00000297          	auipc	t0,0x0
     404:	9696                	add	a3,a3,t0
     406:	8286                	mv	t0,ra
     408:	fa8680e7          	jalr	-88(a3)
     40c:	8096                	mv	ra,t0
     40e:	17c1                	addi	a5,a5,-16
     410:	8f1d                	sub	a4,a4,a5
     412:	963e                	add	a2,a2,a5
     414:	f8c374e3          	bgeu	t1,a2,39c <memset+0x2a>
     418:	b7a5                	j	380 <memset+0xe>

0000041a <led>:
     41a:	1101                	addi	sp,sp,-32
     41c:	4581                	li	a1,0
     41e:	4549                	li	a0,18
     420:	ce06                	sw	ra,28(sp)
     422:	cc22                	sw	s0,24(sp)
     424:	ca26                	sw	s1,20(sp)
     426:	c84a                	sw	s2,16(sp)
     428:	c64e                	sw	s3,12(sp)
     42a:	7b4010ef          	jal	ra,1bde <rt_pin_mode>
     42e:	2861                	jal	4c6 <__get_SP>
     430:	85aa                	mv	a1,a0
     432:	00006517          	auipc	a0,0x6
     436:	0f650513          	addi	a0,a0,246 # 6528 <_read+0x60>
     43a:	030050ef          	jal	ra,546a <iprintf>
     43e:	4401                	li	s0,0
     440:	00006997          	auipc	s3,0x6
     444:	0f898993          	addi	s3,s3,248 # 6538 <_read+0x70>
     448:	00006917          	auipc	s2,0x6
     44c:	10890913          	addi	s2,s2,264 # 6550 <_read+0x88>
     450:	44a9                	li	s1,10
     452:	4581                	li	a1,0
     454:	4549                	li	a0,18
     456:	79e010ef          	jal	ra,1bf4 <rt_pin_write>
     45a:	85a2                	mv	a1,s0
     45c:	854e                	mv	a0,s3
     45e:	70f030ef          	jal	ra,436c <rt_kprintf>
     462:	1f400513          	li	a0,500
     466:	2a7040ef          	jal	ra,4f0c <rt_thread_mdelay>
     46a:	4585                	li	a1,1
     46c:	4549                	li	a0,18
     46e:	786010ef          	jal	ra,1bf4 <rt_pin_write>
     472:	854a                	mv	a0,s2
     474:	6f9030ef          	jal	ra,436c <rt_kprintf>
     478:	0405                	addi	s0,s0,1
     47a:	1f400513          	li	a0,500
     47e:	28f040ef          	jal	ra,4f0c <rt_thread_mdelay>
     482:	fc9418e3          	bne	s0,s1,452 <led+0x38>
     486:	40f2                	lw	ra,28(sp)
     488:	4462                	lw	s0,24(sp)
     48a:	44d2                	lw	s1,20(sp)
     48c:	4942                	lw	s2,16(sp)
     48e:	49b2                	lw	s3,12(sp)
     490:	4501                	li	a0,0
     492:	6105                	addi	sp,sp,32
     494:	8082                	ret

00000496 <LED1_BLINK_INIT>:
     496:	1101                	addi	sp,sp,-32
     498:	4585                	li	a1,1
     49a:	4511                	li	a0,4
     49c:	ce06                	sw	ra,28(sp)
     49e:	c202                	sw	zero,4(sp)
     4a0:	c402                	sw	zero,8(sp)
     4a2:	c602                	sw	zero,12(sp)
     4a4:	2ed5                	jal	898 <RCC_APB2PeriphClockCmd>
     4a6:	4785                	li	a5,1
     4a8:	00f11223          	sh	a5,4(sp)
     4ac:	40011537          	lui	a0,0x40011
     4b0:	478d                	li	a5,3
     4b2:	c43e                	sw	a5,8(sp)
     4b4:	004c                	addi	a1,sp,4
     4b6:	47c1                	li	a5,16
     4b8:	80050513          	addi	a0,a0,-2048 # 40010800 <_eusrstack+0x20000800>
     4bc:	c63e                	sw	a5,12(sp)
     4be:	223d                	jal	5ec <GPIO_Init>
     4c0:	40f2                	lw	ra,28(sp)
     4c2:	6105                	addi	sp,sp,32
     4c4:	8082                	ret

000004c6 <__get_SP>:
     4c6:	850a                	mv	a0,sp
     4c8:	8082                	ret

000004ca <_write>:
     4ca:	1101                	addi	sp,sp,-32
     4cc:	c64e                	sw	s3,12(sp)
     4ce:	ce06                	sw	ra,28(sp)
     4d0:	cc22                	sw	s0,24(sp)
     4d2:	ca26                	sw	s1,20(sp)
     4d4:	c84a                	sw	s2,16(sp)
     4d6:	89b2                	mv	s3,a2
     4d8:	02c05763          	blez	a2,506 <_write+0x3c>
     4dc:	40014437          	lui	s0,0x40014
     4e0:	84ae                	mv	s1,a1
     4e2:	00c58933          	add	s2,a1,a2
     4e6:	80040413          	addi	s0,s0,-2048 # 40013800 <_eusrstack+0x20003800>
     4ea:	04000593          	li	a1,64
     4ee:	8522                	mv	a0,s0
     4f0:	29e9                	jal	9ca <USART_GetFlagStatus>
     4f2:	dd65                	beqz	a0,4ea <_write+0x20>
     4f4:	0485                	addi	s1,s1,1
     4f6:	fff48583          	lb	a1,-1(s1)
     4fa:	8522                	mv	a0,s0
     4fc:	05c2                	slli	a1,a1,0x10
     4fe:	81c1                	srli	a1,a1,0x10
     500:	21c1                	jal	9c0 <USART_SendData>
     502:	fe9914e3          	bne	s2,s1,4ea <_write+0x20>
     506:	40f2                	lw	ra,28(sp)
     508:	4462                	lw	s0,24(sp)
     50a:	854e                	mv	a0,s3
     50c:	44d2                	lw	s1,20(sp)
     50e:	4942                	lw	s2,16(sp)
     510:	49b2                	lw	s3,12(sp)
     512:	6105                	addi	sp,sp,32
     514:	8082                	ret

00000516 <_sbrk>:
     516:	20000797          	auipc	a5,0x20000
     51a:	caa78793          	addi	a5,a5,-854 # 200001c0 <curbrk.5280>
     51e:	439c                	lw	a5,0(a5)
     520:	20001717          	auipc	a4,0x20001
     524:	25870713          	addi	a4,a4,600 # 20001778 <_ebss>
     528:	953e                	add	a0,a0,a5
     52a:	00e56e63          	bltu	a0,a4,546 <_sbrk+0x30>
     52e:	2000f717          	auipc	a4,0x2000f
     532:	2d270713          	addi	a4,a4,722 # 2000f800 <_heap_end>
     536:	00a76863          	bltu	a4,a0,546 <_sbrk+0x30>
     53a:	20000717          	auipc	a4,0x20000
     53e:	c8a72323          	sw	a0,-890(a4) # 200001c0 <curbrk.5280>
     542:	853e                	mv	a0,a5
     544:	8082                	ret
     546:	57fd                	li	a5,-1
     548:	853e                	mv	a0,a5
     54a:	8082                	ret

0000054c <DBGMCU_GetCHIPID>:
     54c:	1ffff7b7          	lui	a5,0x1ffff
     550:	7047a503          	lw	a0,1796(a5) # 1ffff704 <__rt_init_end+0x1fff7958>
     554:	8082                	ret

00000556 <EXTI_Init>:
     556:	4158                	lw	a4,4(a0)
     558:	410c                	lw	a1,0(a0)
     55a:	00c52803          	lw	a6,12(a0)
     55e:	400106b7          	lui	a3,0x40010
     562:	40068793          	addi	a5,a3,1024 # 40010400 <_eusrstack+0x20000400>
     566:	973e                	add	a4,a4,a5
     568:	fff5c613          	not	a2,a1
     56c:	04080163          	beqz	a6,5ae <EXTI_Init+0x58>
     570:	4006a883          	lw	a7,1024(a3)
     574:	00852803          	lw	a6,8(a0)
     578:	4341                	li	t1,16
     57a:	00c8f8b3          	and	a7,a7,a2
     57e:	4116a023          	sw	a7,1024(a3)
     582:	43d4                	lw	a3,4(a5)
     584:	8e75                	and	a2,a2,a3
     586:	c3d0                	sw	a2,4(a5)
     588:	4314                	lw	a3,0(a4)
     58a:	8dd5                	or	a1,a1,a3
     58c:	c30c                	sw	a1,0(a4)
     58e:	4118                	lw	a4,0(a0)
     590:	4790                	lw	a2,8(a5)
     592:	fff74693          	not	a3,a4
     596:	8e75                	and	a2,a2,a3
     598:	c790                	sw	a2,8(a5)
     59a:	47d0                	lw	a2,12(a5)
     59c:	8ef1                	and	a3,a3,a2
     59e:	c7d4                	sw	a3,12(a5)
     5a0:	00680b63          	beq	a6,t1,5b6 <EXTI_Init+0x60>
     5a4:	97c2                	add	a5,a5,a6
     5a6:	4394                	lw	a3,0(a5)
     5a8:	8f55                	or	a4,a4,a3
     5aa:	c398                	sw	a4,0(a5)
     5ac:	8082                	ret
     5ae:	431c                	lw	a5,0(a4)
     5b0:	8e7d                	and	a2,a2,a5
     5b2:	c310                	sw	a2,0(a4)
     5b4:	8082                	ret
     5b6:	4794                	lw	a3,8(a5)
     5b8:	8ed9                	or	a3,a3,a4
     5ba:	c794                	sw	a3,8(a5)
     5bc:	47d4                	lw	a3,12(a5)
     5be:	8f55                	or	a4,a4,a3
     5c0:	c7d8                	sw	a4,12(a5)
     5c2:	8082                	ret

000005c4 <EXTI_GetITStatus>:
     5c4:	400107b7          	lui	a5,0x40010
     5c8:	40078713          	addi	a4,a5,1024 # 40010400 <_eusrstack+0x20000400>
     5cc:	4007a783          	lw	a5,1024(a5)
     5d0:	4b58                	lw	a4,20(a4)
     5d2:	8f69                	and	a4,a4,a0
     5d4:	c709                	beqz	a4,5de <EXTI_GetITStatus+0x1a>
     5d6:	8d7d                	and	a0,a0,a5
     5d8:	00a03533          	snez	a0,a0
     5dc:	8082                	ret
     5de:	4501                	li	a0,0
     5e0:	8082                	ret

000005e2 <EXTI_ClearITPendingBit>:
     5e2:	400107b7          	lui	a5,0x40010
     5e6:	40a7aa23          	sw	a0,1044(a5) # 40010414 <_eusrstack+0x20000414>
     5ea:	8082                	ret

000005ec <GPIO_Init>:
     5ec:	0085a803          	lw	a6,8(a1)
     5f0:	01087793          	andi	a5,a6,16
     5f4:	00f87313          	andi	t1,a6,15
     5f8:	c781                	beqz	a5,600 <GPIO_Init+0x14>
     5fa:	41dc                	lw	a5,4(a1)
     5fc:	00f36333          	or	t1,t1,a5
     600:	0005d683          	lhu	a3,0(a1)
     604:	0ff6f793          	andi	a5,a3,255
     608:	cba1                	beqz	a5,658 <GPIO_Init+0x6c>
     60a:	410c                	lw	a1,0(a0)
     60c:	4781                	li	a5,0
     60e:	4e85                	li	t4,1
     610:	4fbd                	li	t6,15
     612:	02800f13          	li	t5,40
     616:	04800293          	li	t0,72
     61a:	4e21                	li	t3,8
     61c:	a021                	j	624 <GPIO_Init+0x38>
     61e:	0785                	addi	a5,a5,1
     620:	03c78b63          	beq	a5,t3,656 <GPIO_Init+0x6a>
     624:	00fe9733          	sll	a4,t4,a5
     628:	00e6f633          	and	a2,a3,a4
     62c:	fec719e3          	bne	a4,a2,61e <GPIO_Init+0x32>
     630:	00279613          	slli	a2,a5,0x2
     634:	00cf98b3          	sll	a7,t6,a2
     638:	fff8c893          	not	a7,a7
     63c:	00b8f5b3          	and	a1,a7,a1
     640:	00c31633          	sll	a2,t1,a2
     644:	8dd1                	or	a1,a1,a2
     646:	07e80963          	beq	a6,t5,6b8 <GPIO_Init+0xcc>
     64a:	fc581ae3          	bne	a6,t0,61e <GPIO_Init+0x32>
     64e:	c918                	sw	a4,16(a0)
     650:	0785                	addi	a5,a5,1
     652:	fdc799e3          	bne	a5,t3,624 <GPIO_Init+0x38>
     656:	c10c                	sw	a1,0(a0)
     658:	0ff00793          	li	a5,255
     65c:	04d7fd63          	bgeu	a5,a3,6b6 <GPIO_Init+0xca>
     660:	00452883          	lw	a7,4(a0)
     664:	47a1                	li	a5,8
     666:	4e85                	li	t4,1
     668:	4fbd                	li	t6,15
     66a:	02800f13          	li	t5,40
     66e:	04800293          	li	t0,72
     672:	4e41                	li	t3,16
     674:	a021                	j	67c <GPIO_Init+0x90>
     676:	0785                	addi	a5,a5,1
     678:	03c78d63          	beq	a5,t3,6b2 <GPIO_Init+0xc6>
     67c:	00fe9733          	sll	a4,t4,a5
     680:	00e6f5b3          	and	a1,a3,a4
     684:	feb719e3          	bne	a4,a1,676 <GPIO_Init+0x8a>
     688:	00279613          	slli	a2,a5,0x2
     68c:	1601                	addi	a2,a2,-32
     68e:	00cf95b3          	sll	a1,t6,a2
     692:	fff5c593          	not	a1,a1
     696:	0115f8b3          	and	a7,a1,a7
     69a:	00c31633          	sll	a2,t1,a2
     69e:	011668b3          	or	a7,a2,a7
     6a2:	01e80d63          	beq	a6,t5,6bc <GPIO_Init+0xd0>
     6a6:	fc5818e3          	bne	a6,t0,676 <GPIO_Init+0x8a>
     6aa:	c918                	sw	a4,16(a0)
     6ac:	0785                	addi	a5,a5,1
     6ae:	fdc797e3          	bne	a5,t3,67c <GPIO_Init+0x90>
     6b2:	01152223          	sw	a7,4(a0)
     6b6:	8082                	ret
     6b8:	c958                	sw	a4,20(a0)
     6ba:	b795                	j	61e <GPIO_Init+0x32>
     6bc:	c958                	sw	a4,20(a0)
     6be:	bf65                	j	676 <GPIO_Init+0x8a>

000006c0 <GPIO_ReadInputDataBit>:
     6c0:	4508                	lw	a0,8(a0)
     6c2:	8d6d                	and	a0,a0,a1
     6c4:	00a03533          	snez	a0,a0
     6c8:	8082                	ret

000006ca <GPIO_SetBits>:
     6ca:	c90c                	sw	a1,16(a0)
     6cc:	8082                	ret

000006ce <GPIO_ResetBits>:
     6ce:	c94c                	sw	a1,20(a0)
     6d0:	8082                	ret

000006d2 <GPIO_WriteBit>:
     6d2:	c219                	beqz	a2,6d8 <GPIO_WriteBit+0x6>
     6d4:	c90c                	sw	a1,16(a0)
     6d6:	8082                	ret
     6d8:	c94c                	sw	a1,20(a0)
     6da:	8082                	ret

000006dc <GPIO_EXTILineConfig>:
     6dc:	0fc5f793          	andi	a5,a1,252
     6e0:	40010737          	lui	a4,0x40010
     6e4:	973e                	add	a4,a4,a5
     6e6:	898d                	andi	a1,a1,3
     6e8:	4714                	lw	a3,8(a4)
     6ea:	058a                	slli	a1,a1,0x2
     6ec:	47bd                	li	a5,15
     6ee:	00b797b3          	sll	a5,a5,a1
     6f2:	fff7c793          	not	a5,a5
     6f6:	8ff5                	and	a5,a5,a3
     6f8:	c71c                	sw	a5,8(a4)
     6fa:	471c                	lw	a5,8(a4)
     6fc:	00b515b3          	sll	a1,a0,a1
     700:	8ddd                	or	a1,a1,a5
     702:	c70c                	sw	a1,8(a4)
     704:	8082                	ret

00000706 <RCC_GetClocksFreq>:
     706:	40021737          	lui	a4,0x40021
     70a:	435c                	lw	a5,4(a4)
     70c:	4691                	li	a3,4
     70e:	8bb1                	andi	a5,a5,12
     710:	00d78563          	beq	a5,a3,71a <RCC_GetClocksFreq+0x14>
     714:	46a1                	li	a3,8
     716:	06d78463          	beq	a5,a3,77e <RCC_GetClocksFreq+0x78>
     71a:	007a17b7          	lui	a5,0x7a1
     71e:	20078793          	addi	a5,a5,512 # 7a1200 <__rt_init_end+0x799454>
     722:	c11c                	sw	a5,0(a0)
     724:	40021637          	lui	a2,0x40021
     728:	4258                	lw	a4,4(a2)
     72a:	20000697          	auipc	a3,0x20000
     72e:	8d668693          	addi	a3,a3,-1834 # 20000000 <_data_vma>
     732:	8311                	srli	a4,a4,0x4
     734:	8b3d                	andi	a4,a4,15
     736:	9736                	add	a4,a4,a3
     738:	00074703          	lbu	a4,0(a4) # 40021000 <_eusrstack+0x20011000>
     73c:	00e7d7b3          	srl	a5,a5,a4
     740:	c15c                	sw	a5,4(a0)
     742:	4258                	lw	a4,4(a2)
     744:	8321                	srli	a4,a4,0x8
     746:	8b1d                	andi	a4,a4,7
     748:	9736                	add	a4,a4,a3
     74a:	00074703          	lbu	a4,0(a4)
     74e:	00e7d733          	srl	a4,a5,a4
     752:	c518                	sw	a4,8(a0)
     754:	4258                	lw	a4,4(a2)
     756:	832d                	srli	a4,a4,0xb
     758:	8b1d                	andi	a4,a4,7
     75a:	96ba                	add	a3,a3,a4
     75c:	0006c703          	lbu	a4,0(a3)
     760:	80418693          	addi	a3,gp,-2044 # 200001c4 <ADCPrescTable>
     764:	00e7d7b3          	srl	a5,a5,a4
     768:	c55c                	sw	a5,12(a0)
     76a:	4258                	lw	a4,4(a2)
     76c:	8339                	srli	a4,a4,0xe
     76e:	8b0d                	andi	a4,a4,3
     770:	9736                	add	a4,a4,a3
     772:	00074703          	lbu	a4,0(a4)
     776:	02e7d7b3          	divu	a5,a5,a4
     77a:	c91c                	sw	a5,16(a0)
     77c:	8082                	ret
     77e:	435c                	lw	a5,4(a4)
     780:	1ffff6b7          	lui	a3,0x1ffff
     784:	4358                	lw	a4,4(a4)
     786:	70c6a683          	lw	a3,1804(a3) # 1ffff70c <__rt_init_end+0x1fff7960>
     78a:	6641                	lui	a2,0x10
     78c:	83c9                	srli	a5,a5,0x12
     78e:	8bbd                	andi	a5,a5,15
     790:	8f71                	and	a4,a4,a2
     792:	01169613          	slli	a2,a3,0x11
     796:	0789                	addi	a5,a5,2
     798:	02065f63          	bgez	a2,7d6 <RCC_GetClocksFreq+0xd0>
     79c:	4689                	li	a3,2
     79e:	0cd78963          	beq	a5,a3,870 <__stack_size+0x70>
     7a2:	46bd                	li	a3,15
     7a4:	0cd78963          	beq	a5,a3,876 <__stack_size+0x76>
     7a8:	46c1                	li	a3,16
     7aa:	0ad79d63          	bne	a5,a3,864 <__stack_size+0x64>
     7ae:	4681                	li	a3,0
     7b0:	47bd                	li	a5,15
     7b2:	eb05                	bnez	a4,7e2 <RCC_GetClocksFreq+0xdc>
     7b4:	40024737          	lui	a4,0x40024
     7b8:	80072703          	lw	a4,-2048(a4) # 40023800 <_eusrstack+0x20013800>
     7bc:	8b41                	andi	a4,a4,16
     7be:	cb2d                	beqz	a4,830 <__stack_size+0x30>
     7c0:	007a1737          	lui	a4,0x7a1
     7c4:	20070713          	addi	a4,a4,512 # 7a1200 <__rt_init_end+0x799454>
     7c8:	02e787b3          	mul	a5,a5,a4
     7cc:	c11c                	sw	a5,0(a0)
     7ce:	dab9                	beqz	a3,724 <RCC_GetClocksFreq+0x1e>
     7d0:	8385                	srli	a5,a5,0x1
     7d2:	c11c                	sw	a5,0(a0)
     7d4:	bf81                	j	724 <RCC_GetClocksFreq+0x1e>
     7d6:	4645                	li	a2,17
     7d8:	4681                	li	a3,0
     7da:	fcc79ce3          	bne	a5,a2,7b2 <RCC_GetClocksFreq+0xac>
     7de:	47c9                	li	a5,18
     7e0:	db71                	beqz	a4,7b4 <RCC_GetClocksFreq+0xae>
     7e2:	400215b7          	lui	a1,0x40021
     7e6:	55d8                	lw	a4,44(a1)
     7e8:	00f71613          	slli	a2,a4,0xf
     7ec:	55d8                	lw	a4,44(a1)
     7ee:	04065963          	bgez	a2,840 <__stack_size+0x40>
     7f2:	8311                	srli	a4,a4,0x4
     7f4:	8b3d                	andi	a4,a4,15
     7f6:	007a1637          	lui	a2,0x7a1
     7fa:	0705                	addi	a4,a4,1
     7fc:	20060613          	addi	a2,a2,512 # 7a1200 <__rt_init_end+0x799454>
     800:	02e65633          	divu	a2,a2,a4
     804:	c110                	sw	a2,0(a0)
     806:	55d8                	lw	a4,44(a1)
     808:	8321                	srli	a4,a4,0x8
     80a:	8b3d                	andi	a4,a4,15
     80c:	c739                	beqz	a4,85a <__stack_size+0x5a>
     80e:	4585                	li	a1,1
     810:	06b70663          	beq	a4,a1,87c <__stack_size+0x7c>
     814:	45bd                	li	a1,15
     816:	06b70a63          	beq	a4,a1,88a <__stack_size+0x8a>
     81a:	0709                	addi	a4,a4,2
     81c:	02c70733          	mul	a4,a4,a2
     820:	40021637          	lui	a2,0x40021
     824:	5650                	lw	a2,44(a2)
     826:	8a3d                	andi	a2,a2,15
     828:	0605                	addi	a2,a2,1
     82a:	02c75733          	divu	a4,a4,a2
     82e:	a015                	j	852 <__stack_size+0x52>
     830:	003d1737          	lui	a4,0x3d1
     834:	90070713          	addi	a4,a4,-1792 # 3d0900 <__rt_init_end+0x3c8b54>
     838:	02e787b3          	mul	a5,a5,a4
     83c:	c11c                	sw	a5,0(a0)
     83e:	bf41                	j	7ce <RCC_GetClocksFreq+0xc8>
     840:	8b3d                	andi	a4,a4,15
     842:	00170613          	addi	a2,a4,1
     846:	007a1737          	lui	a4,0x7a1
     84a:	20070713          	addi	a4,a4,512 # 7a1200 <__rt_init_end+0x799454>
     84e:	02c75733          	divu	a4,a4,a2
     852:	02e787b3          	mul	a5,a5,a4
     856:	c11c                	sw	a5,0(a0)
     858:	bf9d                	j	7ce <RCC_GetClocksFreq+0xc8>
     85a:	00261713          	slli	a4,a2,0x2
     85e:	9732                	add	a4,a4,a2
     860:	8305                	srli	a4,a4,0x1
     862:	bf7d                	j	820 <__stack_size+0x20>
     864:	46c5                	li	a3,17
     866:	02d79763          	bne	a5,a3,894 <__stack_size+0x94>
     86a:	4681                	li	a3,0
     86c:	47c1                	li	a5,16
     86e:	b791                	j	7b2 <RCC_GetClocksFreq+0xac>
     870:	4681                	li	a3,0
     872:	47c9                	li	a5,18
     874:	b7b5                	j	7e0 <RCC_GetClocksFreq+0xda>
     876:	4685                	li	a3,1
     878:	47b5                	li	a5,13
     87a:	bf25                	j	7b2 <RCC_GetClocksFreq+0xac>
     87c:	00161713          	slli	a4,a2,0x1
     880:	9732                	add	a4,a4,a2
     882:	070e                	slli	a4,a4,0x3
     884:	9732                	add	a4,a4,a2
     886:	8305                	srli	a4,a4,0x1
     888:	bf61                	j	820 <__stack_size+0x20>
     88a:	00261713          	slli	a4,a2,0x2
     88e:	9732                	add	a4,a4,a2
     890:	070a                	slli	a4,a4,0x2
     892:	b779                	j	820 <__stack_size+0x20>
     894:	4681                	li	a3,0
     896:	bf31                	j	7b2 <RCC_GetClocksFreq+0xac>

00000898 <RCC_APB2PeriphClockCmd>:
     898:	c599                	beqz	a1,8a6 <RCC_APB2PeriphClockCmd+0xe>
     89a:	40021737          	lui	a4,0x40021
     89e:	4f1c                	lw	a5,24(a4)
     8a0:	8d5d                	or	a0,a0,a5
     8a2:	cf08                	sw	a0,24(a4)
     8a4:	8082                	ret
     8a6:	400217b7          	lui	a5,0x40021
     8aa:	4f98                	lw	a4,24(a5)
     8ac:	fff54513          	not	a0,a0
     8b0:	8d79                	and	a0,a0,a4
     8b2:	cf88                	sw	a0,24(a5)
     8b4:	8082                	ret

000008b6 <USART_Init>:
     8b6:	01055683          	lhu	a3,16(a0)
     8ba:	0065d703          	lhu	a4,6(a1) # 40021006 <_eusrstack+0x20011006>
     8be:	77f5                	lui	a5,0xffffd
     8c0:	17fd                	addi	a5,a5,-1
     8c2:	7179                	addi	sp,sp,-48
     8c4:	8ff5                	and	a5,a5,a3
     8c6:	d422                	sw	s0,40(sp)
     8c8:	d226                	sw	s1,36(sp)
     8ca:	d606                	sw	ra,44(sp)
     8cc:	8fd9                	or	a5,a5,a4
     8ce:	00c5d703          	lhu	a4,12(a1)
     8d2:	00f51823          	sh	a5,16(a0)
     8d6:	842a                	mv	s0,a0
     8d8:	00c55503          	lhu	a0,12(a0)
     8dc:	84ae                	mv	s1,a1
     8de:	77fd                	lui	a5,0xfffff
     8e0:	0045d583          	lhu	a1,4(a1)
     8e4:	0084d603          	lhu	a2,8(s1)
     8e8:	9f378793          	addi	a5,a5,-1549 # ffffe9f3 <_eusrstack+0xdffee9f3>
     8ec:	00a4d683          	lhu	a3,10(s1)
     8f0:	8fe9                	and	a5,a5,a0
     8f2:	8fcd                	or	a5,a5,a1
     8f4:	8fd1                	or	a5,a5,a2
     8f6:	8fd5                	or	a5,a5,a3
     8f8:	00f41623          	sh	a5,12(s0)
     8fc:	01445783          	lhu	a5,20(s0)
     900:	0068                	addi	a0,sp,12
     902:	07c2                	slli	a5,a5,0x10
     904:	83c1                	srli	a5,a5,0x10
     906:	cff7f793          	andi	a5,a5,-769
     90a:	8fd9                	or	a5,a5,a4
     90c:	00f41a23          	sh	a5,20(s0)
     910:	3bdd                	jal	706 <RCC_GetClocksFreq>
     912:	400147b7          	lui	a5,0x40014
     916:	80078793          	addi	a5,a5,-2048 # 40013800 <_eusrstack+0x20003800>
     91a:	04f40363          	beq	s0,a5,960 <USART_Init+0xaa>
     91e:	46d2                	lw	a3,20(sp)
     920:	4098                	lw	a4,0(s1)
     922:	00169793          	slli	a5,a3,0x1
     926:	97b6                	add	a5,a5,a3
     928:	078e                	slli	a5,a5,0x3
     92a:	97b6                	add	a5,a5,a3
     92c:	070a                	slli	a4,a4,0x2
     92e:	02e7d7b3          	divu	a5,a5,a4
     932:	06400693          	li	a3,100
     936:	50b2                	lw	ra,44(sp)
     938:	5492                	lw	s1,36(sp)
     93a:	02d7f733          	remu	a4,a5,a3
     93e:	0712                	slli	a4,a4,0x4
     940:	03270713          	addi	a4,a4,50 # 40021032 <_eusrstack+0x20011032>
     944:	02d7d7b3          	divu	a5,a5,a3
     948:	02d75733          	divu	a4,a4,a3
     94c:	0792                	slli	a5,a5,0x4
     94e:	8b3d                	andi	a4,a4,15
     950:	8fd9                	or	a5,a5,a4
     952:	07c2                	slli	a5,a5,0x10
     954:	83c1                	srli	a5,a5,0x10
     956:	00f41423          	sh	a5,8(s0)
     95a:	5422                	lw	s0,40(sp)
     95c:	6145                	addi	sp,sp,48
     95e:	8082                	ret
     960:	46e2                	lw	a3,24(sp)
     962:	bf7d                	j	920 <USART_Init+0x6a>

00000964 <USART_Cmd>:
     964:	c981                	beqz	a1,974 <USART_Cmd+0x10>
     966:	00c55783          	lhu	a5,12(a0)
     96a:	6709                	lui	a4,0x2
     96c:	8fd9                	or	a5,a5,a4
     96e:	00f51623          	sh	a5,12(a0)
     972:	8082                	ret
     974:	00c55703          	lhu	a4,12(a0)
     978:	77f9                	lui	a5,0xffffe
     97a:	17fd                	addi	a5,a5,-1
     97c:	8ff9                	and	a5,a5,a4
     97e:	00f51623          	sh	a5,12(a0)
     982:	8082                	ret

00000984 <USART_ITConfig>:
     984:	0ff5f793          	andi	a5,a1,255
     988:	4705                	li	a4,1
     98a:	8395                	srli	a5,a5,0x5
     98c:	00b715b3          	sll	a1,a4,a1
     990:	02e78563          	beq	a5,a4,9ba <USART_ITConfig+0x36>
     994:	4689                	li	a3,2
     996:	01450713          	addi	a4,a0,20
     99a:	00d78763          	beq	a5,a3,9a8 <USART_ITConfig+0x24>
     99e:	431c                	lw	a5,0(a4)
     9a0:	ca01                	beqz	a2,9b0 <USART_ITConfig+0x2c>
     9a2:	8ddd                	or	a1,a1,a5
     9a4:	c30c                	sw	a1,0(a4)
     9a6:	8082                	ret
     9a8:	01050713          	addi	a4,a0,16
     9ac:	431c                	lw	a5,0(a4)
     9ae:	fa75                	bnez	a2,9a2 <USART_ITConfig+0x1e>
     9b0:	fff5c593          	not	a1,a1
     9b4:	8dfd                	and	a1,a1,a5
     9b6:	c30c                	sw	a1,0(a4)
     9b8:	8082                	ret
     9ba:	00c50713          	addi	a4,a0,12
     9be:	b7c5                	j	99e <USART_ITConfig+0x1a>

000009c0 <USART_SendData>:
     9c0:	1ff5f593          	andi	a1,a1,511
     9c4:	00b51223          	sh	a1,4(a0)
     9c8:	8082                	ret

000009ca <USART_GetFlagStatus>:
     9ca:	00055503          	lhu	a0,0(a0)
     9ce:	8d6d                	and	a0,a0,a1
     9d0:	00a03533          	snez	a0,a0
     9d4:	8082                	ret

000009d6 <USART_GetITStatus>:
     9d6:	0ff5f793          	andi	a5,a1,255
     9da:	4685                	li	a3,1
     9dc:	8395                	srli	a5,a5,0x5
     9de:	00b69733          	sll	a4,a3,a1
     9e2:	02d78a63          	beq	a5,a3,a16 <USART_GetITStatus+0x40>
     9e6:	4689                	li	a3,2
     9e8:	02d78363          	beq	a5,a3,a0e <USART_GetITStatus+0x38>
     9ec:	01455783          	lhu	a5,20(a0)
     9f0:	8f7d                	and	a4,a4,a5
     9f2:	00055783          	lhu	a5,0(a0)
     9f6:	4501                	li	a0,0
     9f8:	07c2                	slli	a5,a5,0x10
     9fa:	83c1                	srli	a5,a5,0x10
     9fc:	cb01                	beqz	a4,a0c <USART_GetITStatus+0x36>
     9fe:	4505                	li	a0,1
     a00:	81a1                	srli	a1,a1,0x8
     a02:	00b515b3          	sll	a1,a0,a1
     a06:	8fed                	and	a5,a5,a1
     a08:	00f03533          	snez	a0,a5
     a0c:	8082                	ret
     a0e:	01055783          	lhu	a5,16(a0)
     a12:	8f7d                	and	a4,a4,a5
     a14:	bff9                	j	9f2 <USART_GetITStatus+0x1c>
     a16:	00c55783          	lhu	a5,12(a0)
     a1a:	8f7d                	and	a4,a4,a5
     a1c:	bfd9                	j	9f2 <USART_GetITStatus+0x1c>

00000a1e <USART_ClearITPendingBit>:
     a1e:	81a1                	srli	a1,a1,0x8
     a20:	4785                	li	a5,1
     a22:	00b795b3          	sll	a1,a5,a1
     a26:	fff5c593          	not	a1,a1
     a2a:	05c2                	slli	a1,a1,0x10
     a2c:	81c1                	srli	a1,a1,0x10
     a2e:	00b51023          	sh	a1,0(a0)
     a32:	8082                	ret

00000a34 <ADC1_2_IRQHandler>:
     a34:	a001                	j	a34 <ADC1_2_IRQHandler>

00000a36 <handle_reset>:
     a36:	34129073          	csrw	mepc,t0
     a3a:	20000197          	auipc	gp,0x20000
     a3e:	f8618193          	addi	gp,gp,-122 # 200009c0 <__global_pointer$>
     a42:	2000f117          	auipc	sp,0x2000f
     a46:	5be10113          	addi	sp,sp,1470 # 20010000 <_eusrstack>
     a4a:	00007517          	auipc	a0,0x7
     a4e:	36250513          	addi	a0,a0,866 # 7dac <__rt_init_end>
     a52:	1ffff597          	auipc	a1,0x1ffff
     a56:	5ae58593          	addi	a1,a1,1454 # 20000000 <_data_vma>
     a5a:	81818613          	addi	a2,gp,-2024 # 200001d8 <_edata>
     a5e:	00c5fa63          	bgeu	a1,a2,a72 <handle_reset+0x3c>
     a62:	00052283          	lw	t0,0(a0)
     a66:	0055a023          	sw	t0,0(a1)
     a6a:	0511                	addi	a0,a0,4
     a6c:	0591                	addi	a1,a1,4
     a6e:	fec5eae3          	bltu	a1,a2,a62 <handle_reset+0x2c>
     a72:	81818513          	addi	a0,gp,-2024 # 200001d8 <_edata>
     a76:	20001597          	auipc	a1,0x20001
     a7a:	d0258593          	addi	a1,a1,-766 # 20001778 <_ebss>
     a7e:	00b57763          	bgeu	a0,a1,a8c <handle_reset+0x56>
     a82:	00052023          	sw	zero,0(a0)
     a86:	0511                	addi	a0,a0,4
     a88:	feb56de3          	bltu	a0,a1,a82 <handle_reset+0x4c>
     a8c:	42fd                	li	t0,31
     a8e:	bc029073          	csrw	0xbc0,t0
     a92:	42fd                	li	t0,31
     a94:	80429073          	csrw	0x804,t0
     a98:	000082b7          	lui	t0,0x8
     a9c:	80028293          	addi	t0,t0,-2048 # 7800 <__fsym___cmd_ps_name+0x134>
     aa0:	30029073          	csrw	mstatus,t0
     aa4:	fffff297          	auipc	t0,0xfffff
     aa8:	56028293          	addi	t0,t0,1376 # 4 <_einit>
     aac:	0032e293          	ori	t0,t0,3
     ab0:	30529073          	csrw	mtvec,t0
     ab4:	16e000ef          	jal	ra,c22 <SystemInit>
     ab8:	00003297          	auipc	t0,0x3
     abc:	bb428293          	addi	t0,t0,-1100 # 366c <entry>
     ac0:	34129073          	csrw	mepc,t0
     ac4:	30200073          	mret

00000ac8 <NMI_Handler>:
     ac8:	715d                	addi	sp,sp,-80
     aca:	e682                	fsw	ft0,76(sp)
     acc:	e486                	fsw	ft1,72(sp)
     ace:	e28a                	fsw	ft2,68(sp)
     ad0:	e08e                	fsw	ft3,64(sp)
     ad2:	fe12                	fsw	ft4,60(sp)
     ad4:	fc16                	fsw	ft5,56(sp)
     ad6:	fa1a                	fsw	ft6,52(sp)
     ad8:	f81e                	fsw	ft7,48(sp)
     ada:	f62a                	fsw	fa0,44(sp)
     adc:	f42e                	fsw	fa1,40(sp)
     ade:	f232                	fsw	fa2,36(sp)
     ae0:	f036                	fsw	fa3,32(sp)
     ae2:	ee3a                	fsw	fa4,28(sp)
     ae4:	ec3e                	fsw	fa5,24(sp)
     ae6:	ea42                	fsw	fa6,20(sp)
     ae8:	e846                	fsw	fa7,16(sp)
     aea:	e672                	fsw	ft8,12(sp)
     aec:	e476                	fsw	ft9,8(sp)
     aee:	e27a                	fsw	ft10,4(sp)
     af0:	e07e                	fsw	ft11,0(sp)
     af2:	34011173          	csrrw	sp,mscratch,sp
     af6:	01e030ef          	jal	ra,3b14 <rt_interrupt_enter>
     afa:	00006517          	auipc	a0,0x6
     afe:	a9a50513          	addi	a0,a0,-1382 # 6594 <__fsym___cmd_led_name+0x18>
     b02:	06b030ef          	jal	ra,436c <rt_kprintf>
     b06:	036030ef          	jal	ra,3b3c <rt_interrupt_leave>
     b0a:	34011173          	csrrw	sp,mscratch,sp
     b0e:	6036                	flw	ft0,76(sp)
     b10:	60a6                	flw	ft1,72(sp)
     b12:	6116                	flw	ft2,68(sp)
     b14:	6186                	flw	ft3,64(sp)
     b16:	7272                	flw	ft4,60(sp)
     b18:	72e2                	flw	ft5,56(sp)
     b1a:	7352                	flw	ft6,52(sp)
     b1c:	73c2                	flw	ft7,48(sp)
     b1e:	7532                	flw	fa0,44(sp)
     b20:	75a2                	flw	fa1,40(sp)
     b22:	7612                	flw	fa2,36(sp)
     b24:	7682                	flw	fa3,32(sp)
     b26:	6772                	flw	fa4,28(sp)
     b28:	67e2                	flw	fa5,24(sp)
     b2a:	6852                	flw	fa6,20(sp)
     b2c:	68c2                	flw	fa7,16(sp)
     b2e:	6e32                	flw	ft8,12(sp)
     b30:	6ea2                	flw	ft9,8(sp)
     b32:	6f12                	flw	ft10,4(sp)
     b34:	6f82                	flw	ft11,0(sp)
     b36:	6161                	addi	sp,sp,80
     b38:	30200073          	mret

00000b3c <HardFault_Handler>:
     b3c:	715d                	addi	sp,sp,-80
     b3e:	e682                	fsw	ft0,76(sp)
     b40:	e486                	fsw	ft1,72(sp)
     b42:	e28a                	fsw	ft2,68(sp)
     b44:	e08e                	fsw	ft3,64(sp)
     b46:	fe12                	fsw	ft4,60(sp)
     b48:	fc16                	fsw	ft5,56(sp)
     b4a:	fa1a                	fsw	ft6,52(sp)
     b4c:	f81e                	fsw	ft7,48(sp)
     b4e:	f62a                	fsw	fa0,44(sp)
     b50:	f42e                	fsw	fa1,40(sp)
     b52:	f232                	fsw	fa2,36(sp)
     b54:	f036                	fsw	fa3,32(sp)
     b56:	ee3a                	fsw	fa4,28(sp)
     b58:	ec3e                	fsw	fa5,24(sp)
     b5a:	ea42                	fsw	fa6,20(sp)
     b5c:	e846                	fsw	fa7,16(sp)
     b5e:	e672                	fsw	ft8,12(sp)
     b60:	e476                	fsw	ft9,8(sp)
     b62:	e27a                	fsw	ft10,4(sp)
     b64:	e07e                	fsw	ft11,0(sp)
     b66:	34011173          	csrrw	sp,mscratch,sp
     b6a:	7ab020ef          	jal	ra,3b14 <rt_interrupt_enter>
     b6e:	00006517          	auipc	a0,0x6
     b72:	a1a50513          	addi	a0,a0,-1510 # 6588 <__fsym___cmd_led_name+0xc>
     b76:	7f6030ef          	jal	ra,436c <rt_kprintf>
     b7a:	7c3020ef          	jal	ra,3b3c <rt_interrupt_leave>
     b7e:	34011173          	csrrw	sp,mscratch,sp
     b82:	6036                	flw	ft0,76(sp)
     b84:	60a6                	flw	ft1,72(sp)
     b86:	6116                	flw	ft2,68(sp)
     b88:	6186                	flw	ft3,64(sp)
     b8a:	7272                	flw	ft4,60(sp)
     b8c:	72e2                	flw	ft5,56(sp)
     b8e:	7352                	flw	ft6,52(sp)
     b90:	73c2                	flw	ft7,48(sp)
     b92:	7532                	flw	fa0,44(sp)
     b94:	75a2                	flw	fa1,40(sp)
     b96:	7612                	flw	fa2,36(sp)
     b98:	7682                	flw	fa3,32(sp)
     b9a:	6772                	flw	fa4,28(sp)
     b9c:	67e2                	flw	fa5,24(sp)
     b9e:	6852                	flw	fa6,20(sp)
     ba0:	68c2                	flw	fa7,16(sp)
     ba2:	6e32                	flw	ft8,12(sp)
     ba4:	6ea2                	flw	ft9,8(sp)
     ba6:	6f12                	flw	ft10,4(sp)
     ba8:	6f82                	flw	ft11,0(sp)
     baa:	6161                	addi	sp,sp,80
     bac:	30200073          	mret

00000bb0 <main>:
     bb0:	1141                	addi	sp,sp,-16
     bb2:	00006517          	auipc	a0,0x6
     bb6:	9f250513          	addi	a0,a0,-1550 # 65a4 <__fsym___cmd_led_name+0x28>
     bba:	c606                	sw	ra,12(sp)
     bbc:	c422                	sw	s0,8(sp)
     bbe:	7ae030ef          	jal	ra,436c <rt_kprintf>
     bc2:	22ad                	jal	d2c <SystemCoreClockUpdate>
     bc4:	80818793          	addi	a5,gp,-2040 # 200001c8 <SystemCoreClock>
     bc8:	438c                	lw	a1,0(a5)
     bca:	00006517          	auipc	a0,0x6
     bce:	9ee50513          	addi	a0,a0,-1554 # 65b8 <__fsym___cmd_led_name+0x3c>
     bd2:	40011437          	lui	s0,0x40011
     bd6:	796030ef          	jal	ra,436c <rt_kprintf>
     bda:	3a8d                	jal	54c <DBGMCU_GetCHIPID>
     bdc:	85aa                	mv	a1,a0
     bde:	00006517          	auipc	a0,0x6
     be2:	9ea50513          	addi	a0,a0,-1558 # 65c8 <__fsym___cmd_led_name+0x4c>
     be6:	786030ef          	jal	ra,436c <rt_kprintf>
     bea:	00006517          	auipc	a0,0x6
     bee:	9ee50513          	addi	a0,a0,-1554 # 65d8 <__fsym___cmd_led_name+0x5c>
     bf2:	77a030ef          	jal	ra,436c <rt_kprintf>
     bf6:	3045                	jal	496 <LED1_BLINK_INIT>
     bf8:	80040513          	addi	a0,s0,-2048 # 40010800 <_eusrstack+0x20000800>
     bfc:	4585                	li	a1,1
     bfe:	3cc1                	jal	6ce <GPIO_ResetBits>
     c00:	80040413          	addi	s0,s0,-2048
     c04:	4585                	li	a1,1
     c06:	8522                	mv	a0,s0
     c08:	34c9                	jal	6ca <GPIO_SetBits>
     c0a:	1f400513          	li	a0,500
     c0e:	2fe040ef          	jal	ra,4f0c <rt_thread_mdelay>
     c12:	8522                	mv	a0,s0
     c14:	4585                	li	a1,1
     c16:	3c65                	jal	6ce <GPIO_ResetBits>
     c18:	1f400513          	li	a0,500
     c1c:	2f0040ef          	jal	ra,4f0c <rt_thread_mdelay>
     c20:	b7d5                	j	c04 <main+0x54>

00000c22 <SystemInit>:
     c22:	400217b7          	lui	a5,0x40021
     c26:	4398                	lw	a4,0(a5)
     c28:	f0ff06b7          	lui	a3,0xf0ff0
     c2c:	1141                	addi	sp,sp,-16
     c2e:	00176713          	ori	a4,a4,1
     c32:	c398                	sw	a4,0(a5)
     c34:	43d8                	lw	a4,4(a5)
     c36:	40021537          	lui	a0,0x40021
     c3a:	000205b7          	lui	a1,0x20
     c3e:	8f75                	and	a4,a4,a3
     c40:	c3d8                	sw	a4,4(a5)
     c42:	4398                	lw	a4,0(a5)
     c44:	fef706b7          	lui	a3,0xfef70
     c48:	16fd                	addi	a3,a3,-1
     c4a:	8f75                	and	a4,a4,a3
     c4c:	c398                	sw	a4,0(a5)
     c4e:	4398                	lw	a4,0(a5)
     c50:	fffc06b7          	lui	a3,0xfffc0
     c54:	16fd                	addi	a3,a3,-1
     c56:	8f75                	and	a4,a4,a3
     c58:	c398                	sw	a4,0(a5)
     c5a:	43d8                	lw	a4,4(a5)
     c5c:	ff0106b7          	lui	a3,0xff010
     c60:	16fd                	addi	a3,a3,-1
     c62:	8f75                	and	a4,a4,a3
     c64:	c3d8                	sw	a4,4(a5)
     c66:	4398                	lw	a4,0(a5)
     c68:	ec0006b7          	lui	a3,0xec000
     c6c:	16fd                	addi	a3,a3,-1
     c6e:	8f75                	and	a4,a4,a3
     c70:	c398                	sw	a4,0(a5)
     c72:	00ff0737          	lui	a4,0xff0
     c76:	c798                	sw	a4,8(a5)
     c78:	0207a623          	sw	zero,44(a5) # 4002102c <_eusrstack+0x2001102c>
     c7c:	c402                	sw	zero,8(sp)
     c7e:	c602                	sw	zero,12(sp)
     c80:	4398                	lw	a4,0(a5)
     c82:	66c1                	lui	a3,0x10
     c84:	6605                	lui	a2,0x1
     c86:	8f55                	or	a4,a4,a3
     c88:	c398                	sw	a4,0(a5)
     c8a:	a021                	j	c92 <SystemInit+0x70>
     c8c:	47a2                	lw	a5,8(sp)
     c8e:	00c78a63          	beq	a5,a2,ca2 <SystemInit+0x80>
     c92:	411c                	lw	a5,0(a0)
     c94:	8fed                	and	a5,a5,a1
     c96:	c63e                	sw	a5,12(sp)
     c98:	47a2                	lw	a5,8(sp)
     c9a:	0785                	addi	a5,a5,1
     c9c:	c43e                	sw	a5,8(sp)
     c9e:	47b2                	lw	a5,12(sp)
     ca0:	d7f5                	beqz	a5,c8c <SystemInit+0x6a>
     ca2:	400217b7          	lui	a5,0x40021
     ca6:	439c                	lw	a5,0(a5)
     ca8:	00e79713          	slli	a4,a5,0xe
     cac:	00075a63          	bgez	a4,cc0 <SystemInit+0x9e>
     cb0:	4785                	li	a5,1
     cb2:	c63e                	sw	a5,12(sp)
     cb4:	4732                	lw	a4,12(sp)
     cb6:	4785                	li	a5,1
     cb8:	00f70963          	beq	a4,a5,cca <SystemInit+0xa8>
     cbc:	0141                	addi	sp,sp,16
     cbe:	8082                	ret
     cc0:	c602                	sw	zero,12(sp)
     cc2:	4732                	lw	a4,12(sp)
     cc4:	4785                	li	a5,1
     cc6:	fef71be3          	bne	a4,a5,cbc <SystemInit+0x9a>
     cca:	400217b7          	lui	a5,0x40021
     cce:	43d8                	lw	a4,4(a5)
     cd0:	ffc10637          	lui	a2,0xffc10
     cd4:	167d                	addi	a2,a2,-1
     cd6:	c3d8                	sw	a4,4(a5)
     cd8:	43d8                	lw	a4,4(a5)
     cda:	c3d8                	sw	a4,4(a5)
     cdc:	43d4                	lw	a3,4(a5)
     cde:	40021737          	lui	a4,0x40021
     ce2:	4006e693          	ori	a3,a3,1024
     ce6:	c3d4                	sw	a3,4(a5)
     ce8:	43d4                	lw	a3,4(a5)
     cea:	8ef1                	and	a3,a3,a2
     cec:	c3d4                	sw	a3,4(a5)
     cee:	43d4                	lw	a3,4(a5)
     cf0:	00290637          	lui	a2,0x290
     cf4:	8ed1                	or	a3,a3,a2
     cf6:	c3d4                	sw	a3,4(a5)
     cf8:	4394                	lw	a3,0(a5)
     cfa:	01000637          	lui	a2,0x1000
     cfe:	8ed1                	or	a3,a3,a2
     d00:	c394                	sw	a3,0(a5)
     d02:	431c                	lw	a5,0(a4)
     d04:	00679693          	slli	a3,a5,0x6
     d08:	fe06dde3          	bgez	a3,d02 <SystemInit+0xe0>
     d0c:	435c                	lw	a5,4(a4)
     d0e:	40021637          	lui	a2,0x40021
     d12:	46a1                	li	a3,8
     d14:	9bf1                	andi	a5,a5,-4
     d16:	c35c                	sw	a5,4(a4)
     d18:	435c                	lw	a5,4(a4)
     d1a:	0027e793          	ori	a5,a5,2
     d1e:	c35c                	sw	a5,4(a4)
     d20:	425c                	lw	a5,4(a2)
     d22:	8bb1                	andi	a5,a5,12
     d24:	fed79ee3          	bne	a5,a3,d20 <SystemInit+0xfe>
     d28:	0141                	addi	sp,sp,16
     d2a:	8082                	ret

00000d2c <SystemCoreClockUpdate>:
     d2c:	400216b7          	lui	a3,0x40021
     d30:	42d8                	lw	a4,4(a3)
     d32:	007a17b7          	lui	a5,0x7a1
     d36:	4621                	li	a2,8
     d38:	8b31                	andi	a4,a4,12
     d3a:	20078793          	addi	a5,a5,512 # 7a1200 <__rt_init_end+0x799454>
     d3e:	02c70363          	beq	a4,a2,d64 <SystemCoreClockUpdate+0x38>
     d42:	40021737          	lui	a4,0x40021
     d46:	4358                	lw	a4,4(a4)
     d48:	1ffff697          	auipc	a3,0x1ffff
     d4c:	2c868693          	addi	a3,a3,712 # 20000010 <AHBPrescTable>
     d50:	8311                	srli	a4,a4,0x4
     d52:	8b3d                	andi	a4,a4,15
     d54:	9736                	add	a4,a4,a3
     d56:	00074703          	lbu	a4,0(a4) # 40021000 <_eusrstack+0x20011000>
     d5a:	00e7d7b3          	srl	a5,a5,a4
     d5e:	80f1a423          	sw	a5,-2040(gp) # 200001c8 <SystemCoreClock>
     d62:	8082                	ret
     d64:	42d8                	lw	a4,4(a3)
     d66:	42d4                	lw	a3,4(a3)
     d68:	67c1                	lui	a5,0x10
     d6a:	8349                	srli	a4,a4,0x12
     d6c:	8b3d                	andi	a4,a4,15
     d6e:	8efd                	and	a3,a3,a5
     d70:	00270793          	addi	a5,a4,2
     d74:	cb1d                	beqz	a4,daa <SystemCoreClockUpdate+0x7e>
     d76:	473d                	li	a4,15
     d78:	0ce78163          	beq	a5,a4,e3a <SystemCoreClockUpdate+0x10e>
     d7c:	4741                	li	a4,16
     d7e:	08e79163          	bne	a5,a4,e00 <SystemCoreClockUpdate+0xd4>
     d82:	4601                	li	a2,0
     d84:	47bd                	li	a5,15
     d86:	e68d                	bnez	a3,db0 <SystemCoreClockUpdate+0x84>
     d88:	40024737          	lui	a4,0x40024
     d8c:	80072703          	lw	a4,-2048(a4) # 40023800 <_eusrstack+0x20013800>
     d90:	8b41                	andi	a4,a4,16
     d92:	cf2d                	beqz	a4,e0c <SystemCoreClockUpdate+0xe0>
     d94:	007a1737          	lui	a4,0x7a1
     d98:	20070713          	addi	a4,a4,512 # 7a1200 <__rt_init_end+0x799454>
     d9c:	02e787b3          	mul	a5,a5,a4
     da0:	80f1a423          	sw	a5,-2040(gp) # 200001c8 <SystemCoreClock>
     da4:	de59                	beqz	a2,d42 <SystemCoreClockUpdate+0x16>
     da6:	8385                	srli	a5,a5,0x1
     da8:	bf69                	j	d42 <SystemCoreClockUpdate+0x16>
     daa:	4601                	li	a2,0
     dac:	47c9                	li	a5,18
     dae:	dee9                	beqz	a3,d88 <SystemCoreClockUpdate+0x5c>
     db0:	400215b7          	lui	a1,0x40021
     db4:	55d8                	lw	a4,44(a1)
     db6:	00f71693          	slli	a3,a4,0xf
     dba:	55d8                	lw	a4,44(a1)
     dbc:	0606d163          	bgez	a3,e1e <SystemCoreClockUpdate+0xf2>
     dc0:	8311                	srli	a4,a4,0x4
     dc2:	8b3d                	andi	a4,a4,15
     dc4:	007a16b7          	lui	a3,0x7a1
     dc8:	0705                	addi	a4,a4,1
     dca:	20068693          	addi	a3,a3,512 # 7a1200 <__rt_init_end+0x799454>
     dce:	02e6d6b3          	divu	a3,a3,a4
     dd2:	80d1a423          	sw	a3,-2040(gp) # 200001c8 <SystemCoreClock>
     dd6:	55d8                	lw	a4,44(a1)
     dd8:	8321                	srli	a4,a4,0x8
     dda:	8b3d                	andi	a4,a4,15
     ddc:	c335                	beqz	a4,e40 <SystemCoreClockUpdate+0x114>
     dde:	4585                	li	a1,1
     de0:	06b70563          	beq	a4,a1,e4a <SystemCoreClockUpdate+0x11e>
     de4:	45bd                	li	a1,15
     de6:	06b70963          	beq	a4,a1,e58 <SystemCoreClockUpdate+0x12c>
     dea:	0709                	addi	a4,a4,2
     dec:	02d70733          	mul	a4,a4,a3
     df0:	400216b7          	lui	a3,0x40021
     df4:	56d4                	lw	a3,44(a3)
     df6:	8abd                	andi	a3,a3,15
     df8:	0685                	addi	a3,a3,1
     dfa:	02d75733          	divu	a4,a4,a3
     dfe:	a80d                	j	e30 <SystemCoreClockUpdate+0x104>
     e00:	4745                	li	a4,17
     e02:	4601                	li	a2,0
     e04:	f8e791e3          	bne	a5,a4,d86 <SystemCoreClockUpdate+0x5a>
     e08:	47c1                	li	a5,16
     e0a:	bfb5                	j	d86 <SystemCoreClockUpdate+0x5a>
     e0c:	003d1737          	lui	a4,0x3d1
     e10:	90070713          	addi	a4,a4,-1792 # 3d0900 <__rt_init_end+0x3c8b54>
     e14:	02e787b3          	mul	a5,a5,a4
     e18:	80f1a423          	sw	a5,-2040(gp) # 200001c8 <SystemCoreClock>
     e1c:	b761                	j	da4 <SystemCoreClockUpdate+0x78>
     e1e:	8b3d                	andi	a4,a4,15
     e20:	00170693          	addi	a3,a4,1
     e24:	007a1737          	lui	a4,0x7a1
     e28:	20070713          	addi	a4,a4,512 # 7a1200 <__rt_init_end+0x799454>
     e2c:	02d75733          	divu	a4,a4,a3
     e30:	02e787b3          	mul	a5,a5,a4
     e34:	80f1a423          	sw	a5,-2040(gp) # 200001c8 <SystemCoreClock>
     e38:	b7b5                	j	da4 <SystemCoreClockUpdate+0x78>
     e3a:	4605                	li	a2,1
     e3c:	47b5                	li	a5,13
     e3e:	b7a1                	j	d86 <SystemCoreClockUpdate+0x5a>
     e40:	00269713          	slli	a4,a3,0x2
     e44:	9736                	add	a4,a4,a3
     e46:	8305                	srli	a4,a4,0x1
     e48:	b765                	j	df0 <SystemCoreClockUpdate+0xc4>
     e4a:	00169713          	slli	a4,a3,0x1
     e4e:	9736                	add	a4,a4,a3
     e50:	070e                	slli	a4,a4,0x3
     e52:	9736                	add	a4,a4,a3
     e54:	8305                	srli	a4,a4,0x1
     e56:	bf69                	j	df0 <SystemCoreClockUpdate+0xc4>
     e58:	00269713          	slli	a4,a3,0x2
     e5c:	9736                	add	a4,a4,a3
     e5e:	070a                	slli	a4,a4,0x2
     e60:	bf41                	j	df0 <SystemCoreClockUpdate+0xc4>

00000e62 <GPIOD_CLK_ENABLE>:
     e62:	4585                	li	a1,1
     e64:	02000513          	li	a0,32
     e68:	bc05                	j	898 <RCC_APB2PeriphClockCmd>

00000e6a <GPIOB_CLK_ENABLE>:
     e6a:	4585                	li	a1,1
     e6c:	4521                	li	a0,8
     e6e:	b42d                	j	898 <RCC_APB2PeriphClockCmd>

00000e70 <GPIOA_CLK_ENABLE>:
     e70:	4585                	li	a1,1
     e72:	4511                	li	a0,4
     e74:	b415                	j	898 <RCC_APB2PeriphClockCmd>

00000e76 <GPIOC_CLK_ENABLE>:
     e76:	4585                	li	a1,1
     e78:	4541                	li	a0,16
     e7a:	bc39                	j	898 <RCC_APB2PeriphClockCmd>

00000e7c <GPIOE_CLK_ENABLE>:
     e7c:	4585                	li	a1,1
     e7e:	04000513          	li	a0,64
     e82:	bc19                	j	898 <RCC_APB2PeriphClockCmd>

00000e84 <ch32_pin_write>:
     e84:	0ff5f713          	andi	a4,a1,255
     e88:	06400793          	li	a5,100
     e8c:	02e7e363          	bltu	a5,a4,eb2 <ch32_pin_write+0x2e>
     e90:	0ff5f593          	andi	a1,a1,255
     e94:	0592                	slli	a1,a1,0x4
     e96:	00005797          	auipc	a5,0x5
     e9a:	7ea78793          	addi	a5,a5,2026 # 6680 <pins>
     e9e:	97ae                	add	a5,a5,a1
     ea0:	4394                	lw	a3,0(a5)
     ea2:	577d                	li	a4,-1
     ea4:	00e68763          	beq	a3,a4,eb2 <ch32_pin_write+0x2e>
     ea8:	00c7d583          	lhu	a1,12(a5)
     eac:	4788                	lw	a0,8(a5)
     eae:	825ff06f          	j	6d2 <GPIO_WriteBit>
     eb2:	8082                	ret

00000eb4 <ch32_pin_read>:
     eb4:	0ff5f713          	andi	a4,a1,255
     eb8:	06400793          	li	a5,100
     ebc:	4501                	li	a0,0
     ebe:	02e7e863          	bltu	a5,a4,eee <ch32_pin_read+0x3a>
     ec2:	0ff5f593          	andi	a1,a1,255
     ec6:	0592                	slli	a1,a1,0x4
     ec8:	00005797          	auipc	a5,0x5
     ecc:	7b878793          	addi	a5,a5,1976 # 6680 <pins>
     ed0:	97ae                	add	a5,a5,a1
     ed2:	4394                	lw	a3,0(a5)
     ed4:	577d                	li	a4,-1
     ed6:	00e68c63          	beq	a3,a4,eee <ch32_pin_read+0x3a>
     eda:	00c7d583          	lhu	a1,12(a5)
     ede:	4788                	lw	a0,8(a5)
     ee0:	1141                	addi	sp,sp,-16
     ee2:	c606                	sw	ra,12(sp)
     ee4:	fdcff0ef          	jal	ra,6c0 <GPIO_ReadInputDataBit>
     ee8:	40b2                	lw	ra,12(sp)
     eea:	0141                	addi	sp,sp,16
     eec:	8082                	ret
     eee:	8082                	ret

00000ef0 <ch32_pin_mode>:
     ef0:	0ff5f713          	andi	a4,a1,255
     ef4:	06400793          	li	a5,100
     ef8:	08e7e763          	bltu	a5,a4,f86 <ch32_pin_mode+0x96>
     efc:	7179                	addi	sp,sp,-48
     efe:	0ff5f593          	andi	a1,a1,255
     f02:	d422                	sw	s0,40(sp)
     f04:	d04a                	sw	s2,32(sp)
     f06:	00459413          	slli	s0,a1,0x4
     f0a:	00005917          	auipc	s2,0x5
     f0e:	77690913          	addi	s2,s2,1910 # 6680 <pins>
     f12:	ce4e                	sw	s3,28(sp)
     f14:	008909b3          	add	s3,s2,s0
     f18:	0009a703          	lw	a4,0(s3)
     f1c:	d606                	sw	ra,44(sp)
     f1e:	d226                	sw	s1,36(sp)
     f20:	57fd                	li	a5,-1
     f22:	02f70463          	beq	a4,a5,f4a <ch32_pin_mode+0x5a>
     f26:	0049a783          	lw	a5,4(s3)
     f2a:	84b2                	mv	s1,a2
     f2c:	9782                	jalr	a5
     f2e:	00c9a703          	lw	a4,12(s3)
     f32:	478d                	li	a5,3
     f34:	c43e                	sw	a5,8(sp)
     f36:	00e11223          	sh	a4,4(sp)
     f3a:	4741                	li	a4,16
     f3c:	c63a                	sw	a4,12(sp)
     f3e:	ec89                	bnez	s1,f58 <ch32_pin_mode+0x68>
     f40:	944a                	add	s0,s0,s2
     f42:	4408                	lw	a0,8(s0)
     f44:	004c                	addi	a1,sp,4
     f46:	ea6ff0ef          	jal	ra,5ec <GPIO_Init>
     f4a:	50b2                	lw	ra,44(sp)
     f4c:	5422                	lw	s0,40(sp)
     f4e:	5492                	lw	s1,36(sp)
     f50:	5902                	lw	s2,32(sp)
     f52:	49f2                	lw	s3,28(sp)
     f54:	6145                	addi	sp,sp,48
     f56:	8082                	ret
     f58:	4715                	li	a4,5
     f5a:	02e48763          	beq	s1,a4,f88 <ch32_pin_mode+0x98>
     f5e:	4705                	li	a4,1
     f60:	02e48663          	beq	s1,a4,f8c <ch32_pin_mode+0x9c>
     f64:	02f48a63          	beq	s1,a5,f98 <ch32_pin_mode+0xa8>
     f68:	4789                	li	a5,2
     f6a:	02f48b63          	beq	s1,a5,fa0 <ch32_pin_mode+0xb0>
     f6e:	4791                	li	a5,4
     f70:	02f48163          	beq	s1,a5,f92 <ch32_pin_mode+0xa2>
     f74:	4799                	li	a5,6
     f76:	02f48963          	beq	s1,a5,fa8 <ch32_pin_mode+0xb8>
     f7a:	479d                	li	a5,7
     f7c:	fcf492e3          	bne	s1,a5,f40 <ch32_pin_mode+0x50>
     f80:	47e1                	li	a5,24
     f82:	c63e                	sw	a5,12(sp)
     f84:	bf75                	j	f40 <ch32_pin_mode+0x50>
     f86:	8082                	ret
     f88:	c602                	sw	zero,12(sp)
     f8a:	bf5d                	j	f40 <ch32_pin_mode+0x50>
     f8c:	4791                	li	a5,4
     f8e:	c63e                	sw	a5,12(sp)
     f90:	bf45                	j	f40 <ch32_pin_mode+0x50>
     f92:	47d1                	li	a5,20
     f94:	c63e                	sw	a5,12(sp)
     f96:	b76d                	j	f40 <ch32_pin_mode+0x50>
     f98:	02800793          	li	a5,40
     f9c:	c63e                	sw	a5,12(sp)
     f9e:	b74d                	j	f40 <ch32_pin_mode+0x50>
     fa0:	04800793          	li	a5,72
     fa4:	c63e                	sw	a5,12(sp)
     fa6:	bf69                	j	f40 <ch32_pin_mode+0x50>
     fa8:	47f1                	li	a5,28
     faa:	c63e                	sw	a5,12(sp)
     fac:	bf51                	j	f40 <ch32_pin_mode+0x50>

00000fae <ch32_pin_attach_irq>:
     fae:	0ff5f813          	andi	a6,a1,255
     fb2:	06400793          	li	a5,100
     fb6:	4519                	li	a0,6
     fb8:	0d07e163          	bltu	a5,a6,107a <ch32_pin_attach_irq+0xcc>
     fbc:	0ff5f793          	andi	a5,a1,255
     fc0:	00479813          	slli	a6,a5,0x4
     fc4:	00005797          	auipc	a5,0x5
     fc8:	6bc78793          	addi	a5,a5,1724 # 6680 <pins>
     fcc:	97c2                	add	a5,a5,a6
     fce:	0007a883          	lw	a7,0(a5)
     fd2:	587d                	li	a6,-1
     fd4:	0b088363          	beq	a7,a6,107a <ch32_pin_attach_irq+0xcc>
     fd8:	1101                	addi	sp,sp,-32
     fda:	cc22                	sw	s0,24(sp)
     fdc:	ce06                	sw	ra,28(sp)
     fde:	ca26                	sw	s1,20(sp)
     fe0:	c84a                	sw	s2,16(sp)
     fe2:	c64e                	sw	s3,12(sp)
     fe4:	c452                	sw	s4,8(sp)
     fe6:	00c7a803          	lw	a6,12(a5)
     fea:	4401                	li	s0,0
     fec:	4505                	li	a0,1
     fee:	02000893          	li	a7,32
     ff2:	a021                	j	ffa <ch32_pin_attach_irq+0x4c>
     ff4:	0405                	addi	s0,s0,1
     ff6:	07140963          	beq	s0,a7,1068 <ch32_pin_attach_irq+0xba>
     ffa:	008517b3          	sll	a5,a0,s0
     ffe:	fef81be3          	bne	a6,a5,ff4 <ch32_pin_attach_irq+0x46>
    1002:	47bd                	li	a5,15
    1004:	0687c263          	blt	a5,s0,1068 <ch32_pin_attach_irq+0xba>
    1008:	8a3a                	mv	s4,a4
    100a:	8936                	mv	s2,a3
    100c:	89b2                	mv	s3,a2
    100e:	84ae                	mv	s1,a1
    1010:	4c6020ef          	jal	ra,34d6 <rt_hw_interrupt_disable>
    1014:	00141713          	slli	a4,s0,0x1
    1018:	008707b3          	add	a5,a4,s0
    101c:	1ffff597          	auipc	a1,0x1ffff
    1020:	00458593          	addi	a1,a1,4 # 20000020 <pin_irq_hdr_tab>
    1024:	078a                	slli	a5,a5,0x2
    1026:	97ae                	add	a5,a5,a1
    1028:	00079683          	lh	a3,0(a5)
    102c:	862a                	mv	a2,a0
    102e:	06968363          	beq	a3,s1,1094 <ch32_pin_attach_irq+0xe6>
    1032:	57fd                	li	a5,-1
    1034:	04f69463          	bne	a3,a5,107c <ch32_pin_attach_irq+0xce>
    1038:	008707b3          	add	a5,a4,s0
    103c:	078a                	slli	a5,a5,0x2
    103e:	97ae                	add	a5,a5,a1
    1040:	8532                	mv	a0,a2
    1042:	00979023          	sh	s1,0(a5)
    1046:	0127a223          	sw	s2,4(a5)
    104a:	01379123          	sh	s3,2(a5)
    104e:	0147a423          	sw	s4,8(a5)
    1052:	490020ef          	jal	ra,34e2 <rt_hw_interrupt_enable>
    1056:	40f2                	lw	ra,28(sp)
    1058:	4462                	lw	s0,24(sp)
    105a:	44d2                	lw	s1,20(sp)
    105c:	4942                	lw	s2,16(sp)
    105e:	49b2                	lw	s3,12(sp)
    1060:	4a22                	lw	s4,8(sp)
    1062:	4501                	li	a0,0
    1064:	6105                	addi	sp,sp,32
    1066:	8082                	ret
    1068:	40f2                	lw	ra,28(sp)
    106a:	4462                	lw	s0,24(sp)
    106c:	44d2                	lw	s1,20(sp)
    106e:	4942                	lw	s2,16(sp)
    1070:	49b2                	lw	s3,12(sp)
    1072:	4a22                	lw	s4,8(sp)
    1074:	4519                	li	a0,6
    1076:	6105                	addi	sp,sp,32
    1078:	8082                	ret
    107a:	8082                	ret
    107c:	8532                	mv	a0,a2
    107e:	464020ef          	jal	ra,34e2 <rt_hw_interrupt_enable>
    1082:	40f2                	lw	ra,28(sp)
    1084:	4462                	lw	s0,24(sp)
    1086:	44d2                	lw	s1,20(sp)
    1088:	4942                	lw	s2,16(sp)
    108a:	49b2                	lw	s3,12(sp)
    108c:	4a22                	lw	s4,8(sp)
    108e:	451d                	li	a0,7
    1090:	6105                	addi	sp,sp,32
    1092:	8082                	ret
    1094:	0047a803          	lw	a6,4(a5)
    1098:	f9281de3          	bne	a6,s2,1032 <ch32_pin_attach_irq+0x84>
    109c:	0027d803          	lhu	a6,2(a5)
    10a0:	f93819e3          	bne	a6,s3,1032 <ch32_pin_attach_irq+0x84>
    10a4:	479c                	lw	a5,8(a5)
    10a6:	f94796e3          	bne	a5,s4,1032 <ch32_pin_attach_irq+0x84>
    10aa:	b765                	j	1052 <ch32_pin_attach_irq+0xa4>

000010ac <ch32_pin_dettach_irq>:
    10ac:	0ff5f713          	andi	a4,a1,255
    10b0:	06400793          	li	a5,100
    10b4:	4519                	li	a0,6
    10b6:	08e7e463          	bltu	a5,a4,113e <ch32_pin_dettach_irq+0x92>
    10ba:	0ff5f593          	andi	a1,a1,255
    10be:	00005797          	auipc	a5,0x5
    10c2:	5c278793          	addi	a5,a5,1474 # 6680 <pins>
    10c6:	0592                	slli	a1,a1,0x4
    10c8:	95be                	add	a1,a1,a5
    10ca:	4198                	lw	a4,0(a1)
    10cc:	57fd                	li	a5,-1
    10ce:	06f70863          	beq	a4,a5,113e <ch32_pin_dettach_irq+0x92>
    10d2:	1141                	addi	sp,sp,-16
    10d4:	c422                	sw	s0,8(sp)
    10d6:	c606                	sw	ra,12(sp)
    10d8:	45d4                	lw	a3,12(a1)
    10da:	4401                	li	s0,0
    10dc:	4705                	li	a4,1
    10de:	02000613          	li	a2,32
    10e2:	a021                	j	10ea <ch32_pin_dettach_irq+0x3e>
    10e4:	0405                	addi	s0,s0,1
    10e6:	04c40763          	beq	s0,a2,1134 <ch32_pin_dettach_irq+0x88>
    10ea:	008717b3          	sll	a5,a4,s0
    10ee:	fef69be3          	bne	a3,a5,10e4 <ch32_pin_dettach_irq+0x38>
    10f2:	47bd                	li	a5,15
    10f4:	0487c063          	blt	a5,s0,1134 <ch32_pin_dettach_irq+0x88>
    10f8:	3de020ef          	jal	ra,34d6 <rt_hw_interrupt_disable>
    10fc:	00141793          	slli	a5,s0,0x1
    1100:	943e                	add	s0,s0,a5
    1102:	040a                	slli	s0,s0,0x2
    1104:	1ffff797          	auipc	a5,0x1ffff
    1108:	f1c78793          	addi	a5,a5,-228 # 20000020 <pin_irq_hdr_tab>
    110c:	97a2                	add	a5,a5,s0
    110e:	00079683          	lh	a3,0(a5)
    1112:	577d                	li	a4,-1
    1114:	00e68963          	beq	a3,a4,1126 <ch32_pin_dettach_irq+0x7a>
    1118:	6741                	lui	a4,0x10
    111a:	177d                	addi	a4,a4,-1
    111c:	c398                	sw	a4,0(a5)
    111e:	0007a223          	sw	zero,4(a5)
    1122:	0007a423          	sw	zero,8(a5)
    1126:	3bc020ef          	jal	ra,34e2 <rt_hw_interrupt_enable>
    112a:	40b2                	lw	ra,12(sp)
    112c:	4422                	lw	s0,8(sp)
    112e:	4501                	li	a0,0
    1130:	0141                	addi	sp,sp,16
    1132:	8082                	ret
    1134:	40b2                	lw	ra,12(sp)
    1136:	4422                	lw	s0,8(sp)
    1138:	4519                	li	a0,6
    113a:	0141                	addi	sp,sp,16
    113c:	8082                	ret
    113e:	8082                	ret

00001140 <ch32_pin_irq_enable>:
    1140:	0ff5f713          	andi	a4,a1,255
    1144:	06400793          	li	a5,100
    1148:	4519                	li	a0,6
    114a:	08e7ea63          	bltu	a5,a4,11de <ch32_pin_irq_enable+0x9e>
    114e:	7139                	addi	sp,sp,-64
    1150:	0ff5f593          	andi	a1,a1,255
    1154:	da26                	sw	s1,52(sp)
    1156:	d452                	sw	s4,40(sp)
    1158:	00459493          	slli	s1,a1,0x4
    115c:	00005a17          	auipc	s4,0x5
    1160:	524a0a13          	addi	s4,s4,1316 # 6680 <pins>
    1164:	009a07b3          	add	a5,s4,s1
    1168:	4394                	lw	a3,0(a5)
    116a:	de06                	sw	ra,60(sp)
    116c:	dc22                	sw	s0,56(sp)
    116e:	d84a                	sw	s2,48(sp)
    1170:	d64e                	sw	s3,44(sp)
    1172:	d256                	sw	s5,36(sp)
    1174:	d05a                	sw	s6,32(sp)
    1176:	577d                	li	a4,-1
    1178:	04e68963          	beq	a3,a4,11ca <ch32_pin_irq_enable+0x8a>
    117c:	4705                	li	a4,1
    117e:	06e60163          	beq	a2,a4,11e0 <ch32_pin_irq_enable+0xa0>
    1182:	e621                	bnez	a2,11ca <ch32_pin_irq_enable+0x8a>
    1184:	47d0                	lw	a2,12(a5)
    1186:	4685                	li	a3,1
    1188:	4781                	li	a5,0
    118a:	02000593          	li	a1,32
    118e:	a021                	j	1196 <ch32_pin_irq_enable+0x56>
    1190:	0785                	addi	a5,a5,1
    1192:	14b78863          	beq	a5,a1,12e2 <ch32_pin_irq_enable+0x1a2>
    1196:	00f69733          	sll	a4,a3,a5
    119a:	fec71be3          	bne	a4,a2,1190 <ch32_pin_irq_enable+0x50>
    119e:	473d                	li	a4,15
    11a0:	14f74163          	blt	a4,a5,12e2 <ch32_pin_irq_enable+0x1a2>
    11a4:	00005717          	auipc	a4,0x5
    11a8:	45c70713          	addi	a4,a4,1116 # 6600 <pin_irq_map>
    11ac:	078e                	slli	a5,a5,0x3
    11ae:	97ba                	add	a5,a5,a4
    11b0:	43d8                	lw	a4,4(a5)
    11b2:	4501                	li	a0,0
    11b4:	00575793          	srli	a5,a4,0x5
    11b8:	06078793          	addi	a5,a5,96
    11bc:	00e696b3          	sll	a3,a3,a4
    11c0:	078a                	slli	a5,a5,0x2
    11c2:	e000e737          	lui	a4,0xe000e
    11c6:	97ba                	add	a5,a5,a4
    11c8:	c394                	sw	a3,0(a5)
    11ca:	50f2                	lw	ra,60(sp)
    11cc:	5462                	lw	s0,56(sp)
    11ce:	54d2                	lw	s1,52(sp)
    11d0:	5942                	lw	s2,48(sp)
    11d2:	59b2                	lw	s3,44(sp)
    11d4:	5a22                	lw	s4,40(sp)
    11d6:	5a92                	lw	s5,36(sp)
    11d8:	5b02                	lw	s6,32(sp)
    11da:	6121                	addi	sp,sp,64
    11dc:	8082                	ret
    11de:	8082                	ret
    11e0:	00c7a983          	lw	s3,12(a5)
    11e4:	4401                	li	s0,0
    11e6:	4905                	li	s2,1
    11e8:	02000713          	li	a4,32
    11ec:	a021                	j	11f4 <ch32_pin_irq_enable+0xb4>
    11ee:	0405                	addi	s0,s0,1
    11f0:	0ee40963          	beq	s0,a4,12e2 <ch32_pin_irq_enable+0x1a2>
    11f4:	008917b3          	sll	a5,s2,s0
    11f8:	fef99be3          	bne	s3,a5,11ee <ch32_pin_irq_enable+0xae>
    11fc:	47bd                	li	a5,15
    11fe:	0e87c263          	blt	a5,s0,12e2 <ch32_pin_irq_enable+0x1a2>
    1202:	2d4020ef          	jal	ra,34d6 <rt_hw_interrupt_disable>
    1206:	00141793          	slli	a5,s0,0x1
    120a:	97a2                	add	a5,a5,s0
    120c:	078a                	slli	a5,a5,0x2
    120e:	1ffffb17          	auipc	s6,0x1ffff
    1212:	e12b0b13          	addi	s6,s6,-494 # 20000020 <pin_irq_hdr_tab>
    1216:	9b3e                	add	s6,s6,a5
    1218:	000b1703          	lh	a4,0(s6)
    121c:	57fd                	li	a5,-1
    121e:	8aaa                	mv	s5,a0
    1220:	0cf70f63          	beq	a4,a5,12fe <ch32_pin_irq_enable+0x1be>
    1224:	009a07b3          	add	a5,s4,s1
    1228:	43dc                	lw	a5,4(a5)
    122a:	9782                	jalr	a5
    122c:	4585                	li	a1,1
    122e:	4505                	li	a0,1
    1230:	e68ff0ef          	jal	ra,898 <RCC_APB2PeriphClockCmd>
    1234:	002b5783          	lhu	a5,2(s6)
    1238:	470d                	li	a4,3
    123a:	01311223          	sh	s3,4(sp)
    123e:	c43a                	sw	a4,8(sp)
    1240:	c84e                	sw	s3,16(sp)
    1242:	ca02                	sw	zero,20(sp)
    1244:	ce4a                	sw	s2,28(sp)
    1246:	0b278663          	beq	a5,s2,12f2 <ch32_pin_irq_enable+0x1b2>
    124a:	cfd1                	beqz	a5,12e6 <ch32_pin_irq_enable+0x1a6>
    124c:	4709                	li	a4,2
    124e:	00e79663          	bne	a5,a4,125a <ch32_pin_irq_enable+0x11a>
    1252:	4791                	li	a5,4
    1254:	c63e                	sw	a5,12(sp)
    1256:	47c1                	li	a5,16
    1258:	cc3e                	sw	a5,24(sp)
    125a:	94d2                	add	s1,s1,s4
    125c:	4484                	lw	s1,8(s1)
    125e:	004c                	addi	a1,sp,4
    1260:	8526                	mv	a0,s1
    1262:	b8aff0ef          	jal	ra,5ec <GPIO_Init>
    1266:	400117b7          	lui	a5,0x40011
    126a:	c0078713          	addi	a4,a5,-1024 # 40010c00 <_eusrstack+0x20000c00>
    126e:	4505                	li	a0,1
    1270:	02e48463          	beq	s1,a4,1298 <ch32_pin_irq_enable+0x158>
    1274:	4509                	li	a0,2
    1276:	02f48163          	beq	s1,a5,1298 <ch32_pin_irq_enable+0x158>
    127a:	40078793          	addi	a5,a5,1024
    127e:	450d                	li	a0,3
    1280:	00f48c63          	beq	s1,a5,1298 <ch32_pin_irq_enable+0x158>
    1284:	400127b7          	lui	a5,0x40012
    1288:	80078793          	addi	a5,a5,-2048 # 40011800 <_eusrstack+0x20001800>
    128c:	40f487b3          	sub	a5,s1,a5
    1290:	0017b793          	seqz	a5,a5
    1294:	00279513          	slli	a0,a5,0x2
    1298:	0ff47593          	andi	a1,s0,255
    129c:	c40ff0ef          	jal	ra,6dc <GPIO_EXTILineConfig>
    12a0:	0808                	addi	a0,sp,16
    12a2:	ab4ff0ef          	jal	ra,556 <EXTI_Init>
    12a6:	00005797          	auipc	a5,0x5
    12aa:	35a78793          	addi	a5,a5,858 # 6600 <pin_irq_map>
    12ae:	040e                	slli	s0,s0,0x3
    12b0:	943e                	add	s0,s0,a5
    12b2:	4050                	lw	a2,4(s0)
    12b4:	e000e737          	lui	a4,0xe000e
    12b8:	05000593          	li	a1,80
    12bc:	00565793          	srli	a5,a2,0x5
    12c0:	00c706b3          	add	a3,a4,a2
    12c4:	04078793          	addi	a5,a5,64
    12c8:	40b68023          	sb	a1,1024(a3) # 40021400 <_eusrstack+0x20011400>
    12cc:	078a                	slli	a5,a5,0x2
    12ce:	4685                	li	a3,1
    12d0:	00c696b3          	sll	a3,a3,a2
    12d4:	97ba                	add	a5,a5,a4
    12d6:	8556                	mv	a0,s5
    12d8:	c394                	sw	a3,0(a5)
    12da:	208020ef          	jal	ra,34e2 <rt_hw_interrupt_enable>
    12de:	4501                	li	a0,0
    12e0:	b5ed                	j	11ca <ch32_pin_irq_enable+0x8a>
    12e2:	4519                	li	a0,6
    12e4:	b5dd                	j	11ca <ch32_pin_irq_enable+0x8a>
    12e6:	02800793          	li	a5,40
    12ea:	c63e                	sw	a5,12(sp)
    12ec:	47a1                	li	a5,8
    12ee:	cc3e                	sw	a5,24(sp)
    12f0:	b7ad                	j	125a <ch32_pin_irq_enable+0x11a>
    12f2:	04800793          	li	a5,72
    12f6:	c63e                	sw	a5,12(sp)
    12f8:	47b1                	li	a5,12
    12fa:	cc3e                	sw	a5,24(sp)
    12fc:	bfb9                	j	125a <ch32_pin_irq_enable+0x11a>
    12fe:	1e4020ef          	jal	ra,34e2 <rt_hw_interrupt_enable>
    1302:	4519                	li	a0,6
    1304:	b5d9                	j	11ca <ch32_pin_irq_enable+0x8a>

00001306 <rt_hw_pin_init>:
    1306:	4601                	li	a2,0
    1308:	00005597          	auipc	a1,0x5
    130c:	2e058593          	addi	a1,a1,736 # 65e8 <_ch32_pin_ops>
    1310:	00006517          	auipc	a0,0x6
    1314:	9c050513          	addi	a0,a0,-1600 # 6cd0 <pins+0x650>
    1318:	16f0006f          	j	1c86 <rt_device_pin_register>

0000131c <EXTI0_IRQHandler>:
    131c:	715d                	addi	sp,sp,-80
    131e:	e682                	fsw	ft0,76(sp)
    1320:	e486                	fsw	ft1,72(sp)
    1322:	e28a                	fsw	ft2,68(sp)
    1324:	e08e                	fsw	ft3,64(sp)
    1326:	fe12                	fsw	ft4,60(sp)
    1328:	fc16                	fsw	ft5,56(sp)
    132a:	fa1a                	fsw	ft6,52(sp)
    132c:	f81e                	fsw	ft7,48(sp)
    132e:	f62a                	fsw	fa0,44(sp)
    1330:	f42e                	fsw	fa1,40(sp)
    1332:	f232                	fsw	fa2,36(sp)
    1334:	f036                	fsw	fa3,32(sp)
    1336:	ee3a                	fsw	fa4,28(sp)
    1338:	ec3e                	fsw	fa5,24(sp)
    133a:	ea42                	fsw	fa6,20(sp)
    133c:	e846                	fsw	fa7,16(sp)
    133e:	e672                	fsw	ft8,12(sp)
    1340:	e476                	fsw	ft9,8(sp)
    1342:	e27a                	fsw	ft10,4(sp)
    1344:	e07e                	fsw	ft11,0(sp)
    1346:	34011173          	csrrw	sp,mscratch,sp
    134a:	7ca020ef          	jal	ra,3b14 <rt_interrupt_enter>
    134e:	4505                	li	a0,1
    1350:	a74ff0ef          	jal	ra,5c4 <EXTI_GetITStatus>
    1354:	cd01                	beqz	a0,136c <EXTI0_IRQHandler+0x50>
    1356:	1ffff717          	auipc	a4,0x1ffff
    135a:	cca70713          	addi	a4,a4,-822 # 20000020 <pin_irq_hdr_tab>
    135e:	435c                	lw	a5,4(a4)
    1360:	c399                	beqz	a5,1366 <EXTI0_IRQHandler+0x4a>
    1362:	4708                	lw	a0,8(a4)
    1364:	9782                	jalr	a5
    1366:	4505                	li	a0,1
    1368:	a7aff0ef          	jal	ra,5e2 <EXTI_ClearITPendingBit>
    136c:	7d0020ef          	jal	ra,3b3c <rt_interrupt_leave>
    1370:	34011173          	csrrw	sp,mscratch,sp
    1374:	6036                	flw	ft0,76(sp)
    1376:	60a6                	flw	ft1,72(sp)
    1378:	6116                	flw	ft2,68(sp)
    137a:	6186                	flw	ft3,64(sp)
    137c:	7272                	flw	ft4,60(sp)
    137e:	72e2                	flw	ft5,56(sp)
    1380:	7352                	flw	ft6,52(sp)
    1382:	73c2                	flw	ft7,48(sp)
    1384:	7532                	flw	fa0,44(sp)
    1386:	75a2                	flw	fa1,40(sp)
    1388:	7612                	flw	fa2,36(sp)
    138a:	7682                	flw	fa3,32(sp)
    138c:	6772                	flw	fa4,28(sp)
    138e:	67e2                	flw	fa5,24(sp)
    1390:	6852                	flw	fa6,20(sp)
    1392:	68c2                	flw	fa7,16(sp)
    1394:	6e32                	flw	ft8,12(sp)
    1396:	6ea2                	flw	ft9,8(sp)
    1398:	6f12                	flw	ft10,4(sp)
    139a:	6f82                	flw	ft11,0(sp)
    139c:	6161                	addi	sp,sp,80
    139e:	30200073          	mret

000013a2 <EXTI1_IRQHandler>:
    13a2:	715d                	addi	sp,sp,-80
    13a4:	e682                	fsw	ft0,76(sp)
    13a6:	e486                	fsw	ft1,72(sp)
    13a8:	e28a                	fsw	ft2,68(sp)
    13aa:	e08e                	fsw	ft3,64(sp)
    13ac:	fe12                	fsw	ft4,60(sp)
    13ae:	fc16                	fsw	ft5,56(sp)
    13b0:	fa1a                	fsw	ft6,52(sp)
    13b2:	f81e                	fsw	ft7,48(sp)
    13b4:	f62a                	fsw	fa0,44(sp)
    13b6:	f42e                	fsw	fa1,40(sp)
    13b8:	f232                	fsw	fa2,36(sp)
    13ba:	f036                	fsw	fa3,32(sp)
    13bc:	ee3a                	fsw	fa4,28(sp)
    13be:	ec3e                	fsw	fa5,24(sp)
    13c0:	ea42                	fsw	fa6,20(sp)
    13c2:	e846                	fsw	fa7,16(sp)
    13c4:	e672                	fsw	ft8,12(sp)
    13c6:	e476                	fsw	ft9,8(sp)
    13c8:	e27a                	fsw	ft10,4(sp)
    13ca:	e07e                	fsw	ft11,0(sp)
    13cc:	34011173          	csrrw	sp,mscratch,sp
    13d0:	744020ef          	jal	ra,3b14 <rt_interrupt_enter>
    13d4:	4509                	li	a0,2
    13d6:	9eeff0ef          	jal	ra,5c4 <EXTI_GetITStatus>
    13da:	ed05                	bnez	a0,1412 <EXTI1_IRQHandler+0x70>
    13dc:	760020ef          	jal	ra,3b3c <rt_interrupt_leave>
    13e0:	34011173          	csrrw	sp,mscratch,sp
    13e4:	6036                	flw	ft0,76(sp)
    13e6:	60a6                	flw	ft1,72(sp)
    13e8:	6116                	flw	ft2,68(sp)
    13ea:	6186                	flw	ft3,64(sp)
    13ec:	7272                	flw	ft4,60(sp)
    13ee:	72e2                	flw	ft5,56(sp)
    13f0:	7352                	flw	ft6,52(sp)
    13f2:	73c2                	flw	ft7,48(sp)
    13f4:	7532                	flw	fa0,44(sp)
    13f6:	75a2                	flw	fa1,40(sp)
    13f8:	7612                	flw	fa2,36(sp)
    13fa:	7682                	flw	fa3,32(sp)
    13fc:	6772                	flw	fa4,28(sp)
    13fe:	67e2                	flw	fa5,24(sp)
    1400:	6852                	flw	fa6,20(sp)
    1402:	68c2                	flw	fa7,16(sp)
    1404:	6e32                	flw	ft8,12(sp)
    1406:	6ea2                	flw	ft9,8(sp)
    1408:	6f12                	flw	ft10,4(sp)
    140a:	6f82                	flw	ft11,0(sp)
    140c:	6161                	addi	sp,sp,80
    140e:	30200073          	mret
    1412:	1ffff717          	auipc	a4,0x1ffff
    1416:	c0e70713          	addi	a4,a4,-1010 # 20000020 <pin_irq_hdr_tab>
    141a:	4b1c                	lw	a5,16(a4)
    141c:	c399                	beqz	a5,1422 <EXTI1_IRQHandler+0x80>
    141e:	4b48                	lw	a0,20(a4)
    1420:	9782                	jalr	a5
    1422:	4509                	li	a0,2
    1424:	9beff0ef          	jal	ra,5e2 <EXTI_ClearITPendingBit>
    1428:	bf55                	j	13dc <EXTI1_IRQHandler+0x3a>

0000142a <EXTI2_IRQHandler>:
    142a:	715d                	addi	sp,sp,-80
    142c:	e682                	fsw	ft0,76(sp)
    142e:	e486                	fsw	ft1,72(sp)
    1430:	e28a                	fsw	ft2,68(sp)
    1432:	e08e                	fsw	ft3,64(sp)
    1434:	fe12                	fsw	ft4,60(sp)
    1436:	fc16                	fsw	ft5,56(sp)
    1438:	fa1a                	fsw	ft6,52(sp)
    143a:	f81e                	fsw	ft7,48(sp)
    143c:	f62a                	fsw	fa0,44(sp)
    143e:	f42e                	fsw	fa1,40(sp)
    1440:	f232                	fsw	fa2,36(sp)
    1442:	f036                	fsw	fa3,32(sp)
    1444:	ee3a                	fsw	fa4,28(sp)
    1446:	ec3e                	fsw	fa5,24(sp)
    1448:	ea42                	fsw	fa6,20(sp)
    144a:	e846                	fsw	fa7,16(sp)
    144c:	e672                	fsw	ft8,12(sp)
    144e:	e476                	fsw	ft9,8(sp)
    1450:	e27a                	fsw	ft10,4(sp)
    1452:	e07e                	fsw	ft11,0(sp)
    1454:	34011173          	csrrw	sp,mscratch,sp
    1458:	6bc020ef          	jal	ra,3b14 <rt_interrupt_enter>
    145c:	4511                	li	a0,4
    145e:	966ff0ef          	jal	ra,5c4 <EXTI_GetITStatus>
    1462:	cd01                	beqz	a0,147a <EXTI2_IRQHandler+0x50>
    1464:	1ffff717          	auipc	a4,0x1ffff
    1468:	bbc70713          	addi	a4,a4,-1092 # 20000020 <pin_irq_hdr_tab>
    146c:	4f5c                	lw	a5,28(a4)
    146e:	c399                	beqz	a5,1474 <EXTI2_IRQHandler+0x4a>
    1470:	5308                	lw	a0,32(a4)
    1472:	9782                	jalr	a5
    1474:	4511                	li	a0,4
    1476:	96cff0ef          	jal	ra,5e2 <EXTI_ClearITPendingBit>
    147a:	6c2020ef          	jal	ra,3b3c <rt_interrupt_leave>
    147e:	34011173          	csrrw	sp,mscratch,sp
    1482:	6036                	flw	ft0,76(sp)
    1484:	60a6                	flw	ft1,72(sp)
    1486:	6116                	flw	ft2,68(sp)
    1488:	6186                	flw	ft3,64(sp)
    148a:	7272                	flw	ft4,60(sp)
    148c:	72e2                	flw	ft5,56(sp)
    148e:	7352                	flw	ft6,52(sp)
    1490:	73c2                	flw	ft7,48(sp)
    1492:	7532                	flw	fa0,44(sp)
    1494:	75a2                	flw	fa1,40(sp)
    1496:	7612                	flw	fa2,36(sp)
    1498:	7682                	flw	fa3,32(sp)
    149a:	6772                	flw	fa4,28(sp)
    149c:	67e2                	flw	fa5,24(sp)
    149e:	6852                	flw	fa6,20(sp)
    14a0:	68c2                	flw	fa7,16(sp)
    14a2:	6e32                	flw	ft8,12(sp)
    14a4:	6ea2                	flw	ft9,8(sp)
    14a6:	6f12                	flw	ft10,4(sp)
    14a8:	6f82                	flw	ft11,0(sp)
    14aa:	6161                	addi	sp,sp,80
    14ac:	30200073          	mret

000014b0 <EXTI3_IRQHandler>:
    14b0:	715d                	addi	sp,sp,-80
    14b2:	e682                	fsw	ft0,76(sp)
    14b4:	e486                	fsw	ft1,72(sp)
    14b6:	e28a                	fsw	ft2,68(sp)
    14b8:	e08e                	fsw	ft3,64(sp)
    14ba:	fe12                	fsw	ft4,60(sp)
    14bc:	fc16                	fsw	ft5,56(sp)
    14be:	fa1a                	fsw	ft6,52(sp)
    14c0:	f81e                	fsw	ft7,48(sp)
    14c2:	f62a                	fsw	fa0,44(sp)
    14c4:	f42e                	fsw	fa1,40(sp)
    14c6:	f232                	fsw	fa2,36(sp)
    14c8:	f036                	fsw	fa3,32(sp)
    14ca:	ee3a                	fsw	fa4,28(sp)
    14cc:	ec3e                	fsw	fa5,24(sp)
    14ce:	ea42                	fsw	fa6,20(sp)
    14d0:	e846                	fsw	fa7,16(sp)
    14d2:	e672                	fsw	ft8,12(sp)
    14d4:	e476                	fsw	ft9,8(sp)
    14d6:	e27a                	fsw	ft10,4(sp)
    14d8:	e07e                	fsw	ft11,0(sp)
    14da:	34011173          	csrrw	sp,mscratch,sp
    14de:	636020ef          	jal	ra,3b14 <rt_interrupt_enter>
    14e2:	4521                	li	a0,8
    14e4:	8e0ff0ef          	jal	ra,5c4 <EXTI_GetITStatus>
    14e8:	cd01                	beqz	a0,1500 <EXTI3_IRQHandler+0x50>
    14ea:	1ffff717          	auipc	a4,0x1ffff
    14ee:	b3670713          	addi	a4,a4,-1226 # 20000020 <pin_irq_hdr_tab>
    14f2:	571c                	lw	a5,40(a4)
    14f4:	c399                	beqz	a5,14fa <EXTI3_IRQHandler+0x4a>
    14f6:	5748                	lw	a0,44(a4)
    14f8:	9782                	jalr	a5
    14fa:	4521                	li	a0,8
    14fc:	8e6ff0ef          	jal	ra,5e2 <EXTI_ClearITPendingBit>
    1500:	63c020ef          	jal	ra,3b3c <rt_interrupt_leave>
    1504:	34011173          	csrrw	sp,mscratch,sp
    1508:	6036                	flw	ft0,76(sp)
    150a:	60a6                	flw	ft1,72(sp)
    150c:	6116                	flw	ft2,68(sp)
    150e:	6186                	flw	ft3,64(sp)
    1510:	7272                	flw	ft4,60(sp)
    1512:	72e2                	flw	ft5,56(sp)
    1514:	7352                	flw	ft6,52(sp)
    1516:	73c2                	flw	ft7,48(sp)
    1518:	7532                	flw	fa0,44(sp)
    151a:	75a2                	flw	fa1,40(sp)
    151c:	7612                	flw	fa2,36(sp)
    151e:	7682                	flw	fa3,32(sp)
    1520:	6772                	flw	fa4,28(sp)
    1522:	67e2                	flw	fa5,24(sp)
    1524:	6852                	flw	fa6,20(sp)
    1526:	68c2                	flw	fa7,16(sp)
    1528:	6e32                	flw	ft8,12(sp)
    152a:	6ea2                	flw	ft9,8(sp)
    152c:	6f12                	flw	ft10,4(sp)
    152e:	6f82                	flw	ft11,0(sp)
    1530:	6161                	addi	sp,sp,80
    1532:	30200073          	mret

00001536 <EXTI4_IRQHandler>:
    1536:	715d                	addi	sp,sp,-80
    1538:	e682                	fsw	ft0,76(sp)
    153a:	e486                	fsw	ft1,72(sp)
    153c:	e28a                	fsw	ft2,68(sp)
    153e:	e08e                	fsw	ft3,64(sp)
    1540:	fe12                	fsw	ft4,60(sp)
    1542:	fc16                	fsw	ft5,56(sp)
    1544:	fa1a                	fsw	ft6,52(sp)
    1546:	f81e                	fsw	ft7,48(sp)
    1548:	f62a                	fsw	fa0,44(sp)
    154a:	f42e                	fsw	fa1,40(sp)
    154c:	f232                	fsw	fa2,36(sp)
    154e:	f036                	fsw	fa3,32(sp)
    1550:	ee3a                	fsw	fa4,28(sp)
    1552:	ec3e                	fsw	fa5,24(sp)
    1554:	ea42                	fsw	fa6,20(sp)
    1556:	e846                	fsw	fa7,16(sp)
    1558:	e672                	fsw	ft8,12(sp)
    155a:	e476                	fsw	ft9,8(sp)
    155c:	e27a                	fsw	ft10,4(sp)
    155e:	e07e                	fsw	ft11,0(sp)
    1560:	34011173          	csrrw	sp,mscratch,sp
    1564:	5b0020ef          	jal	ra,3b14 <rt_interrupt_enter>
    1568:	4541                	li	a0,16
    156a:	85aff0ef          	jal	ra,5c4 <EXTI_GetITStatus>
    156e:	cd01                	beqz	a0,1586 <EXTI4_IRQHandler+0x50>
    1570:	1ffff717          	auipc	a4,0x1ffff
    1574:	ab070713          	addi	a4,a4,-1360 # 20000020 <pin_irq_hdr_tab>
    1578:	5b5c                	lw	a5,52(a4)
    157a:	c399                	beqz	a5,1580 <EXTI4_IRQHandler+0x4a>
    157c:	5f08                	lw	a0,56(a4)
    157e:	9782                	jalr	a5
    1580:	4541                	li	a0,16
    1582:	860ff0ef          	jal	ra,5e2 <EXTI_ClearITPendingBit>
    1586:	5b6020ef          	jal	ra,3b3c <rt_interrupt_leave>
    158a:	34011173          	csrrw	sp,mscratch,sp
    158e:	6036                	flw	ft0,76(sp)
    1590:	60a6                	flw	ft1,72(sp)
    1592:	6116                	flw	ft2,68(sp)
    1594:	6186                	flw	ft3,64(sp)
    1596:	7272                	flw	ft4,60(sp)
    1598:	72e2                	flw	ft5,56(sp)
    159a:	7352                	flw	ft6,52(sp)
    159c:	73c2                	flw	ft7,48(sp)
    159e:	7532                	flw	fa0,44(sp)
    15a0:	75a2                	flw	fa1,40(sp)
    15a2:	7612                	flw	fa2,36(sp)
    15a4:	7682                	flw	fa3,32(sp)
    15a6:	6772                	flw	fa4,28(sp)
    15a8:	67e2                	flw	fa5,24(sp)
    15aa:	6852                	flw	fa6,20(sp)
    15ac:	68c2                	flw	fa7,16(sp)
    15ae:	6e32                	flw	ft8,12(sp)
    15b0:	6ea2                	flw	ft9,8(sp)
    15b2:	6f12                	flw	ft10,4(sp)
    15b4:	6f82                	flw	ft11,0(sp)
    15b6:	6161                	addi	sp,sp,80
    15b8:	30200073          	mret

000015bc <EXTI9_5_IRQHandler>:
    15bc:	711d                	addi	sp,sp,-96
    15be:	cea2                	sw	s0,92(sp)
    15c0:	e682                	fsw	ft0,76(sp)
    15c2:	e486                	fsw	ft1,72(sp)
    15c4:	e28a                	fsw	ft2,68(sp)
    15c6:	e08e                	fsw	ft3,64(sp)
    15c8:	fe12                	fsw	ft4,60(sp)
    15ca:	fc16                	fsw	ft5,56(sp)
    15cc:	fa1a                	fsw	ft6,52(sp)
    15ce:	f81e                	fsw	ft7,48(sp)
    15d0:	f62a                	fsw	fa0,44(sp)
    15d2:	f42e                	fsw	fa1,40(sp)
    15d4:	f232                	fsw	fa2,36(sp)
    15d6:	f036                	fsw	fa3,32(sp)
    15d8:	ee3a                	fsw	fa4,28(sp)
    15da:	ec3e                	fsw	fa5,24(sp)
    15dc:	ea42                	fsw	fa6,20(sp)
    15de:	e846                	fsw	fa7,16(sp)
    15e0:	e672                	fsw	ft8,12(sp)
    15e2:	e476                	fsw	ft9,8(sp)
    15e4:	e27a                	fsw	ft10,4(sp)
    15e6:	e07e                	fsw	ft11,0(sp)
    15e8:	34011173          	csrrw	sp,mscratch,sp
    15ec:	528020ef          	jal	ra,3b14 <rt_interrupt_enter>
    15f0:	02000513          	li	a0,32
    15f4:	fd1fe0ef          	jal	ra,5c4 <EXTI_GetITStatus>
    15f8:	c92d                	beqz	a0,166a <EXTI9_5_IRQHandler+0xae>
    15fa:	1ffff417          	auipc	s0,0x1ffff
    15fe:	a2640413          	addi	s0,s0,-1498 # 20000020 <pin_irq_hdr_tab>
    1602:	403c                	lw	a5,64(s0)
    1604:	c399                	beqz	a5,160a <EXTI9_5_IRQHandler+0x4e>
    1606:	4068                	lw	a0,68(s0)
    1608:	9782                	jalr	a5
    160a:	447c                	lw	a5,76(s0)
    160c:	c399                	beqz	a5,1612 <EXTI9_5_IRQHandler+0x56>
    160e:	4828                	lw	a0,80(s0)
    1610:	9782                	jalr	a5
    1612:	4c3c                	lw	a5,88(s0)
    1614:	c399                	beqz	a5,161a <EXTI9_5_IRQHandler+0x5e>
    1616:	4c68                	lw	a0,92(s0)
    1618:	9782                	jalr	a5
    161a:	507c                	lw	a5,100(s0)
    161c:	c399                	beqz	a5,1622 <EXTI9_5_IRQHandler+0x66>
    161e:	5428                	lw	a0,104(s0)
    1620:	9782                	jalr	a5
    1622:	583c                	lw	a5,112(s0)
    1624:	c399                	beqz	a5,162a <EXTI9_5_IRQHandler+0x6e>
    1626:	5868                	lw	a0,116(s0)
    1628:	9782                	jalr	a5
    162a:	3e000513          	li	a0,992
    162e:	fb5fe0ef          	jal	ra,5e2 <EXTI_ClearITPendingBit>
    1632:	50a020ef          	jal	ra,3b3c <rt_interrupt_leave>
    1636:	34011173          	csrrw	sp,mscratch,sp
    163a:	4476                	lw	s0,92(sp)
    163c:	6036                	flw	ft0,76(sp)
    163e:	60a6                	flw	ft1,72(sp)
    1640:	6116                	flw	ft2,68(sp)
    1642:	6186                	flw	ft3,64(sp)
    1644:	7272                	flw	ft4,60(sp)
    1646:	72e2                	flw	ft5,56(sp)
    1648:	7352                	flw	ft6,52(sp)
    164a:	73c2                	flw	ft7,48(sp)
    164c:	7532                	flw	fa0,44(sp)
    164e:	75a2                	flw	fa1,40(sp)
    1650:	7612                	flw	fa2,36(sp)
    1652:	7682                	flw	fa3,32(sp)
    1654:	6772                	flw	fa4,28(sp)
    1656:	67e2                	flw	fa5,24(sp)
    1658:	6852                	flw	fa6,20(sp)
    165a:	68c2                	flw	fa7,16(sp)
    165c:	6e32                	flw	ft8,12(sp)
    165e:	6ea2                	flw	ft9,8(sp)
    1660:	6f12                	flw	ft10,4(sp)
    1662:	6f82                	flw	ft11,0(sp)
    1664:	6125                	addi	sp,sp,96
    1666:	30200073          	mret
    166a:	04000513          	li	a0,64
    166e:	f57fe0ef          	jal	ra,5c4 <EXTI_GetITStatus>
    1672:	f541                	bnez	a0,15fa <EXTI9_5_IRQHandler+0x3e>
    1674:	08000513          	li	a0,128
    1678:	f4dfe0ef          	jal	ra,5c4 <EXTI_GetITStatus>
    167c:	fd3d                	bnez	a0,15fa <EXTI9_5_IRQHandler+0x3e>
    167e:	10000513          	li	a0,256
    1682:	f43fe0ef          	jal	ra,5c4 <EXTI_GetITStatus>
    1686:	f935                	bnez	a0,15fa <EXTI9_5_IRQHandler+0x3e>
    1688:	20000513          	li	a0,512
    168c:	f39fe0ef          	jal	ra,5c4 <EXTI_GetITStatus>
    1690:	f52d                	bnez	a0,15fa <EXTI9_5_IRQHandler+0x3e>
    1692:	b745                	j	1632 <EXTI9_5_IRQHandler+0x76>

00001694 <EXTI15_10_IRQHandler>:
    1694:	711d                	addi	sp,sp,-96
    1696:	cea2                	sw	s0,92(sp)
    1698:	e682                	fsw	ft0,76(sp)
    169a:	e486                	fsw	ft1,72(sp)
    169c:	e28a                	fsw	ft2,68(sp)
    169e:	e08e                	fsw	ft3,64(sp)
    16a0:	fe12                	fsw	ft4,60(sp)
    16a2:	fc16                	fsw	ft5,56(sp)
    16a4:	fa1a                	fsw	ft6,52(sp)
    16a6:	f81e                	fsw	ft7,48(sp)
    16a8:	f62a                	fsw	fa0,44(sp)
    16aa:	f42e                	fsw	fa1,40(sp)
    16ac:	f232                	fsw	fa2,36(sp)
    16ae:	f036                	fsw	fa3,32(sp)
    16b0:	ee3a                	fsw	fa4,28(sp)
    16b2:	ec3e                	fsw	fa5,24(sp)
    16b4:	ea42                	fsw	fa6,20(sp)
    16b6:	e846                	fsw	fa7,16(sp)
    16b8:	e672                	fsw	ft8,12(sp)
    16ba:	e476                	fsw	ft9,8(sp)
    16bc:	e27a                	fsw	ft10,4(sp)
    16be:	e07e                	fsw	ft11,0(sp)
    16c0:	34011173          	csrrw	sp,mscratch,sp
    16c4:	450020ef          	jal	ra,3b14 <rt_interrupt_enter>
    16c8:	40000513          	li	a0,1024
    16cc:	ef9fe0ef          	jal	ra,5c4 <EXTI_GetITStatus>
    16d0:	c949                	beqz	a0,1762 <EXTI15_10_IRQHandler+0xce>
    16d2:	1ffff417          	auipc	s0,0x1ffff
    16d6:	94e40413          	addi	s0,s0,-1714 # 20000020 <pin_irq_hdr_tab>
    16da:	5c7c                	lw	a5,124(s0)
    16dc:	c781                	beqz	a5,16e4 <EXTI15_10_IRQHandler+0x50>
    16de:	08042503          	lw	a0,128(s0)
    16e2:	9782                	jalr	a5
    16e4:	08842783          	lw	a5,136(s0)
    16e8:	c781                	beqz	a5,16f0 <EXTI15_10_IRQHandler+0x5c>
    16ea:	08c42503          	lw	a0,140(s0)
    16ee:	9782                	jalr	a5
    16f0:	09442783          	lw	a5,148(s0)
    16f4:	c781                	beqz	a5,16fc <EXTI15_10_IRQHandler+0x68>
    16f6:	09842503          	lw	a0,152(s0)
    16fa:	9782                	jalr	a5
    16fc:	0a042783          	lw	a5,160(s0)
    1700:	c781                	beqz	a5,1708 <EXTI15_10_IRQHandler+0x74>
    1702:	0a442503          	lw	a0,164(s0)
    1706:	9782                	jalr	a5
    1708:	0ac42783          	lw	a5,172(s0)
    170c:	c781                	beqz	a5,1714 <EXTI15_10_IRQHandler+0x80>
    170e:	0b042503          	lw	a0,176(s0)
    1712:	9782                	jalr	a5
    1714:	0b842783          	lw	a5,184(s0)
    1718:	c781                	beqz	a5,1720 <EXTI15_10_IRQHandler+0x8c>
    171a:	0bc42503          	lw	a0,188(s0)
    171e:	9782                	jalr	a5
    1720:	6541                	lui	a0,0x10
    1722:	c0050513          	addi	a0,a0,-1024 # fc00 <__rt_init_end+0x7e54>
    1726:	ebdfe0ef          	jal	ra,5e2 <EXTI_ClearITPendingBit>
    172a:	412020ef          	jal	ra,3b3c <rt_interrupt_leave>
    172e:	34011173          	csrrw	sp,mscratch,sp
    1732:	4476                	lw	s0,92(sp)
    1734:	6036                	flw	ft0,76(sp)
    1736:	60a6                	flw	ft1,72(sp)
    1738:	6116                	flw	ft2,68(sp)
    173a:	6186                	flw	ft3,64(sp)
    173c:	7272                	flw	ft4,60(sp)
    173e:	72e2                	flw	ft5,56(sp)
    1740:	7352                	flw	ft6,52(sp)
    1742:	73c2                	flw	ft7,48(sp)
    1744:	7532                	flw	fa0,44(sp)
    1746:	75a2                	flw	fa1,40(sp)
    1748:	7612                	flw	fa2,36(sp)
    174a:	7682                	flw	fa3,32(sp)
    174c:	6772                	flw	fa4,28(sp)
    174e:	67e2                	flw	fa5,24(sp)
    1750:	6852                	flw	fa6,20(sp)
    1752:	68c2                	flw	fa7,16(sp)
    1754:	6e32                	flw	ft8,12(sp)
    1756:	6ea2                	flw	ft9,8(sp)
    1758:	6f12                	flw	ft10,4(sp)
    175a:	6f82                	flw	ft11,0(sp)
    175c:	6125                	addi	sp,sp,96
    175e:	30200073          	mret
    1762:	6505                	lui	a0,0x1
    1764:	80050513          	addi	a0,a0,-2048 # 800 <__stack_size>
    1768:	e5dfe0ef          	jal	ra,5c4 <EXTI_GetITStatus>
    176c:	f13d                	bnez	a0,16d2 <EXTI15_10_IRQHandler+0x3e>
    176e:	6505                	lui	a0,0x1
    1770:	e55fe0ef          	jal	ra,5c4 <EXTI_GetITStatus>
    1774:	fd39                	bnez	a0,16d2 <EXTI15_10_IRQHandler+0x3e>
    1776:	6509                	lui	a0,0x2
    1778:	e4dfe0ef          	jal	ra,5c4 <EXTI_GetITStatus>
    177c:	f939                	bnez	a0,16d2 <EXTI15_10_IRQHandler+0x3e>
    177e:	6511                	lui	a0,0x4
    1780:	e45fe0ef          	jal	ra,5c4 <EXTI_GetITStatus>
    1784:	f539                	bnez	a0,16d2 <EXTI15_10_IRQHandler+0x3e>
    1786:	6521                	lui	a0,0x8
    1788:	e3dfe0ef          	jal	ra,5c4 <EXTI_GetITStatus>
    178c:	f139                	bnez	a0,16d2 <EXTI15_10_IRQHandler+0x3e>
    178e:	bf71                	j	172a <EXTI15_10_IRQHandler+0x96>

00001790 <ch32dma_transmit>:
    1790:	4501                	li	a0,0
    1792:	8082                	ret

00001794 <ch32_configure>:
    1794:	1101                	addi	sp,sp,-32
    1796:	cc22                	sw	s0,24(sp)
    1798:	4198                	lw	a4,0(a1)
    179a:	4120                	lw	s0,64(a0)
    179c:	41dc                	lw	a5,4(a1)
    179e:	ce06                	sw	ra,28(sp)
    17a0:	ca26                	sw	s1,20(sp)
    17a2:	c84a                	sw	s2,16(sp)
    17a4:	c018                	sw	a4,0(s0)
    17a6:	4731                	li	a4,12
    17a8:	00e41523          	sh	a4,10(s0)
    17ac:	00041623          	sh	zero,12(s0)
    17b0:	00f7f713          	andi	a4,a5,15
    17b4:	46a1                	li	a3,8
    17b6:	04d71663          	bne	a4,a3,1802 <ch32_configure+0x6e>
    17ba:	00041223          	sh	zero,4(s0)
    17be:	0047d713          	srli	a4,a5,0x4
    17c2:	8b0d                	andi	a4,a4,3
    17c4:	c701                	beqz	a4,17cc <ch32_configure+0x38>
    17c6:	4685                	li	a3,1
    17c8:	04d70463          	beq	a4,a3,1810 <ch32_configure+0x7c>
    17cc:	8399                	srli	a5,a5,0x6
    17ce:	00041323          	sh	zero,6(s0)
    17d2:	8b8d                	andi	a5,a5,3
    17d4:	4705                	li	a4,1
    17d6:	04e78563          	beq	a5,a4,1820 <ch32_configure+0x8c>
    17da:	c781                	beqz	a5,17e2 <ch32_configure+0x4e>
    17dc:	4709                	li	a4,2
    17de:	0ae78b63          	beq	a5,a4,1894 <ch32_configure+0x100>
    17e2:	00041423          	sh	zero,8(s0)
    17e6:	4818                	lw	a4,16(s0)
    17e8:	400147b7          	lui	a5,0x40014
    17ec:	80078793          	addi	a5,a5,-2048 # 40013800 <_eusrstack+0x20003800>
    17f0:	04f70363          	beq	a4,a5,1836 <ch32_configure+0xa2>
    17f4:	40f2                	lw	ra,28(sp)
    17f6:	4462                	lw	s0,24(sp)
    17f8:	44d2                	lw	s1,20(sp)
    17fa:	4942                	lw	s2,16(sp)
    17fc:	4501                	li	a0,0
    17fe:	6105                	addi	sp,sp,32
    1800:	8082                	ret
    1802:	46a5                	li	a3,9
    1804:	fad71be3          	bne	a4,a3,17ba <ch32_configure+0x26>
    1808:	6705                	lui	a4,0x1
    180a:	00e41223          	sh	a4,4(s0)
    180e:	bf45                	j	17be <ch32_configure+0x2a>
    1810:	6709                	lui	a4,0x2
    1812:	8399                	srli	a5,a5,0x6
    1814:	00e41323          	sh	a4,6(s0)
    1818:	8b8d                	andi	a5,a5,3
    181a:	4705                	li	a4,1
    181c:	fae79fe3          	bne	a5,a4,17da <ch32_configure+0x46>
    1820:	60000793          	li	a5,1536
    1824:	4818                	lw	a4,16(s0)
    1826:	00f41423          	sh	a5,8(s0)
    182a:	400147b7          	lui	a5,0x40014
    182e:	80078793          	addi	a5,a5,-2048 # 40013800 <_eusrstack+0x20003800>
    1832:	fcf711e3          	bne	a4,a5,17f4 <ch32_configure+0x60>
    1836:	6511                	lui	a0,0x4
    1838:	4585                	li	a1,1
    183a:	0511                	addi	a0,a0,4
    183c:	85cff0ef          	jal	ra,898 <RCC_APB2PeriphClockCmd>
    1840:	40011937          	lui	s2,0x40011
    1844:	20000793          	li	a5,512
    1848:	448d                	li	s1,3
    184a:	004c                	addi	a1,sp,4
    184c:	80090513          	addi	a0,s2,-2048 # 40010800 <_eusrstack+0x20000800>
    1850:	00f11223          	sh	a5,4(sp)
    1854:	47e1                	li	a5,24
    1856:	c426                	sw	s1,8(sp)
    1858:	c63e                	sw	a5,12(sp)
    185a:	d93fe0ef          	jal	ra,5ec <GPIO_Init>
    185e:	40000793          	li	a5,1024
    1862:	80090513          	addi	a0,s2,-2048
    1866:	004c                	addi	a1,sp,4
    1868:	00f11223          	sh	a5,4(sp)
    186c:	4791                	li	a5,4
    186e:	c63e                	sw	a5,12(sp)
    1870:	c426                	sw	s1,8(sp)
    1872:	d7bfe0ef          	jal	ra,5ec <GPIO_Init>
    1876:	4808                	lw	a0,16(s0)
    1878:	85a2                	mv	a1,s0
    187a:	83cff0ef          	jal	ra,8b6 <USART_Init>
    187e:	4808                	lw	a0,16(s0)
    1880:	4585                	li	a1,1
    1882:	8e2ff0ef          	jal	ra,964 <USART_Cmd>
    1886:	40f2                	lw	ra,28(sp)
    1888:	4462                	lw	s0,24(sp)
    188a:	44d2                	lw	s1,20(sp)
    188c:	4942                	lw	s2,16(sp)
    188e:	4501                	li	a0,0
    1890:	6105                	addi	sp,sp,32
    1892:	8082                	ret
    1894:	40000793          	li	a5,1024
    1898:	00f41423          	sh	a5,8(s0)
    189c:	b7a9                	j	17e6 <ch32_configure+0x52>

0000189e <rt_hw_usart_init>:
    189e:	7179                	addi	sp,sp,-48
    18a0:	d226                	sw	s1,36(sp)
    18a2:	8c818493          	addi	s1,gp,-1848 # 20000288 <serial1>
    18a6:	44f8                	lw	a4,76(s1)
    18a8:	c00007b7          	lui	a5,0xc0000
    18ac:	66c1                	lui	a3,0x10
    18ae:	8ff9                	and	a5,a5,a4
    18b0:	06a1                	addi	a3,a3,8
    18b2:	d422                	sw	s0,40(sp)
    18b4:	8fd5                	or	a5,a5,a3
    18b6:	92018413          	addi	s0,gp,-1760 # 200002e0 <uart1>
    18ba:	03500693          	li	a3,53
    18be:	c854                	sw	a3,20(s0)
    18c0:	400146b7          	lui	a3,0x40014
    18c4:	80068693          	addi	a3,a3,-2048 # 40013800 <_eusrstack+0x20003800>
    18c8:	6771                	lui	a4,0x1c
    18ca:	6511                	lui	a0,0x4
    18cc:	20070713          	addi	a4,a4,512 # 1c200 <__rt_init_end+0x14454>
    18d0:	c814                	sw	a3,16(s0)
    18d2:	c4fc                	sw	a5,76(s1)
    18d4:	00005697          	auipc	a3,0x5
    18d8:	40068693          	addi	a3,a3,1024 # 6cd4 <ch32_uart_ops>
    18dc:	000c07b7          	lui	a5,0xc0
    18e0:	4585                	li	a1,1
    18e2:	0511                	addi	a0,a0,4
    18e4:	d606                	sw	ra,44(sp)
    18e6:	d04a                	sw	s2,32(sp)
    18e8:	ce4e                	sw	s3,28(sp)
    18ea:	c0f4                	sw	a3,68(s1)
    18ec:	c4b8                	sw	a4,72(s1)
    18ee:	c018                	sw	a4,0(s0)
    18f0:	c41c                	sw	a5,8(s0)
    18f2:	00042223          	sw	zero,4(s0)
    18f6:	00041623          	sh	zero,12(s0)
    18fa:	f9ffe0ef          	jal	ra,898 <RCC_APB2PeriphClockCmd>
    18fe:	400119b7          	lui	s3,0x40011
    1902:	20000793          	li	a5,512
    1906:	490d                	li	s2,3
    1908:	004c                	addi	a1,sp,4
    190a:	80098513          	addi	a0,s3,-2048 # 40010800 <_eusrstack+0x20000800>
    190e:	00f11223          	sh	a5,4(sp)
    1912:	47e1                	li	a5,24
    1914:	c44a                	sw	s2,8(sp)
    1916:	c63e                	sw	a5,12(sp)
    1918:	cd5fe0ef          	jal	ra,5ec <GPIO_Init>
    191c:	40000793          	li	a5,1024
    1920:	80098513          	addi	a0,s3,-2048
    1924:	004c                	addi	a1,sp,4
    1926:	00f11223          	sh	a5,4(sp)
    192a:	4791                	li	a5,4
    192c:	c63e                	sw	a5,12(sp)
    192e:	c44a                	sw	s2,8(sp)
    1930:	cbdfe0ef          	jal	ra,5ec <GPIO_Init>
    1934:	4808                	lw	a0,16(s0)
    1936:	85a2                	mv	a1,s0
    1938:	f7ffe0ef          	jal	ra,8b6 <USART_Init>
    193c:	4808                	lw	a0,16(s0)
    193e:	4585                	li	a1,1
    1940:	824ff0ef          	jal	ra,964 <USART_Cmd>
    1944:	86a2                	mv	a3,s0
    1946:	8526                	mv	a0,s1
    1948:	10300613          	li	a2,259
    194c:	00005597          	auipc	a1,0x5
    1950:	39c58593          	addi	a1,a1,924 # 6ce8 <ch32_uart_ops+0x14>
    1954:	2559                	jal	1fda <rt_hw_serial_register>
    1956:	50b2                	lw	ra,44(sp)
    1958:	5422                	lw	s0,40(sp)
    195a:	5492                	lw	s1,36(sp)
    195c:	5902                	lw	s2,32(sp)
    195e:	49f2                	lw	s3,28(sp)
    1960:	4501                	li	a0,0
    1962:	6145                	addi	sp,sp,48
    1964:	8082                	ret

00001966 <ch32_getc>:
    1966:	1141                	addi	sp,sp,-16
    1968:	c422                	sw	s0,8(sp)
    196a:	4120                	lw	s0,64(a0)
    196c:	02000593          	li	a1,32
    1970:	c606                	sw	ra,12(sp)
    1972:	4808                	lw	a0,16(s0)
    1974:	856ff0ef          	jal	ra,9ca <USART_GetFlagStatus>
    1978:	c911                	beqz	a0,198c <ch32_getc+0x26>
    197a:	481c                	lw	a5,16(s0)
    197c:	0047d503          	lhu	a0,4(a5) # c0004 <__rt_init_end+0xb8258>
    1980:	0ff57513          	andi	a0,a0,255
    1984:	40b2                	lw	ra,12(sp)
    1986:	4422                	lw	s0,8(sp)
    1988:	0141                	addi	sp,sp,16
    198a:	8082                	ret
    198c:	557d                	li	a0,-1
    198e:	bfdd                	j	1984 <ch32_getc+0x1e>

00001990 <ch32_putc>:
    1990:	1141                	addi	sp,sp,-16
    1992:	c422                	sw	s0,8(sp)
    1994:	4120                	lw	s0,64(a0)
    1996:	c226                	sw	s1,4(sp)
    1998:	c606                	sw	ra,12(sp)
    199a:	84ae                	mv	s1,a1
    199c:	4808                	lw	a0,16(s0)
    199e:	04000593          	li	a1,64
    19a2:	828ff0ef          	jal	ra,9ca <USART_GetFlagStatus>
    19a6:	d97d                	beqz	a0,199c <ch32_putc+0xc>
    19a8:	481c                	lw	a5,16(s0)
    19aa:	40b2                	lw	ra,12(sp)
    19ac:	4422                	lw	s0,8(sp)
    19ae:	04c2                	slli	s1,s1,0x10
    19b0:	80c1                	srli	s1,s1,0x10
    19b2:	00979223          	sh	s1,4(a5)
    19b6:	4505                	li	a0,1
    19b8:	4492                	lw	s1,4(sp)
    19ba:	0141                	addi	sp,sp,16
    19bc:	8082                	ret

000019be <ch32_control>:
    19be:	1141                	addi	sp,sp,-16
    19c0:	c606                	sw	ra,12(sp)
    19c2:	4741                	li	a4,16
    19c4:	413c                	lw	a5,64(a0)
    19c6:	02e58c63          	beq	a1,a4,19fe <ch32_control+0x40>
    19ca:	4745                	li	a4,17
    19cc:	02e59563          	bne	a1,a4,19f6 <ch32_control+0x38>
    19d0:	4bd0                	lw	a2,20(a5)
    19d2:	4b88                	lw	a0,16(a5)
    19d4:	4685                	li	a3,1
    19d6:	00565713          	srli	a4,a2,0x5
    19da:	06070713          	addi	a4,a4,96
    19de:	070a                	slli	a4,a4,0x2
    19e0:	e000e7b7          	lui	a5,0xe000e
    19e4:	00c696b3          	sll	a3,a3,a2
    19e8:	973e                	add	a4,a4,a5
    19ea:	c314                	sw	a3,0(a4)
    19ec:	4601                	li	a2,0
    19ee:	52500593          	li	a1,1317
    19f2:	f93fe0ef          	jal	ra,984 <USART_ITConfig>
    19f6:	40b2                	lw	ra,12(sp)
    19f8:	4501                	li	a0,0
    19fa:	0141                	addi	sp,sp,16
    19fc:	8082                	ret
    19fe:	4bd0                	lw	a2,20(a5)
    1a00:	4b88                	lw	a0,16(a5)
    1a02:	4685                	li	a3,1
    1a04:	00565713          	srli	a4,a2,0x5
    1a08:	04070713          	addi	a4,a4,64
    1a0c:	e000e7b7          	lui	a5,0xe000e
    1a10:	070a                	slli	a4,a4,0x2
    1a12:	00c696b3          	sll	a3,a3,a2
    1a16:	973e                	add	a4,a4,a5
    1a18:	c314                	sw	a3,0(a4)
    1a1a:	4605                	li	a2,1
    1a1c:	52500593          	li	a1,1317
    1a20:	f65fe0ef          	jal	ra,984 <USART_ITConfig>
    1a24:	40b2                	lw	ra,12(sp)
    1a26:	4501                	li	a0,0
    1a28:	0141                	addi	sp,sp,16
    1a2a:	8082                	ret

00001a2c <USART1_IRQHandler>:
    1a2c:	711d                	addi	sp,sp,-96
    1a2e:	cea2                	sw	s0,92(sp)
    1a30:	cca6                	sw	s1,88(sp)
    1a32:	e682                	fsw	ft0,76(sp)
    1a34:	e486                	fsw	ft1,72(sp)
    1a36:	e28a                	fsw	ft2,68(sp)
    1a38:	e08e                	fsw	ft3,64(sp)
    1a3a:	fe12                	fsw	ft4,60(sp)
    1a3c:	fc16                	fsw	ft5,56(sp)
    1a3e:	fa1a                	fsw	ft6,52(sp)
    1a40:	f81e                	fsw	ft7,48(sp)
    1a42:	f62a                	fsw	fa0,44(sp)
    1a44:	f42e                	fsw	fa1,40(sp)
    1a46:	f232                	fsw	fa2,36(sp)
    1a48:	f036                	fsw	fa3,32(sp)
    1a4a:	ee3a                	fsw	fa4,28(sp)
    1a4c:	ec3e                	fsw	fa5,24(sp)
    1a4e:	ea42                	fsw	fa6,20(sp)
    1a50:	e846                	fsw	fa7,16(sp)
    1a52:	e672                	fsw	ft8,12(sp)
    1a54:	e476                	fsw	ft9,8(sp)
    1a56:	e27a                	fsw	ft10,4(sp)
    1a58:	e07e                	fsw	ft11,0(sp)
    1a5a:	34011173          	csrrw	sp,mscratch,sp
    1a5e:	8c818493          	addi	s1,gp,-1848 # 20000288 <serial1>
    1a62:	0b2020ef          	jal	ra,3b14 <rt_interrupt_enter>
    1a66:	40a0                	lw	s0,64(s1)
    1a68:	52500593          	li	a1,1317
    1a6c:	4808                	lw	a0,16(s0)
    1a6e:	f69fe0ef          	jal	ra,9d6 <USART_GetITStatus>
    1a72:	ed15                	bnez	a0,1aae <USART1_IRQHandler+0x82>
    1a74:	0c8020ef          	jal	ra,3b3c <rt_interrupt_leave>
    1a78:	34011173          	csrrw	sp,mscratch,sp
    1a7c:	4476                	lw	s0,92(sp)
    1a7e:	44e6                	lw	s1,88(sp)
    1a80:	6036                	flw	ft0,76(sp)
    1a82:	60a6                	flw	ft1,72(sp)
    1a84:	6116                	flw	ft2,68(sp)
    1a86:	6186                	flw	ft3,64(sp)
    1a88:	7272                	flw	ft4,60(sp)
    1a8a:	72e2                	flw	ft5,56(sp)
    1a8c:	7352                	flw	ft6,52(sp)
    1a8e:	73c2                	flw	ft7,48(sp)
    1a90:	7532                	flw	fa0,44(sp)
    1a92:	75a2                	flw	fa1,40(sp)
    1a94:	7612                	flw	fa2,36(sp)
    1a96:	7682                	flw	fa3,32(sp)
    1a98:	6772                	flw	fa4,28(sp)
    1a9a:	67e2                	flw	fa5,24(sp)
    1a9c:	6852                	flw	fa6,20(sp)
    1a9e:	68c2                	flw	fa7,16(sp)
    1aa0:	6e32                	flw	ft8,12(sp)
    1aa2:	6ea2                	flw	ft9,8(sp)
    1aa4:	6f12                	flw	ft10,4(sp)
    1aa6:	6f82                	flw	ft11,0(sp)
    1aa8:	6125                	addi	sp,sp,96
    1aaa:	30200073          	mret
    1aae:	8526                	mv	a0,s1
    1ab0:	4585                	li	a1,1
    1ab2:	2bad                	jal	202c <rt_hw_serial_isr>
    1ab4:	4808                	lw	a0,16(s0)
    1ab6:	52500593          	li	a1,1317
    1aba:	f65fe0ef          	jal	ra,a1e <USART_ClearITPendingBit>
    1abe:	bf5d                	j	1a74 <USART1_IRQHandler+0x48>

00001ac0 <rt_heap_begin_get>:
    1ac0:	1ffff517          	auipc	a0,0x1ffff
    1ac4:	83850513          	addi	a0,a0,-1992 # 200002f8 <rt_heap>
    1ac8:	8082                	ret

00001aca <rt_heap_end_get>:
    1aca:	20000517          	auipc	a0,0x20000
    1ace:	82e50513          	addi	a0,a0,-2002 # 200012f8 <_hw_pin>
    1ad2:	8082                	ret

00001ad4 <rt_hw_board_init>:
    1ad4:	80818793          	addi	a5,gp,-2040 # 200001c8 <SystemCoreClock>
    1ad8:	4398                	lw	a4,0(a5)
    1ada:	3e800693          	li	a3,1000
    1ade:	1141                	addi	sp,sp,-16
    1ae0:	02d75733          	divu	a4,a4,a3
    1ae4:	c606                	sw	ra,12(sp)
    1ae6:	c422                	sw	s0,8(sp)
    1ae8:	e000e7b7          	lui	a5,0xe000e
    1aec:	56c1                	li	a3,-16
    1aee:	40d78623          	sb	a3,1036(a5) # e000e40c <_eusrstack+0xbfffe40c>
    1af2:	40d78723          	sb	a3,1038(a5)
    1af6:	6685                	lui	a3,0x1
    1af8:	10d7a023          	sw	a3,256(a5)
    1afc:	6691                	lui	a3,0x4
    1afe:	10d7a023          	sw	a3,256(a5)
    1b02:	e000f7b7          	lui	a5,0xe000f
    1b06:	0007a023          	sw	zero,0(a5) # e000f000 <_eusrstack+0xbffff000>
    1b0a:	0007a223          	sw	zero,4(a5)
    1b0e:	4501                	li	a0,0
    1b10:	c788                	sw	a0,8(a5)
    1b12:	4581                	li	a1,0
    1b14:	c7cc                	sw	a1,12(a5)
    1b16:	4681                	li	a3,0
    1b18:	fff70613          	addi	a2,a4,-1
    1b1c:	cb90                	sw	a2,16(a5)
    1b1e:	cbd4                	sw	a3,20(a5)
    1b20:	473d                	li	a4,15
    1b22:	c398                	sw	a4,0(a5)
    1b24:	2ab010ef          	jal	ra,35ce <rt_components_board_init>
    1b28:	3f61                	jal	1ac0 <rt_heap_begin_get>
    1b2a:	842a                	mv	s0,a0
    1b2c:	3f79                	jal	1aca <rt_heap_end_get>
    1b2e:	85aa                	mv	a1,a0
    1b30:	8522                	mv	a0,s0
    1b32:	215020ef          	jal	ra,4546 <rt_system_heap_init>
    1b36:	4422                	lw	s0,8(sp)
    1b38:	40b2                	lw	ra,12(sp)
    1b3a:	00005517          	auipc	a0,0x5
    1b3e:	1ae50513          	addi	a0,a0,430 # 6ce8 <ch32_uart_ops+0x14>
    1b42:	0141                	addi	sp,sp,16
    1b44:	7e80206f          	j	432c <rt_console_set_device>

00001b48 <SysTick_Handler>:
    1b48:	715d                	addi	sp,sp,-80
    1b4a:	e682                	fsw	ft0,76(sp)
    1b4c:	e486                	fsw	ft1,72(sp)
    1b4e:	e28a                	fsw	ft2,68(sp)
    1b50:	e08e                	fsw	ft3,64(sp)
    1b52:	fe12                	fsw	ft4,60(sp)
    1b54:	fc16                	fsw	ft5,56(sp)
    1b56:	fa1a                	fsw	ft6,52(sp)
    1b58:	f81e                	fsw	ft7,48(sp)
    1b5a:	f62a                	fsw	fa0,44(sp)
    1b5c:	f42e                	fsw	fa1,40(sp)
    1b5e:	f232                	fsw	fa2,36(sp)
    1b60:	f036                	fsw	fa3,32(sp)
    1b62:	ee3a                	fsw	fa4,28(sp)
    1b64:	ec3e                	fsw	fa5,24(sp)
    1b66:	ea42                	fsw	fa6,20(sp)
    1b68:	e846                	fsw	fa7,16(sp)
    1b6a:	e672                	fsw	ft8,12(sp)
    1b6c:	e476                	fsw	ft9,8(sp)
    1b6e:	e27a                	fsw	ft10,4(sp)
    1b70:	e07e                	fsw	ft11,0(sp)
    1b72:	34011173          	csrrw	sp,mscratch,sp
    1b76:	79f010ef          	jal	ra,3b14 <rt_interrupt_enter>
    1b7a:	e000f7b7          	lui	a5,0xe000f
    1b7e:	0007a223          	sw	zero,4(a5) # e000f004 <_eusrstack+0xbffff004>
    1b82:	195010ef          	jal	ra,3516 <rt_tick_increase>
    1b86:	7b7010ef          	jal	ra,3b3c <rt_interrupt_leave>
    1b8a:	34011173          	csrrw	sp,mscratch,sp
    1b8e:	6036                	flw	ft0,76(sp)
    1b90:	60a6                	flw	ft1,72(sp)
    1b92:	6116                	flw	ft2,68(sp)
    1b94:	6186                	flw	ft3,64(sp)
    1b96:	7272                	flw	ft4,60(sp)
    1b98:	72e2                	flw	ft5,56(sp)
    1b9a:	7352                	flw	ft6,52(sp)
    1b9c:	73c2                	flw	ft7,48(sp)
    1b9e:	7532                	flw	fa0,44(sp)
    1ba0:	75a2                	flw	fa1,40(sp)
    1ba2:	7612                	flw	fa2,36(sp)
    1ba4:	7682                	flw	fa3,32(sp)
    1ba6:	6772                	flw	fa4,28(sp)
    1ba8:	67e2                	flw	fa5,24(sp)
    1baa:	6852                	flw	fa6,20(sp)
    1bac:	68c2                	flw	fa7,16(sp)
    1bae:	6e32                	flw	ft8,12(sp)
    1bb0:	6ea2                	flw	ft9,8(sp)
    1bb2:	6f12                	flw	ft10,4(sp)
    1bb4:	6f82                	flw	ft11,0(sp)
    1bb6:	6161                	addi	sp,sp,80
    1bb8:	30200073          	mret

00001bbc <_pin_control>:
    1bbc:	ce19                	beqz	a2,1bda <_pin_control+0x1e>
    1bbe:	4178                	lw	a4,68(a0)
    1bc0:	87b2                	mv	a5,a2
    1bc2:	0007d583          	lhu	a1,0(a5)
    1bc6:	00265603          	lhu	a2,2(a2) # 40021002 <_eusrstack+0x20011002>
    1bca:	431c                	lw	a5,0(a4)
    1bcc:	1141                	addi	sp,sp,-16
    1bce:	c606                	sw	ra,12(sp)
    1bd0:	9782                	jalr	a5
    1bd2:	40b2                	lw	ra,12(sp)
    1bd4:	4501                	li	a0,0
    1bd6:	0141                	addi	sp,sp,16
    1bd8:	8082                	ret
    1bda:	557d                	li	a0,-1
    1bdc:	8082                	ret

00001bde <rt_pin_mode>:
    1bde:	1ffff797          	auipc	a5,0x1ffff
    1be2:	71a78793          	addi	a5,a5,1818 # 200012f8 <_hw_pin>
    1be6:	43f8                	lw	a4,68(a5)
    1be8:	862e                	mv	a2,a1
    1bea:	85aa                	mv	a1,a0
    1bec:	00072303          	lw	t1,0(a4)
    1bf0:	853e                	mv	a0,a5
    1bf2:	8302                	jr	t1

00001bf4 <rt_pin_write>:
    1bf4:	1ffff797          	auipc	a5,0x1ffff
    1bf8:	70478793          	addi	a5,a5,1796 # 200012f8 <_hw_pin>
    1bfc:	43f8                	lw	a4,68(a5)
    1bfe:	862e                	mv	a2,a1
    1c00:	85aa                	mv	a1,a0
    1c02:	00472303          	lw	t1,4(a4)
    1c06:	853e                	mv	a0,a5
    1c08:	8302                	jr	t1

00001c0a <rt_pin_read>:
    1c0a:	1ffff797          	auipc	a5,0x1ffff
    1c0e:	6ee78793          	addi	a5,a5,1774 # 200012f8 <_hw_pin>
    1c12:	43f8                	lw	a4,68(a5)
    1c14:	85aa                	mv	a1,a0
    1c16:	853e                	mv	a0,a5
    1c18:	00872303          	lw	t1,8(a4)
    1c1c:	8302                	jr	t1

00001c1e <_pin_read>:
    1c1e:	ca05                	beqz	a2,1c4e <_pin_read+0x30>
    1c20:	4591                	li	a1,4
    1c22:	4781                	li	a5,0
    1c24:	00b68463          	beq	a3,a1,1c2c <_pin_read+0xe>
    1c28:	853e                	mv	a0,a5
    1c2a:	8082                	ret
    1c2c:	417c                	lw	a5,68(a0)
    1c2e:	00065583          	lhu	a1,0(a2)
    1c32:	1141                	addi	sp,sp,-16
    1c34:	479c                	lw	a5,8(a5)
    1c36:	c422                	sw	s0,8(sp)
    1c38:	c606                	sw	ra,12(sp)
    1c3a:	8432                	mv	s0,a2
    1c3c:	9782                	jalr	a5
    1c3e:	00a41123          	sh	a0,2(s0)
    1c42:	40b2                	lw	ra,12(sp)
    1c44:	4422                	lw	s0,8(sp)
    1c46:	4791                	li	a5,4
    1c48:	853e                	mv	a0,a5
    1c4a:	0141                	addi	sp,sp,16
    1c4c:	8082                	ret
    1c4e:	4781                	li	a5,0
    1c50:	853e                	mv	a0,a5
    1c52:	8082                	ret

00001c54 <_pin_write>:
    1c54:	c615                	beqz	a2,1c80 <_pin_write+0x2c>
    1c56:	4591                	li	a1,4
    1c58:	4781                	li	a5,0
    1c5a:	00b68463          	beq	a3,a1,1c62 <_pin_write+0xe>
    1c5e:	853e                	mv	a0,a5
    1c60:	8082                	ret
    1c62:	4178                	lw	a4,68(a0)
    1c64:	87b2                	mv	a5,a2
    1c66:	0007d583          	lhu	a1,0(a5)
    1c6a:	00265603          	lhu	a2,2(a2)
    1c6e:	435c                	lw	a5,4(a4)
    1c70:	1141                	addi	sp,sp,-16
    1c72:	c606                	sw	ra,12(sp)
    1c74:	9782                	jalr	a5
    1c76:	40b2                	lw	ra,12(sp)
    1c78:	4791                	li	a5,4
    1c7a:	853e                	mv	a0,a5
    1c7c:	0141                	addi	sp,sp,16
    1c7e:	8082                	ret
    1c80:	4781                	li	a5,0
    1c82:	853e                	mv	a0,a5
    1c84:	8082                	ret

00001c86 <rt_device_pin_register>:
    1c86:	1141                	addi	sp,sp,-16
    1c88:	c606                	sw	ra,12(sp)
    1c8a:	1ffff797          	auipc	a5,0x1ffff
    1c8e:	66e78793          	addi	a5,a5,1646 # 200012f8 <_hw_pin>
    1c92:	4749                	li	a4,18
    1c94:	cbd8                	sw	a4,20(a5)
    1c96:	00000717          	auipc	a4,0x0
    1c9a:	f8870713          	addi	a4,a4,-120 # 1c1e <_pin_read>
    1c9e:	dbd8                	sw	a4,52(a5)
    1ca0:	00000717          	auipc	a4,0x0
    1ca4:	fb470713          	addi	a4,a4,-76 # 1c54 <_pin_write>
    1ca8:	c3ec                	sw	a1,68(a5)
    1caa:	c3b0                	sw	a2,64(a5)
    1cac:	85aa                	mv	a1,a0
    1cae:	df98                	sw	a4,56(a5)
    1cb0:	460d                	li	a2,3
    1cb2:	00000717          	auipc	a4,0x0
    1cb6:	f0a70713          	addi	a4,a4,-246 # 1bbc <_pin_control>
    1cba:	853e                	mv	a0,a5
    1cbc:	0207a023          	sw	zero,32(a5)
    1cc0:	0207a223          	sw	zero,36(a5)
    1cc4:	0207a423          	sw	zero,40(a5)
    1cc8:	0207a623          	sw	zero,44(a5)
    1ccc:	0207a823          	sw	zero,48(a5)
    1cd0:	dfd8                	sw	a4,60(a5)
    1cd2:	21b010ef          	jal	ra,36ec <rt_device_register>
    1cd6:	40b2                	lw	ra,12(sp)
    1cd8:	4501                	li	a0,0
    1cda:	0141                	addi	sp,sp,16
    1cdc:	8082                	ret

00001cde <rt_serial_init>:
    1cde:	417c                	lw	a5,68(a0)
    1ce0:	04052823          	sw	zero,80(a0)
    1ce4:	04052a23          	sw	zero,84(a0)
    1ce8:	0007a303          	lw	t1,0(a5)
    1cec:	00030563          	beqz	t1,1cf6 <rt_serial_init+0x18>
    1cf0:	04850593          	addi	a1,a0,72
    1cf4:	8302                	jr	t1
    1cf6:	4501                	li	a0,0
    1cf8:	8082                	ret

00001cfa <rt_serial_write>:
    1cfa:	1101                	addi	sp,sp,-32
    1cfc:	c84a                	sw	s2,16(sp)
    1cfe:	ce06                	sw	ra,28(sp)
    1d00:	cc22                	sw	s0,24(sp)
    1d02:	ca26                	sw	s1,20(sp)
    1d04:	c64e                	sw	s3,12(sp)
    1d06:	c452                	sw	s4,8(sp)
    1d08:	8936                	mv	s2,a3
    1d0a:	ea91                	bnez	a3,1d1e <rt_serial_write+0x24>
    1d0c:	40f2                	lw	ra,28(sp)
    1d0e:	4462                	lw	s0,24(sp)
    1d10:	854a                	mv	a0,s2
    1d12:	44d2                	lw	s1,20(sp)
    1d14:	4942                	lw	s2,16(sp)
    1d16:	49b2                	lw	s3,12(sp)
    1d18:	4a22                	lw	s4,8(sp)
    1d1a:	6105                	addi	sp,sp,32
    1d1c:	8082                	ret
    1d1e:	84aa                	mv	s1,a0
    1d20:	8432                	mv	s0,a2
    1d22:	00d60a33          	add	s4,a2,a3
    1d26:	49a9                	li	s3,10
    1d28:	a809                	j	1d3a <rt_serial_write+0x40>
    1d2a:	01871593          	slli	a1,a4,0x18
    1d2e:	0405                	addi	s0,s0,1
    1d30:	85e1                	srai	a1,a1,0x18
    1d32:	8526                	mv	a0,s1
    1d34:	9682                	jalr	a3
    1d36:	fd440be3          	beq	s0,s4,1d0c <rt_serial_write+0x12>
    1d3a:	40fc                	lw	a5,68(s1)
    1d3c:	00044703          	lbu	a4,0(s0)
    1d40:	4794                	lw	a3,8(a5)
    1d42:	ff3714e3          	bne	a4,s3,1d2a <rt_serial_write+0x30>
    1d46:	01a4d783          	lhu	a5,26(s1)
    1d4a:	45b5                	li	a1,13
    1d4c:	8526                	mv	a0,s1
    1d4e:	0407f793          	andi	a5,a5,64
    1d52:	dfe1                	beqz	a5,1d2a <rt_serial_write+0x30>
    1d54:	9682                	jalr	a3
    1d56:	40fc                	lw	a5,68(s1)
    1d58:	00044703          	lbu	a4,0(s0)
    1d5c:	4794                	lw	a3,8(a5)
    1d5e:	b7f1                	j	1d2a <rt_serial_write+0x30>

00001d60 <rt_serial_open>:
    1d60:	1005f713          	andi	a4,a1,256
    1d64:	c711                	beqz	a4,1d70 <rt_serial_open+0x10>
    1d66:	01855783          	lhu	a5,24(a0)
    1d6a:	1007f793          	andi	a5,a5,256
    1d6e:	cbdd                	beqz	a5,1e24 <rt_serial_open+0xc4>
    1d70:	4005f793          	andi	a5,a1,1024
    1d74:	c791                	beqz	a5,1d80 <rt_serial_open+0x20>
    1d76:	01855783          	lhu	a5,24(a0)
    1d7a:	4007f793          	andi	a5,a5,1024
    1d7e:	c3dd                	beqz	a5,1e24 <rt_serial_open+0xc4>
    1d80:	1141                	addi	sp,sp,-16
    1d82:	c226                	sw	s1,4(sp)
    1d84:	c606                	sw	ra,12(sp)
    1d86:	c422                	sw	s0,8(sp)
    1d88:	c04a                	sw	s2,0(sp)
    1d8a:	0405f793          	andi	a5,a1,64
    1d8e:	04000493          	li	s1,64
    1d92:	c78d                	beqz	a5,1dbc <rt_serial_open+0x5c>
    1d94:	493c                	lw	a5,80(a0)
    1d96:	0ff5f593          	andi	a1,a1,255
    1d9a:	00b51d23          	sh	a1,26(a0)
    1d9e:	842a                	mv	s0,a0
    1da0:	cb8d                	beqz	a5,1dd2 <rt_serial_open+0x72>
    1da2:	c319                	beqz	a4,1da8 <rt_serial_open+0x48>
    1da4:	1005e593          	ori	a1,a1,256
    1da8:	8dc5                	or	a1,a1,s1
    1daa:	00b41d23          	sh	a1,26(s0)
    1dae:	40b2                	lw	ra,12(sp)
    1db0:	4422                	lw	s0,8(sp)
    1db2:	4492                	lw	s1,4(sp)
    1db4:	4902                	lw	s2,0(sp)
    1db6:	4501                	li	a0,0
    1db8:	0141                	addi	sp,sp,16
    1dba:	8082                	ret
    1dbc:	01a55483          	lhu	s1,26(a0)
    1dc0:	493c                	lw	a5,80(a0)
    1dc2:	0ff5f593          	andi	a1,a1,255
    1dc6:	00b51d23          	sh	a1,26(a0)
    1dca:	0404f493          	andi	s1,s1,64
    1dce:	842a                	mv	s0,a0
    1dd0:	fbe9                	bnez	a5,1da2 <rt_serial_open+0x42>
    1dd2:	db79                	beqz	a4,1da8 <rt_serial_open+0x48>
    1dd4:	4568                	lw	a0,76(a0)
    1dd6:	8129                	srli	a0,a0,0xa
    1dd8:	0542                	slli	a0,a0,0x10
    1dda:	8141                	srli	a0,a0,0x10
    1ddc:	0531                	addi	a0,a0,12
    1dde:	7f4020ef          	jal	ra,45d2 <rt_malloc>
    1de2:	4470                	lw	a2,76(s0)
    1de4:	892a                	mv	s2,a0
    1de6:	0531                	addi	a0,a0,12
    1de8:	8229                	srli	a2,a2,0xa
    1dea:	0642                	slli	a2,a2,0x10
    1dec:	4581                	li	a1,0
    1dee:	8241                	srli	a2,a2,0x10
    1df0:	00a92023          	sw	a0,0(s2)
    1df4:	7a9010ef          	jal	ra,3d9c <rt_memset>
    1df8:	4078                	lw	a4,68(s0)
    1dfa:	00092223          	sw	zero,4(s2)
    1dfe:	01a45783          	lhu	a5,26(s0)
    1e02:	4358                	lw	a4,4(a4)
    1e04:	00092423          	sw	zero,8(s2)
    1e08:	1007e793          	ori	a5,a5,256
    1e0c:	45c1                	li	a1,16
    1e0e:	05242823          	sw	s2,80(s0)
    1e12:	00f41d23          	sh	a5,26(s0)
    1e16:	10000613          	li	a2,256
    1e1a:	8522                	mv	a0,s0
    1e1c:	9702                	jalr	a4
    1e1e:	01a45583          	lhu	a1,26(s0)
    1e22:	b759                	j	1da8 <rt_serial_open+0x48>
    1e24:	5561                	li	a0,-8
    1e26:	8082                	ret

00001e28 <rt_serial_control>:
    1e28:	4689                	li	a3,2
    1e2a:	872a                	mv	a4,a0
    1e2c:	00d58c63          	beq	a1,a3,1e44 <rt_serial_control+0x1c>
    1e30:	468d                	li	a3,3
    1e32:	02d58963          	beq	a1,a3,1e64 <rt_serial_control+0x3c>
    1e36:	4685                	li	a3,1
    1e38:	00d58e63          	beq	a1,a3,1e54 <rt_serial_control+0x2c>
    1e3c:	417c                	lw	a5,68(a0)
    1e3e:	0047a303          	lw	t1,4(a5)
    1e42:	8302                	jr	t1
    1e44:	01855783          	lhu	a5,24(a0)
    1e48:	4501                	li	a0,0
    1e4a:	0207e793          	ori	a5,a5,32
    1e4e:	00f71c23          	sh	a5,24(a4)
    1e52:	8082                	ret
    1e54:	01855783          	lhu	a5,24(a0)
    1e58:	4501                	li	a0,0
    1e5a:	fdf7f793          	andi	a5,a5,-33
    1e5e:	00f71c23          	sh	a5,24(a4)
    1e62:	8082                	ret
    1e64:	8832                	mv	a6,a2
    1e66:	c61d                	beqz	a2,1e94 <rt_serial_control+0x6c>
    1e68:	4254                	lw	a3,4(a2)
    1e6a:	457c                	lw	a5,76(a0)
    1e6c:	01c54603          	lbu	a2,28(a0)
    1e70:	82a9                	srli	a3,a3,0xa
    1e72:	83a9                	srli	a5,a5,0xa
    1e74:	06c2                	slli	a3,a3,0x10
    1e76:	07c2                	slli	a5,a5,0x10
    1e78:	82c1                	srli	a3,a3,0x10
    1e7a:	83c1                	srli	a5,a5,0x10
    1e7c:	00f68e63          	beq	a3,a5,1e98 <rt_serial_control+0x70>
    1e80:	451d                	li	a0,7
    1e82:	ee05                	bnez	a2,1eba <rt_serial_control+0x92>
    1e84:	00082783          	lw	a5,0(a6)
    1e88:	4501                	li	a0,0
    1e8a:	c73c                	sw	a5,72(a4)
    1e8c:	00482783          	lw	a5,4(a6)
    1e90:	c77c                	sw	a5,76(a4)
    1e92:	8082                	ret
    1e94:	4501                	li	a0,0
    1e96:	8082                	ret
    1e98:	00082783          	lw	a5,0(a6)
    1e9c:	c53c                	sw	a5,72(a0)
    1e9e:	00482783          	lw	a5,4(a6)
    1ea2:	c57c                	sw	a5,76(a0)
    1ea4:	da65                	beqz	a2,1e94 <rt_serial_control+0x6c>
    1ea6:	417c                	lw	a5,68(a0)
    1ea8:	1141                	addi	sp,sp,-16
    1eaa:	c606                	sw	ra,12(sp)
    1eac:	439c                	lw	a5,0(a5)
    1eae:	85c2                	mv	a1,a6
    1eb0:	9782                	jalr	a5
    1eb2:	40b2                	lw	ra,12(sp)
    1eb4:	4501                	li	a0,0
    1eb6:	0141                	addi	sp,sp,16
    1eb8:	8082                	ret
    1eba:	8082                	ret

00001ebc <rt_serial_read>:
    1ebc:	c2ad                	beqz	a3,1f1e <rt_serial_read+0x62>
    1ebe:	01a55783          	lhu	a5,26(a0)
    1ec2:	1101                	addi	sp,sp,-32
    1ec4:	cc22                	sw	s0,24(sp)
    1ec6:	ca26                	sw	s1,20(sp)
    1ec8:	c84a                	sw	s2,16(sp)
    1eca:	c64e                	sw	s3,12(sp)
    1ecc:	c452                	sw	s4,8(sp)
    1ece:	c256                	sw	s5,4(sp)
    1ed0:	ce06                	sw	ra,28(sp)
    1ed2:	c05a                	sw	s6,0(sp)
    1ed4:	1007f793          	andi	a5,a5,256
    1ed8:	8a36                	mv	s4,a3
    1eda:	892a                	mv	s2,a0
    1edc:	8432                	mv	s0,a2
    1ede:	84b6                	mv	s1,a3
    1ee0:	59fd                	li	s3,-1
    1ee2:	4aa9                	li	s5,10
    1ee4:	ef9d                	bnez	a5,1f22 <rt_serial_read+0x66>
    1ee6:	04492783          	lw	a5,68(s2)
    1eea:	854a                	mv	a0,s2
    1eec:	47dc                	lw	a5,12(a5)
    1eee:	9782                	jalr	a5
    1ef0:	03350463          	beq	a0,s3,1f18 <rt_serial_read+0x5c>
    1ef4:	00a40023          	sb	a0,0(s0)
    1ef8:	14fd                	addi	s1,s1,-1
    1efa:	0405                	addi	s0,s0,1
    1efc:	01550e63          	beq	a0,s5,1f18 <rt_serial_read+0x5c>
    1f00:	f0fd                	bnez	s1,1ee6 <rt_serial_read+0x2a>
    1f02:	8552                	mv	a0,s4
    1f04:	40f2                	lw	ra,28(sp)
    1f06:	4462                	lw	s0,24(sp)
    1f08:	44d2                	lw	s1,20(sp)
    1f0a:	4942                	lw	s2,16(sp)
    1f0c:	49b2                	lw	s3,12(sp)
    1f0e:	4a22                	lw	s4,8(sp)
    1f10:	4a92                	lw	s5,4(sp)
    1f12:	4b02                	lw	s6,0(sp)
    1f14:	6105                	addi	sp,sp,32
    1f16:	8082                	ret
    1f18:	409a0533          	sub	a0,s4,s1
    1f1c:	b7e5                	j	1f04 <rt_serial_read+0x48>
    1f1e:	4501                	li	a0,0
    1f20:	8082                	ret
    1f22:	05052983          	lw	s3,80(a0)
    1f26:	4a85                	li	s5,1
    1f28:	5ae010ef          	jal	ra,34d6 <rt_hw_interrupt_disable>
    1f2c:	0069d683          	lhu	a3,6(s3)
    1f30:	0049d783          	lhu	a5,4(s3)
    1f34:	882a                	mv	a6,a0
    1f36:	00168713          	addi	a4,a3,1 # 4001 <rt_vsnprintf+0x103>
    1f3a:	0742                	slli	a4,a4,0x10
    1f3c:	8341                	srli	a4,a4,0x10
    1f3e:	0089a583          	lw	a1,8(s3)
    1f42:	02d78f63          	beq	a5,a3,1f80 <rt_serial_read+0xc4>
    1f46:	04c92783          	lw	a5,76(s2)
    1f4a:	0009a603          	lw	a2,0(s3)
    1f4e:	8542                	mv	a0,a6
    1f50:	83a9                	srli	a5,a5,0xa
    1f52:	96b2                	add	a3,a3,a2
    1f54:	07c2                	slli	a5,a5,0x10
    1f56:	0006cb03          	lbu	s6,0(a3)
    1f5a:	83c1                	srli	a5,a5,0x10
    1f5c:	00e99323          	sh	a4,6(s3)
    1f60:	14fd                	addi	s1,s1,-1
    1f62:	00f76463          	bltu	a4,a5,1f6a <rt_serial_read+0xae>
    1f66:	00099323          	sh	zero,6(s3)
    1f6a:	01559463          	bne	a1,s5,1f72 <rt_serial_read+0xb6>
    1f6e:	0009a423          	sw	zero,8(s3)
    1f72:	570010ef          	jal	ra,34e2 <rt_hw_interrupt_enable>
    1f76:	01640023          	sb	s6,0(s0)
    1f7a:	0405                	addi	s0,s0,1
    1f7c:	f4d5                	bnez	s1,1f28 <rt_serial_read+0x6c>
    1f7e:	b751                	j	1f02 <rt_serial_read+0x46>
    1f80:	f1f9                	bnez	a1,1f46 <rt_serial_read+0x8a>
    1f82:	560010ef          	jal	ra,34e2 <rt_hw_interrupt_enable>
    1f86:	409a0a33          	sub	s4,s4,s1
    1f8a:	bfa5                	j	1f02 <rt_serial_read+0x46>

00001f8c <rt_serial_close>:
    1f8c:	01c54703          	lbu	a4,28(a0)
    1f90:	4785                	li	a5,1
    1f92:	00e7e763          	bltu	a5,a4,1fa0 <rt_serial_close+0x14>
    1f96:	01a55783          	lhu	a5,26(a0)
    1f9a:	1007f793          	andi	a5,a5,256
    1f9e:	e399                	bnez	a5,1fa4 <rt_serial_close+0x18>
    1fa0:	4501                	li	a0,0
    1fa2:	8082                	ret
    1fa4:	1141                	addi	sp,sp,-16
    1fa6:	c422                	sw	s0,8(sp)
    1fa8:	842a                	mv	s0,a0
    1faa:	4928                	lw	a0,80(a0)
    1fac:	c606                	sw	ra,12(sp)
    1fae:	7ae020ef          	jal	ra,475c <rt_free>
    1fb2:	4078                	lw	a4,68(s0)
    1fb4:	01a45783          	lhu	a5,26(s0)
    1fb8:	04042823          	sw	zero,80(s0)
    1fbc:	4358                	lw	a4,4(a4)
    1fbe:	eff7f793          	andi	a5,a5,-257
    1fc2:	00f41d23          	sh	a5,26(s0)
    1fc6:	8522                	mv	a0,s0
    1fc8:	10000613          	li	a2,256
    1fcc:	45c5                	li	a1,17
    1fce:	9702                	jalr	a4
    1fd0:	40b2                	lw	ra,12(sp)
    1fd2:	4422                	lw	s0,8(sp)
    1fd4:	4501                	li	a0,0
    1fd6:	0141                	addi	sp,sp,16
    1fd8:	8082                	ret

00001fda <rt_hw_serial_register>:
    1fda:	00000717          	auipc	a4,0x0
    1fde:	d0470713          	addi	a4,a4,-764 # 1cde <rt_serial_init>
    1fe2:	d518                	sw	a4,40(a0)
    1fe4:	00000717          	auipc	a4,0x0
    1fe8:	d7c70713          	addi	a4,a4,-644 # 1d60 <rt_serial_open>
    1fec:	d558                	sw	a4,44(a0)
    1fee:	00000717          	auipc	a4,0x0
    1ff2:	f9e70713          	addi	a4,a4,-98 # 1f8c <rt_serial_close>
    1ff6:	d918                	sw	a4,48(a0)
    1ff8:	00000717          	auipc	a4,0x0
    1ffc:	ec470713          	addi	a4,a4,-316 # 1ebc <rt_serial_read>
    2000:	d958                	sw	a4,52(a0)
    2002:	00000717          	auipc	a4,0x0
    2006:	cf870713          	addi	a4,a4,-776 # 1cfa <rt_serial_write>
    200a:	dd18                	sw	a4,56(a0)
    200c:	0642                	slli	a2,a2,0x10
    200e:	00000717          	auipc	a4,0x0
    2012:	e1a70713          	addi	a4,a4,-486 # 1e28 <rt_serial_control>
    2016:	00052a23          	sw	zero,20(a0)
    201a:	02052023          	sw	zero,32(a0)
    201e:	02052223          	sw	zero,36(a0)
    2022:	dd58                	sw	a4,60(a0)
    2024:	c134                	sw	a3,64(a0)
    2026:	8241                	srli	a2,a2,0x10
    2028:	6c40106f          	j	36ec <rt_device_register>

0000202c <rt_hw_serial_isr>:
    202c:	0ff5f593          	andi	a1,a1,255
    2030:	4785                	li	a5,1
    2032:	00f58363          	beq	a1,a5,2038 <rt_hw_serial_isr+0xc>
    2036:	8082                	ret
    2038:	1101                	addi	sp,sp,-32
    203a:	cc22                	sw	s0,24(sp)
    203c:	ca26                	sw	s1,20(sp)
    203e:	c84a                	sw	s2,16(sp)
    2040:	c64e                	sw	s3,12(sp)
    2042:	ce06                	sw	ra,28(sp)
    2044:	c452                	sw	s4,8(sp)
    2046:	84aa                	mv	s1,a0
    2048:	4920                	lw	s0,80(a0)
    204a:	597d                	li	s2,-1
    204c:	4985                	li	s3,1
    204e:	a019                	j	2054 <rt_hw_serial_isr+0x28>
    2050:	492010ef          	jal	ra,34e2 <rt_hw_interrupt_enable>
    2054:	40fc                	lw	a5,68(s1)
    2056:	8526                	mv	a0,s1
    2058:	47dc                	lw	a5,12(a5)
    205a:	9782                	jalr	a5
    205c:	8a2a                	mv	s4,a0
    205e:	05250a63          	beq	a0,s2,20b2 <rt_hw_serial_isr+0x86>
    2062:	474010ef          	jal	ra,34d6 <rt_hw_interrupt_disable>
    2066:	00445703          	lhu	a4,4(s0)
    206a:	401c                	lw	a5,0(s0)
    206c:	97ba                	add	a5,a5,a4
    206e:	01478023          	sb	s4,0(a5)
    2072:	00445783          	lhu	a5,4(s0)
    2076:	44f8                	lw	a4,76(s1)
    2078:	0785                	addi	a5,a5,1
    207a:	07c2                	slli	a5,a5,0x10
    207c:	8329                	srli	a4,a4,0xa
    207e:	83c1                	srli	a5,a5,0x10
    2080:	0742                	slli	a4,a4,0x10
    2082:	00f41223          	sh	a5,4(s0)
    2086:	8341                	srli	a4,a4,0x10
    2088:	00e7e563          	bltu	a5,a4,2092 <rt_hw_serial_isr+0x66>
    208c:	00041223          	sh	zero,4(s0)
    2090:	4781                	li	a5,0
    2092:	00645683          	lhu	a3,6(s0)
    2096:	faf69de3          	bne	a3,a5,2050 <rt_hw_serial_isr+0x24>
    209a:	0785                	addi	a5,a5,1
    209c:	07c2                	slli	a5,a5,0x10
    209e:	83c1                	srli	a5,a5,0x10
    20a0:	00f41323          	sh	a5,6(s0)
    20a4:	01342423          	sw	s3,8(s0)
    20a8:	fae7e4e3          	bltu	a5,a4,2050 <rt_hw_serial_isr+0x24>
    20ac:	00041323          	sh	zero,6(s0)
    20b0:	b745                	j	2050 <rt_hw_serial_isr+0x24>
    20b2:	509c                	lw	a5,32(s1)
    20b4:	cf9d                	beqz	a5,20f2 <rt_hw_serial_isr+0xc6>
    20b6:	420010ef          	jal	ra,34d6 <rt_hw_interrupt_disable>
    20ba:	00445783          	lhu	a5,4(s0)
    20be:	00645583          	lhu	a1,6(s0)
    20c2:	40b78433          	sub	s0,a5,a1
    20c6:	00b7f863          	bgeu	a5,a1,20d6 <rt_hw_serial_isr+0xaa>
    20ca:	44e0                	lw	s0,76(s1)
    20cc:	8d9d                	sub	a1,a1,a5
    20ce:	8029                	srli	s0,s0,0xa
    20d0:	0442                	slli	s0,s0,0x10
    20d2:	8041                	srli	s0,s0,0x10
    20d4:	8c0d                	sub	s0,s0,a1
    20d6:	40c010ef          	jal	ra,34e2 <rt_hw_interrupt_enable>
    20da:	85a2                	mv	a1,s0
    20dc:	4462                	lw	s0,24(sp)
    20de:	0204a303          	lw	t1,32(s1)
    20e2:	40f2                	lw	ra,28(sp)
    20e4:	4942                	lw	s2,16(sp)
    20e6:	49b2                	lw	s3,12(sp)
    20e8:	4a22                	lw	s4,8(sp)
    20ea:	8526                	mv	a0,s1
    20ec:	44d2                	lw	s1,20(sp)
    20ee:	6105                	addi	sp,sp,32
    20f0:	8302                	jr	t1
    20f2:	40f2                	lw	ra,28(sp)
    20f4:	4462                	lw	s0,24(sp)
    20f6:	44d2                	lw	s1,20(sp)
    20f8:	4942                	lw	s2,16(sp)
    20fa:	49b2                	lw	s3,12(sp)
    20fc:	4a22                	lw	s4,8(sp)
    20fe:	6105                	addi	sp,sp,32
    2100:	8082                	ret

00002102 <reboot>:
    2102:	beef07b7          	lui	a5,0xbeef0
    2106:	e000e737          	lui	a4,0xe000e
    210a:	08078793          	addi	a5,a5,128 # beef0080 <_eusrstack+0x9eee0080>
    210e:	c73c                	sw	a5,72(a4)
    2110:	4501                	li	a0,0
    2112:	8082                	ret

00002114 <clear>:
    2114:	1141                	addi	sp,sp,-16
    2116:	00005517          	auipc	a0,0x5
    211a:	c4a50513          	addi	a0,a0,-950 # 6d60 <__fsym_pinMode_name+0x8>
    211e:	c606                	sw	ra,12(sp)
    2120:	24c020ef          	jal	ra,436c <rt_kprintf>
    2124:	40b2                	lw	ra,12(sp)
    2126:	4501                	li	a0,0
    2128:	0141                	addi	sp,sp,16
    212a:	8082                	ret

0000212c <show_wait_queue>:
    212c:	1101                	addi	sp,sp,-32
    212e:	cc22                	sw	s0,24(sp)
    2130:	4100                	lw	s0,0(a0)
    2132:	ce06                	sw	ra,28(sp)
    2134:	ca26                	sw	s1,20(sp)
    2136:	c84a                	sw	s2,16(sp)
    2138:	c64e                	sw	s3,12(sp)
    213a:	02850a63          	beq	a0,s0,216e <show_wait_queue+0x42>
    213e:	84aa                	mv	s1,a0
    2140:	00005997          	auipc	s3,0x5
    2144:	38c98993          	addi	s3,s3,908 # 74cc <__fsym_reboot_name+0x8>
    2148:	00005917          	auipc	s2,0x5
    214c:	38890913          	addi	s2,s2,904 # 74d0 <__fsym_reboot_name+0xc>
    2150:	a031                	j	215c <show_wait_queue+0x30>
    2152:	21a020ef          	jal	ra,436c <rt_kprintf>
    2156:	4000                	lw	s0,0(s0)
    2158:	00848b63          	beq	s1,s0,216e <show_wait_queue+0x42>
    215c:	854e                	mv	a0,s3
    215e:	fec40593          	addi	a1,s0,-20
    2162:	20a020ef          	jal	ra,436c <rt_kprintf>
    2166:	401c                	lw	a5,0(s0)
    2168:	854a                	mv	a0,s2
    216a:	fe9794e3          	bne	a5,s1,2152 <show_wait_queue+0x26>
    216e:	40f2                	lw	ra,28(sp)
    2170:	4462                	lw	s0,24(sp)
    2172:	44d2                	lw	s1,20(sp)
    2174:	4942                	lw	s2,16(sp)
    2176:	49b2                	lw	s3,12(sp)
    2178:	6105                	addi	sp,sp,32
    217a:	8082                	ret

0000217c <object_name_maxlen>:
    217c:	1141                	addi	sp,sp,-16
    217e:	c606                	sw	ra,12(sp)
    2180:	c422                	sw	s0,8(sp)
    2182:	c226                	sw	s1,4(sp)
    2184:	c04a                	sw	s2,0(sp)
    2186:	892e                	mv	s2,a1
    2188:	55d010ef          	jal	ra,3ee4 <rt_strlen>
    218c:	84aa                	mv	s1,a0
    218e:	23f020ef          	jal	ra,4bcc <rt_enter_critical>
    2192:	00092403          	lw	s0,0(s2)
    2196:	00890c63          	beq	s2,s0,21ae <object_name_maxlen+0x32>
    219a:	ff440513          	addi	a0,s0,-12
    219e:	547010ef          	jal	ra,3ee4 <rt_strlen>
    21a2:	00a4d363          	bge	s1,a0,21a8 <object_name_maxlen+0x2c>
    21a6:	84aa                	mv	s1,a0
    21a8:	4000                	lw	s0,0(s0)
    21aa:	fe8918e3          	bne	s2,s0,219a <object_name_maxlen+0x1e>
    21ae:	23d020ef          	jal	ra,4bea <rt_exit_critical>
    21b2:	47a1                	li	a5,8
    21b4:	0097ca63          	blt	a5,s1,21c8 <object_name_maxlen+0x4c>
    21b8:	c881                	beqz	s1,21c8 <object_name_maxlen+0x4c>
    21ba:	40b2                	lw	ra,12(sp)
    21bc:	4422                	lw	s0,8(sp)
    21be:	8526                	mv	a0,s1
    21c0:	4902                	lw	s2,0(sp)
    21c2:	4492                	lw	s1,4(sp)
    21c4:	0141                	addi	sp,sp,16
    21c6:	8082                	ret
    21c8:	40b2                	lw	ra,12(sp)
    21ca:	4422                	lw	s0,8(sp)
    21cc:	44a1                	li	s1,8
    21ce:	8526                	mv	a0,s1
    21d0:	4902                	lw	s2,0(sp)
    21d2:	4492                	lw	s1,4(sp)
    21d4:	0141                	addi	sp,sp,16
    21d6:	8082                	ret

000021d8 <list_thread>:
    21d8:	7179                	addi	sp,sp,-48
    21da:	4505                	li	a0,1
    21dc:	d606                	sw	ra,44(sp)
    21de:	d422                	sw	s0,40(sp)
    21e0:	d226                	sw	s1,36(sp)
    21e2:	d04a                	sw	s2,32(sp)
    21e4:	ce4e                	sw	s3,28(sp)
    21e6:	cc52                	sw	s4,24(sp)
    21e8:	ca56                	sw	s5,20(sp)
    21ea:	c85a                	sw	s6,16(sp)
    21ec:	c65e                	sw	s7,12(sp)
    21ee:	c462                	sw	s8,8(sp)
    21f0:	c266                	sw	s9,4(sp)
    21f2:	c06a                	sw	s10,0(sp)
    21f4:	63e020ef          	jal	ra,4832 <rt_object_get_information>
    21f8:	00450913          	addi	s2,a0,4
    21fc:	85ca                	mv	a1,s2
    21fe:	89aa                	mv	s3,a0
    2200:	00005517          	auipc	a0,0x5
    2204:	e1450513          	addi	a0,a0,-492 # 7014 <__fsym_pinMode_name+0x2bc>
    2208:	3f95                	jal	217c <object_name_maxlen>
    220a:	84aa                	mv	s1,a0
    220c:	85aa                	mv	a1,a0
    220e:	00005617          	auipc	a2,0x5
    2212:	e0660613          	addi	a2,a2,-506 # 7014 <__fsym_pinMode_name+0x2bc>
    2216:	00005517          	auipc	a0,0x5
    221a:	e0650513          	addi	a0,a0,-506 # 701c <__fsym_pinMode_name+0x2c4>
    221e:	14e020ef          	jal	ra,436c <rt_kprintf>
    2222:	fff48413          	addi	s0,s1,-1
    2226:	00005a97          	auipc	s5,0x5
    222a:	e7aa8a93          	addi	s5,s5,-390 # 70a0 <__fsym_pinMode_name+0x348>
    222e:	5a7d                	li	s4,-1
    2230:	c499                	beqz	s1,223e <list_thread+0x66>
    2232:	147d                	addi	s0,s0,-1
    2234:	8556                	mv	a0,s5
    2236:	136020ef          	jal	ra,436c <rt_kprintf>
    223a:	ff441ce3          	bne	s0,s4,2232 <list_thread+0x5a>
    223e:	00005517          	auipc	a0,0x5
    2242:	e2250513          	addi	a0,a0,-478 # 7060 <__fsym_pinMode_name+0x308>
    2246:	126020ef          	jal	ra,436c <rt_kprintf>
    224a:	0049a403          	lw	s0,4(s3)
    224e:	0a890563          	beq	s2,s0,22f8 <list_thread+0x120>
    2252:	00005c97          	auipc	s9,0x5
    2256:	e52c8c93          	addi	s9,s9,-430 # 70a4 <__fsym_pinMode_name+0x34c>
    225a:	4c05                	li	s8,1
    225c:	4b89                	li	s7,2
    225e:	4b11                	li	s6,4
    2260:	00005d17          	auipc	s10,0x5
    2264:	e74d0d13          	addi	s10,s10,-396 # 70d4 <__fsym_pinMode_name+0x37c>
    2268:	00005a97          	auipc	s5,0x5
    226c:	e60a8a93          	addi	s5,s5,-416 # 70c8 <__fsym_pinMode_name+0x370>
    2270:	00005a17          	auipc	s4,0x5
    2274:	e4ca0a13          	addi	s4,s4,-436 # 70bc <__fsym_pinMode_name+0x364>
    2278:	00005997          	auipc	s3,0x5
    227c:	e3898993          	addi	s3,s3,-456 # 70b0 <__fsym_pinMode_name+0x358>
    2280:	02944703          	lbu	a4,41(s0)
    2284:	ff440693          	addi	a3,s0,-12
    2288:	4621                	li	a2,8
    228a:	85a6                	mv	a1,s1
    228c:	8566                	mv	a0,s9
    228e:	0de020ef          	jal	ra,436c <rt_kprintf>
    2292:	02844783          	lbu	a5,40(s0)
    2296:	8bbd                	andi	a5,a5,15
    2298:	09878b63          	beq	a5,s8,232e <list_thread+0x156>
    229c:	09778d63          	beq	a5,s7,2336 <list_thread+0x15e>
    22a0:	cbbd                	beqz	a5,2316 <list_thread+0x13e>
    22a2:	09678e63          	beq	a5,s6,233e <list_thread+0x166>
    22a6:	4c58                	lw	a4,28(s0)
    22a8:	02300793          	li	a5,35
    22ac:	00074683          	lbu	a3,0(a4) # e000e000 <_eusrstack+0xbfffe000>
    22b0:	06f69d63          	bne	a3,a5,232a <list_thread+0x152>
    22b4:	87ba                	mv	a5,a4
    22b6:	02300693          	li	a3,35
    22ba:	0785                	addi	a5,a5,1
    22bc:	0007c603          	lbu	a2,0(a5)
    22c0:	fed60de3          	beq	a2,a3,22ba <list_thread+0xe2>
    22c4:	02042803          	lw	a6,32(s0)
    22c8:	06400693          	li	a3,100
    22cc:	4808                	lw	a0,16(s0)
    22ce:	010705b3          	add	a1,a4,a6
    22d2:	40f587b3          	sub	a5,a1,a5
    22d6:	02d786b3          	mul	a3,a5,a3
    22da:	5c58                	lw	a4,60(s0)
    22dc:	505c                	lw	a5,36(s0)
    22de:	8d89                	sub	a1,a1,a0
    22e0:	8642                	mv	a2,a6
    22e2:	00005517          	auipc	a0,0x5
    22e6:	dfe50513          	addi	a0,a0,-514 # 70e0 <__fsym_pinMode_name+0x388>
    22ea:	0306d6b3          	divu	a3,a3,a6
    22ee:	07e020ef          	jal	ra,436c <rt_kprintf>
    22f2:	4000                	lw	s0,0(s0)
    22f4:	f88916e3          	bne	s2,s0,2280 <list_thread+0xa8>
    22f8:	50b2                	lw	ra,44(sp)
    22fa:	5422                	lw	s0,40(sp)
    22fc:	5492                	lw	s1,36(sp)
    22fe:	5902                	lw	s2,32(sp)
    2300:	49f2                	lw	s3,28(sp)
    2302:	4a62                	lw	s4,24(sp)
    2304:	4ad2                	lw	s5,20(sp)
    2306:	4b42                	lw	s6,16(sp)
    2308:	4bb2                	lw	s7,12(sp)
    230a:	4c22                	lw	s8,8(sp)
    230c:	4c92                	lw	s9,4(sp)
    230e:	4d02                	lw	s10,0(sp)
    2310:	4501                	li	a0,0
    2312:	6145                	addi	sp,sp,48
    2314:	8082                	ret
    2316:	8556                	mv	a0,s5
    2318:	054020ef          	jal	ra,436c <rt_kprintf>
    231c:	4c58                	lw	a4,28(s0)
    231e:	02300793          	li	a5,35
    2322:	00074683          	lbu	a3,0(a4)
    2326:	f8f687e3          	beq	a3,a5,22b4 <list_thread+0xdc>
    232a:	87ba                	mv	a5,a4
    232c:	bf61                	j	22c4 <list_thread+0xec>
    232e:	854e                	mv	a0,s3
    2330:	03c020ef          	jal	ra,436c <rt_kprintf>
    2334:	bf8d                	j	22a6 <list_thread+0xce>
    2336:	8552                	mv	a0,s4
    2338:	034020ef          	jal	ra,436c <rt_kprintf>
    233c:	b7ad                	j	22a6 <list_thread+0xce>
    233e:	856a                	mv	a0,s10
    2340:	02c020ef          	jal	ra,436c <rt_kprintf>
    2344:	b78d                	j	22a6 <list_thread+0xce>

00002346 <list_sem>:
    2346:	1101                	addi	sp,sp,-32
    2348:	4509                	li	a0,2
    234a:	ce06                	sw	ra,28(sp)
    234c:	cc22                	sw	s0,24(sp)
    234e:	ca26                	sw	s1,20(sp)
    2350:	c84a                	sw	s2,16(sp)
    2352:	c64e                	sw	s3,12(sp)
    2354:	c452                	sw	s4,8(sp)
    2356:	c256                	sw	s5,4(sp)
    2358:	c05a                	sw	s6,0(sp)
    235a:	4d8020ef          	jal	ra,4832 <rt_object_get_information>
    235e:	00450913          	addi	s2,a0,4
    2362:	85ca                	mv	a1,s2
    2364:	89aa                	mv	s3,a0
    2366:	00005517          	auipc	a0,0x5
    236a:	c4e50513          	addi	a0,a0,-946 # 6fb4 <__fsym_pinMode_name+0x25c>
    236e:	3539                	jal	217c <object_name_maxlen>
    2370:	84aa                	mv	s1,a0
    2372:	85aa                	mv	a1,a0
    2374:	00005617          	auipc	a2,0x5
    2378:	c4060613          	addi	a2,a2,-960 # 6fb4 <__fsym_pinMode_name+0x25c>
    237c:	00005517          	auipc	a0,0x5
    2380:	c4450513          	addi	a0,a0,-956 # 6fc0 <__fsym_pinMode_name+0x268>
    2384:	7e9010ef          	jal	ra,436c <rt_kprintf>
    2388:	fff48413          	addi	s0,s1,-1
    238c:	00005a97          	auipc	s5,0x5
    2390:	d14a8a93          	addi	s5,s5,-748 # 70a0 <__fsym_pinMode_name+0x348>
    2394:	5a7d                	li	s4,-1
    2396:	c499                	beqz	s1,23a4 <list_sem+0x5e>
    2398:	147d                	addi	s0,s0,-1
    239a:	8556                	mv	a0,s5
    239c:	7d1010ef          	jal	ra,436c <rt_kprintf>
    23a0:	ff441ce3          	bne	s0,s4,2398 <list_sem+0x52>
    23a4:	00005517          	auipc	a0,0x5
    23a8:	c3850513          	addi	a0,a0,-968 # 6fdc <__fsym_pinMode_name+0x284>
    23ac:	7c1010ef          	jal	ra,436c <rt_kprintf>
    23b0:	0049a403          	lw	s0,4(s3)
    23b4:	00005b17          	auipc	s6,0x5
    23b8:	c50b0b13          	addi	s6,s6,-944 # 7004 <__fsym_pinMode_name+0x2ac>
    23bc:	00005a97          	auipc	s5,0x5
    23c0:	c38a8a93          	addi	s5,s5,-968 # 6ff4 <__fsym_pinMode_name+0x29c>
    23c4:	00004a17          	auipc	s4,0x4
    23c8:	194a0a13          	addi	s4,s4,404 # 6558 <_read+0x90>
    23cc:	02890d63          	beq	s2,s0,2406 <list_sem+0xc0>
    23d0:	4410                	lw	a2,8(s0)
    23d2:	00840993          	addi	s3,s0,8
    23d6:	ff440693          	addi	a3,s0,-12
    23da:	01045703          	lhu	a4,16(s0)
    23de:	4781                	li	a5,0
    23e0:	02c98e63          	beq	s3,a2,241c <list_sem+0xd6>
    23e4:	4210                	lw	a2,0(a2)
    23e6:	0785                	addi	a5,a5,1
    23e8:	fec99ee3          	bne	s3,a2,23e4 <list_sem+0x9e>
    23ec:	4621                	li	a2,8
    23ee:	85a6                	mv	a1,s1
    23f0:	8556                	mv	a0,s5
    23f2:	77b010ef          	jal	ra,436c <rt_kprintf>
    23f6:	854e                	mv	a0,s3
    23f8:	3b15                	jal	212c <show_wait_queue>
    23fa:	8552                	mv	a0,s4
    23fc:	771010ef          	jal	ra,436c <rt_kprintf>
    2400:	4000                	lw	s0,0(s0)
    2402:	fc8917e3          	bne	s2,s0,23d0 <list_sem+0x8a>
    2406:	40f2                	lw	ra,28(sp)
    2408:	4462                	lw	s0,24(sp)
    240a:	44d2                	lw	s1,20(sp)
    240c:	4942                	lw	s2,16(sp)
    240e:	49b2                	lw	s3,12(sp)
    2410:	4a22                	lw	s4,8(sp)
    2412:	4a92                	lw	s5,4(sp)
    2414:	4b02                	lw	s6,0(sp)
    2416:	4501                	li	a0,0
    2418:	6105                	addi	sp,sp,32
    241a:	8082                	ret
    241c:	4621                	li	a2,8
    241e:	85a6                	mv	a1,s1
    2420:	855a                	mv	a0,s6
    2422:	74b010ef          	jal	ra,436c <rt_kprintf>
    2426:	bfe9                	j	2400 <list_sem+0xba>

00002428 <list_event>:
    2428:	1101                	addi	sp,sp,-32
    242a:	4511                	li	a0,4
    242c:	ce06                	sw	ra,28(sp)
    242e:	cc22                	sw	s0,24(sp)
    2430:	ca26                	sw	s1,20(sp)
    2432:	c84a                	sw	s2,16(sp)
    2434:	c64e                	sw	s3,12(sp)
    2436:	c452                	sw	s4,8(sp)
    2438:	c256                	sw	s5,4(sp)
    243a:	c05a                	sw	s6,0(sp)
    243c:	3f6020ef          	jal	ra,4832 <rt_object_get_information>
    2440:	00450913          	addi	s2,a0,4
    2444:	85ca                	mv	a1,s2
    2446:	89aa                	mv	s3,a0
    2448:	00005517          	auipc	a0,0x5
    244c:	9b050513          	addi	a0,a0,-1616 # 6df8 <__fsym_pinMode_name+0xa0>
    2450:	3335                	jal	217c <object_name_maxlen>
    2452:	84aa                	mv	s1,a0
    2454:	85aa                	mv	a1,a0
    2456:	00005617          	auipc	a2,0x5
    245a:	9a260613          	addi	a2,a2,-1630 # 6df8 <__fsym_pinMode_name+0xa0>
    245e:	00005517          	auipc	a0,0x5
    2462:	9a250513          	addi	a0,a0,-1630 # 6e00 <__fsym_pinMode_name+0xa8>
    2466:	707010ef          	jal	ra,436c <rt_kprintf>
    246a:	fff48413          	addi	s0,s1,-1
    246e:	00005a97          	auipc	s5,0x5
    2472:	c32a8a93          	addi	s5,s5,-974 # 70a0 <__fsym_pinMode_name+0x348>
    2476:	5a7d                	li	s4,-1
    2478:	c499                	beqz	s1,2486 <list_event+0x5e>
    247a:	147d                	addi	s0,s0,-1
    247c:	8556                	mv	a0,s5
    247e:	6ef010ef          	jal	ra,436c <rt_kprintf>
    2482:	ff441ce3          	bne	s0,s4,247a <list_event+0x52>
    2486:	00005517          	auipc	a0,0x5
    248a:	99e50513          	addi	a0,a0,-1634 # 6e24 <__fsym_pinMode_name+0xcc>
    248e:	6df010ef          	jal	ra,436c <rt_kprintf>
    2492:	0049a403          	lw	s0,4(s3)
    2496:	00005b17          	auipc	s6,0x5
    249a:	9c6b0b13          	addi	s6,s6,-1594 # 6e5c <__fsym_pinMode_name+0x104>
    249e:	00005a97          	auipc	s5,0x5
    24a2:	9a6a8a93          	addi	s5,s5,-1626 # 6e44 <__fsym_pinMode_name+0xec>
    24a6:	00004a17          	auipc	s4,0x4
    24aa:	0b2a0a13          	addi	s4,s4,178 # 6558 <_read+0x90>
    24ae:	02890c63          	beq	s2,s0,24e6 <list_event+0xbe>
    24b2:	4410                	lw	a2,8(s0)
    24b4:	00840993          	addi	s3,s0,8
    24b8:	ff440693          	addi	a3,s0,-12
    24bc:	4818                	lw	a4,16(s0)
    24be:	02c98f63          	beq	s3,a2,24fc <list_event+0xd4>
    24c2:	4781                	li	a5,0
    24c4:	4210                	lw	a2,0(a2)
    24c6:	0785                	addi	a5,a5,1
    24c8:	fec99ee3          	bne	s3,a2,24c4 <list_event+0x9c>
    24cc:	4621                	li	a2,8
    24ce:	85a6                	mv	a1,s1
    24d0:	8556                	mv	a0,s5
    24d2:	69b010ef          	jal	ra,436c <rt_kprintf>
    24d6:	854e                	mv	a0,s3
    24d8:	3991                	jal	212c <show_wait_queue>
    24da:	8552                	mv	a0,s4
    24dc:	691010ef          	jal	ra,436c <rt_kprintf>
    24e0:	4000                	lw	s0,0(s0)
    24e2:	fc8918e3          	bne	s2,s0,24b2 <list_event+0x8a>
    24e6:	40f2                	lw	ra,28(sp)
    24e8:	4462                	lw	s0,24(sp)
    24ea:	44d2                	lw	s1,20(sp)
    24ec:	4942                	lw	s2,16(sp)
    24ee:	49b2                	lw	s3,12(sp)
    24f0:	4a22                	lw	s4,8(sp)
    24f2:	4a92                	lw	s5,4(sp)
    24f4:	4b02                	lw	s6,0(sp)
    24f6:	4501                	li	a0,0
    24f8:	6105                	addi	sp,sp,32
    24fa:	8082                	ret
    24fc:	4621                	li	a2,8
    24fe:	85a6                	mv	a1,s1
    2500:	855a                	mv	a0,s6
    2502:	66b010ef          	jal	ra,436c <rt_kprintf>
    2506:	bfe9                	j	24e0 <list_event+0xb8>

00002508 <list_mutex>:
    2508:	1101                	addi	sp,sp,-32
    250a:	450d                	li	a0,3
    250c:	ce06                	sw	ra,28(sp)
    250e:	ca26                	sw	s1,20(sp)
    2510:	c84a                	sw	s2,16(sp)
    2512:	c64e                	sw	s3,12(sp)
    2514:	cc22                	sw	s0,24(sp)
    2516:	c452                	sw	s4,8(sp)
    2518:	c256                	sw	s5,4(sp)
    251a:	318020ef          	jal	ra,4832 <rt_object_get_information>
    251e:	00450913          	addi	s2,a0,4
    2522:	85ca                	mv	a1,s2
    2524:	89aa                	mv	s3,a0
    2526:	00005517          	auipc	a0,0x5
    252a:	a2a50513          	addi	a0,a0,-1494 # 6f50 <__fsym_pinMode_name+0x1f8>
    252e:	31b9                	jal	217c <object_name_maxlen>
    2530:	84aa                	mv	s1,a0
    2532:	85aa                	mv	a1,a0
    2534:	00005617          	auipc	a2,0x5
    2538:	a1c60613          	addi	a2,a2,-1508 # 6f50 <__fsym_pinMode_name+0x1f8>
    253c:	00005517          	auipc	a0,0x5
    2540:	a1c50513          	addi	a0,a0,-1508 # 6f58 <__fsym_pinMode_name+0x200>
    2544:	629010ef          	jal	ra,436c <rt_kprintf>
    2548:	cc91                	beqz	s1,2564 <list_mutex+0x5c>
    254a:	fff48413          	addi	s0,s1,-1
    254e:	00005a97          	auipc	s5,0x5
    2552:	b52a8a93          	addi	s5,s5,-1198 # 70a0 <__fsym_pinMode_name+0x348>
    2556:	5a7d                	li	s4,-1
    2558:	147d                	addi	s0,s0,-1
    255a:	8556                	mv	a0,s5
    255c:	611010ef          	jal	ra,436c <rt_kprintf>
    2560:	ff441ce3          	bne	s0,s4,2558 <list_mutex+0x50>
    2564:	00005517          	auipc	a0,0x5
    2568:	a1850513          	addi	a0,a0,-1512 # 6f7c <__fsym_pinMode_name+0x224>
    256c:	601010ef          	jal	ra,436c <rt_kprintf>
    2570:	0049a403          	lw	s0,4(s3)
    2574:	02890e63          	beq	s2,s0,25b0 <list_mutex+0xa8>
    2578:	00005997          	auipc	s3,0x5
    257c:	a2498993          	addi	s3,s3,-1500 # 6f9c <__fsym_pinMode_name+0x244>
    2580:	4418                	lw	a4,8(s0)
    2582:	00840613          	addi	a2,s0,8
    2586:	ff440693          	addi	a3,s0,-12
    258a:	485c                	lw	a5,20(s0)
    258c:	01344803          	lbu	a6,19(s0)
    2590:	4881                	li	a7,0
    2592:	00e60663          	beq	a2,a4,259e <list_mutex+0x96>
    2596:	4318                	lw	a4,0(a4)
    2598:	0885                	addi	a7,a7,1
    259a:	fee61ee3          	bne	a2,a4,2596 <list_mutex+0x8e>
    259e:	4721                	li	a4,8
    25a0:	4621                	li	a2,8
    25a2:	85a6                	mv	a1,s1
    25a4:	854e                	mv	a0,s3
    25a6:	5c7010ef          	jal	ra,436c <rt_kprintf>
    25aa:	4000                	lw	s0,0(s0)
    25ac:	fc891ae3          	bne	s2,s0,2580 <list_mutex+0x78>
    25b0:	40f2                	lw	ra,28(sp)
    25b2:	4462                	lw	s0,24(sp)
    25b4:	44d2                	lw	s1,20(sp)
    25b6:	4942                	lw	s2,16(sp)
    25b8:	49b2                	lw	s3,12(sp)
    25ba:	4a22                	lw	s4,8(sp)
    25bc:	4a92                	lw	s5,4(sp)
    25be:	4501                	li	a0,0
    25c0:	6105                	addi	sp,sp,32
    25c2:	8082                	ret

000025c4 <list_mailbox>:
    25c4:	1101                	addi	sp,sp,-32
    25c6:	4515                	li	a0,5
    25c8:	ce06                	sw	ra,28(sp)
    25ca:	cc22                	sw	s0,24(sp)
    25cc:	ca26                	sw	s1,20(sp)
    25ce:	c84a                	sw	s2,16(sp)
    25d0:	c64e                	sw	s3,12(sp)
    25d2:	c452                	sw	s4,8(sp)
    25d4:	c256                	sw	s5,4(sp)
    25d6:	c05a                	sw	s6,0(sp)
    25d8:	25a020ef          	jal	ra,4832 <rt_object_get_information>
    25dc:	00450913          	addi	s2,a0,4
    25e0:	85ca                	mv	a1,s2
    25e2:	89aa                	mv	s3,a0
    25e4:	00005517          	auipc	a0,0x5
    25e8:	88c50513          	addi	a0,a0,-1908 # 6e70 <__fsym_pinMode_name+0x118>
    25ec:	3e41                	jal	217c <object_name_maxlen>
    25ee:	84aa                	mv	s1,a0
    25f0:	85aa                	mv	a1,a0
    25f2:	00005617          	auipc	a2,0x5
    25f6:	87e60613          	addi	a2,a2,-1922 # 6e70 <__fsym_pinMode_name+0x118>
    25fa:	00005517          	auipc	a0,0x5
    25fe:	87e50513          	addi	a0,a0,-1922 # 6e78 <__fsym_pinMode_name+0x120>
    2602:	56b010ef          	jal	ra,436c <rt_kprintf>
    2606:	fff48413          	addi	s0,s1,-1
    260a:	00005a97          	auipc	s5,0x5
    260e:	a96a8a93          	addi	s5,s5,-1386 # 70a0 <__fsym_pinMode_name+0x348>
    2612:	5a7d                	li	s4,-1
    2614:	c499                	beqz	s1,2622 <list_mailbox+0x5e>
    2616:	147d                	addi	s0,s0,-1
    2618:	8556                	mv	a0,s5
    261a:	553010ef          	jal	ra,436c <rt_kprintf>
    261e:	ff441ce3          	bne	s0,s4,2616 <list_mailbox+0x52>
    2622:	00005517          	auipc	a0,0x5
    2626:	87a50513          	addi	a0,a0,-1926 # 6e9c <__fsym_pinMode_name+0x144>
    262a:	543010ef          	jal	ra,436c <rt_kprintf>
    262e:	0049a403          	lw	s0,4(s3)
    2632:	00005b17          	auipc	s6,0x5
    2636:	89eb0b13          	addi	s6,s6,-1890 # 6ed0 <__fsym_pinMode_name+0x178>
    263a:	00005a97          	auipc	s5,0x5
    263e:	87ea8a93          	addi	s5,s5,-1922 # 6eb8 <__fsym_pinMode_name+0x160>
    2642:	00004a17          	auipc	s4,0x4
    2646:	f16a0a13          	addi	s4,s4,-234 # 6558 <_read+0x90>
    264a:	04890063          	beq	s2,s0,268a <list_mailbox+0xc6>
    264e:	4410                	lw	a2,8(s0)
    2650:	00840993          	addi	s3,s0,8
    2654:	ff440693          	addi	a3,s0,-12
    2658:	01645703          	lhu	a4,22(s0)
    265c:	01445783          	lhu	a5,20(s0)
    2660:	4801                	li	a6,0
    2662:	02c98f63          	beq	s3,a2,26a0 <list_mailbox+0xdc>
    2666:	4210                	lw	a2,0(a2)
    2668:	0805                	addi	a6,a6,1
    266a:	fec99ee3          	bne	s3,a2,2666 <list_mailbox+0xa2>
    266e:	4621                	li	a2,8
    2670:	85a6                	mv	a1,s1
    2672:	8556                	mv	a0,s5
    2674:	4f9010ef          	jal	ra,436c <rt_kprintf>
    2678:	854e                	mv	a0,s3
    267a:	ab3ff0ef          	jal	ra,212c <show_wait_queue>
    267e:	8552                	mv	a0,s4
    2680:	4ed010ef          	jal	ra,436c <rt_kprintf>
    2684:	4000                	lw	s0,0(s0)
    2686:	fc8914e3          	bne	s2,s0,264e <list_mailbox+0x8a>
    268a:	40f2                	lw	ra,28(sp)
    268c:	4462                	lw	s0,24(sp)
    268e:	44d2                	lw	s1,20(sp)
    2690:	4942                	lw	s2,16(sp)
    2692:	49b2                	lw	s3,12(sp)
    2694:	4a22                	lw	s4,8(sp)
    2696:	4a92                	lw	s5,4(sp)
    2698:	4b02                	lw	s6,0(sp)
    269a:	4501                	li	a0,0
    269c:	6105                	addi	sp,sp,32
    269e:	8082                	ret
    26a0:	4621                	li	a2,8
    26a2:	85a6                	mv	a1,s1
    26a4:	855a                	mv	a0,s6
    26a6:	4c7010ef          	jal	ra,436c <rt_kprintf>
    26aa:	bfe9                	j	2684 <list_mailbox+0xc0>

000026ac <list_msgqueue>:
    26ac:	1101                	addi	sp,sp,-32
    26ae:	4519                	li	a0,6
    26b0:	ce06                	sw	ra,28(sp)
    26b2:	cc22                	sw	s0,24(sp)
    26b4:	ca26                	sw	s1,20(sp)
    26b6:	c84a                	sw	s2,16(sp)
    26b8:	c64e                	sw	s3,12(sp)
    26ba:	c452                	sw	s4,8(sp)
    26bc:	c256                	sw	s5,4(sp)
    26be:	c05a                	sw	s6,0(sp)
    26c0:	172020ef          	jal	ra,4832 <rt_object_get_information>
    26c4:	00450913          	addi	s2,a0,4
    26c8:	85ca                	mv	a1,s2
    26ca:	89aa                	mv	s3,a0
    26cc:	00005517          	auipc	a0,0x5
    26d0:	81c50513          	addi	a0,a0,-2020 # 6ee8 <__fsym_pinMode_name+0x190>
    26d4:	aa9ff0ef          	jal	ra,217c <object_name_maxlen>
    26d8:	84aa                	mv	s1,a0
    26da:	85aa                	mv	a1,a0
    26dc:	00005617          	auipc	a2,0x5
    26e0:	80c60613          	addi	a2,a2,-2036 # 6ee8 <__fsym_pinMode_name+0x190>
    26e4:	00005517          	auipc	a0,0x5
    26e8:	81050513          	addi	a0,a0,-2032 # 6ef4 <__fsym_pinMode_name+0x19c>
    26ec:	481010ef          	jal	ra,436c <rt_kprintf>
    26f0:	fff48413          	addi	s0,s1,-1
    26f4:	00005a97          	auipc	s5,0x5
    26f8:	9aca8a93          	addi	s5,s5,-1620 # 70a0 <__fsym_pinMode_name+0x348>
    26fc:	5a7d                	li	s4,-1
    26fe:	c499                	beqz	s1,270c <list_msgqueue+0x60>
    2700:	147d                	addi	s0,s0,-1
    2702:	8556                	mv	a0,s5
    2704:	469010ef          	jal	ra,436c <rt_kprintf>
    2708:	ff441ce3          	bne	s0,s4,2700 <list_msgqueue+0x54>
    270c:	00005517          	auipc	a0,0x5
    2710:	80450513          	addi	a0,a0,-2044 # 6f10 <__fsym_pinMode_name+0x1b8>
    2714:	459010ef          	jal	ra,436c <rt_kprintf>
    2718:	0049a403          	lw	s0,4(s3)
    271c:	00005b17          	auipc	s6,0x5
    2720:	820b0b13          	addi	s6,s6,-2016 # 6f3c <__fsym_pinMode_name+0x1e4>
    2724:	00005a97          	auipc	s5,0x5
    2728:	804a8a93          	addi	s5,s5,-2044 # 6f28 <__fsym_pinMode_name+0x1d0>
    272c:	00004a17          	auipc	s4,0x4
    2730:	e2ca0a13          	addi	s4,s4,-468 # 6558 <_read+0x90>
    2734:	02890e63          	beq	s2,s0,2770 <list_msgqueue+0xc4>
    2738:	4410                	lw	a2,8(s0)
    273a:	00840993          	addi	s3,s0,8
    273e:	ff440693          	addi	a3,s0,-12
    2742:	01845703          	lhu	a4,24(s0)
    2746:	4781                	li	a5,0
    2748:	02c98f63          	beq	s3,a2,2786 <list_msgqueue+0xda>
    274c:	4210                	lw	a2,0(a2)
    274e:	0785                	addi	a5,a5,1
    2750:	fec99ee3          	bne	s3,a2,274c <list_msgqueue+0xa0>
    2754:	4621                	li	a2,8
    2756:	85a6                	mv	a1,s1
    2758:	8556                	mv	a0,s5
    275a:	413010ef          	jal	ra,436c <rt_kprintf>
    275e:	854e                	mv	a0,s3
    2760:	9cdff0ef          	jal	ra,212c <show_wait_queue>
    2764:	8552                	mv	a0,s4
    2766:	407010ef          	jal	ra,436c <rt_kprintf>
    276a:	4000                	lw	s0,0(s0)
    276c:	fc8916e3          	bne	s2,s0,2738 <list_msgqueue+0x8c>
    2770:	40f2                	lw	ra,28(sp)
    2772:	4462                	lw	s0,24(sp)
    2774:	44d2                	lw	s1,20(sp)
    2776:	4942                	lw	s2,16(sp)
    2778:	49b2                	lw	s3,12(sp)
    277a:	4a22                	lw	s4,8(sp)
    277c:	4a92                	lw	s5,4(sp)
    277e:	4b02                	lw	s6,0(sp)
    2780:	4501                	li	a0,0
    2782:	6105                	addi	sp,sp,32
    2784:	8082                	ret
    2786:	4621                	li	a2,8
    2788:	85a6                	mv	a1,s1
    278a:	855a                	mv	a0,s6
    278c:	3e1010ef          	jal	ra,436c <rt_kprintf>
    2790:	bfe9                	j	276a <list_msgqueue+0xbe>

00002792 <list_device>:
    2792:	7159                	addi	sp,sp,-112
    2794:	4525                	li	a0,9
    2796:	d0ca                	sw	s2,96(sp)
    2798:	cece                	sw	s3,92(sp)
    279a:	d686                	sw	ra,108(sp)
    279c:	d4a2                	sw	s0,104(sp)
    279e:	d2a6                	sw	s1,100(sp)
    27a0:	ccd2                	sw	s4,88(sp)
    27a2:	cad6                	sw	s5,84(sp)
    27a4:	08e020ef          	jal	ra,4832 <rt_object_get_information>
    27a8:	89aa                	mv	s3,a0
    27aa:	00450913          	addi	s2,a0,4
    27ae:	00004797          	auipc	a5,0x4
    27b2:	d2a78793          	addi	a5,a5,-726 # 64d8 <_read+0x10>
    27b6:	870a                	mv	a4,sp
    27b8:	00004697          	auipc	a3,0x4
    27bc:	d7068693          	addi	a3,a3,-656 # 6528 <_read+0x60>
    27c0:	0007a803          	lw	a6,0(a5)
    27c4:	43c8                	lw	a0,4(a5)
    27c6:	478c                	lw	a1,8(a5)
    27c8:	47d0                	lw	a2,12(a5)
    27ca:	01072023          	sw	a6,0(a4)
    27ce:	c348                	sw	a0,4(a4)
    27d0:	c70c                	sw	a1,8(a4)
    27d2:	c750                	sw	a2,12(a4)
    27d4:	07c1                	addi	a5,a5,16
    27d6:	0741                	addi	a4,a4,16
    27d8:	fed794e3          	bne	a5,a3,27c0 <list_device+0x2e>
    27dc:	85ca                	mv	a1,s2
    27de:	00004517          	auipc	a0,0x4
    27e2:	5b250513          	addi	a0,a0,1458 # 6d90 <__fsym_pinMode_name+0x38>
    27e6:	997ff0ef          	jal	ra,217c <object_name_maxlen>
    27ea:	84aa                	mv	s1,a0
    27ec:	85aa                	mv	a1,a0
    27ee:	00004617          	auipc	a2,0x4
    27f2:	5a260613          	addi	a2,a2,1442 # 6d90 <__fsym_pinMode_name+0x38>
    27f6:	00004517          	auipc	a0,0x4
    27fa:	5a250513          	addi	a0,a0,1442 # 6d98 <__fsym_pinMode_name+0x40>
    27fe:	36f010ef          	jal	ra,436c <rt_kprintf>
    2802:	fff48413          	addi	s0,s1,-1
    2806:	cc81                	beqz	s1,281e <list_device+0x8c>
    2808:	00005a97          	auipc	s5,0x5
    280c:	898a8a93          	addi	s5,s5,-1896 # 70a0 <__fsym_pinMode_name+0x348>
    2810:	5a7d                	li	s4,-1
    2812:	147d                	addi	s0,s0,-1
    2814:	8556                	mv	a0,s5
    2816:	357010ef          	jal	ra,436c <rt_kprintf>
    281a:	ff441ce3          	bne	s0,s4,2812 <list_device+0x80>
    281e:	00004517          	auipc	a0,0x4
    2822:	5a250513          	addi	a0,a0,1442 # 6dc0 <__fsym_pinMode_name+0x68>
    2826:	347010ef          	jal	ra,436c <rt_kprintf>
    282a:	0049a403          	lw	s0,4(s3)
    282e:	04890263          	beq	s2,s0,2872 <list_device+0xe0>
    2832:	4ad1                	li	s5,20
    2834:	00005a17          	auipc	s4,0x5
    2838:	ca0a0a13          	addi	s4,s4,-864 # 74d4 <__fsym_reboot_name+0x10>
    283c:	00004997          	auipc	s3,0x4
    2840:	5a898993          	addi	s3,s3,1448 # 6de4 <__fsym_pinMode_name+0x8c>
    2844:	00842803          	lw	a6,8(s0)
    2848:	0898                	addi	a4,sp,80
    284a:	4621                	li	a2,8
    284c:	00281793          	slli	a5,a6,0x2
    2850:	97ba                	add	a5,a5,a4
    2852:	85a6                	mv	a1,s1
    2854:	854e                	mv	a0,s3
    2856:	ff440693          	addi	a3,s0,-12
    285a:	8752                	mv	a4,s4
    285c:	010ae463          	bltu	s5,a6,2864 <list_device+0xd2>
    2860:	fb07a703          	lw	a4,-80(a5)
    2864:	01044783          	lbu	a5,16(s0)
    2868:	305010ef          	jal	ra,436c <rt_kprintf>
    286c:	4000                	lw	s0,0(s0)
    286e:	fc891be3          	bne	s2,s0,2844 <list_device+0xb2>
    2872:	50b6                	lw	ra,108(sp)
    2874:	5426                	lw	s0,104(sp)
    2876:	5496                	lw	s1,100(sp)
    2878:	5906                	lw	s2,96(sp)
    287a:	49f6                	lw	s3,92(sp)
    287c:	4a66                	lw	s4,88(sp)
    287e:	4ad6                	lw	s5,84(sp)
    2880:	4501                	li	a0,0
    2882:	6165                	addi	sp,sp,112
    2884:	8082                	ret

00002886 <list_timer>:
    2886:	1101                	addi	sp,sp,-32
    2888:	4529                	li	a0,10
    288a:	ce06                	sw	ra,28(sp)
    288c:	ca26                	sw	s1,20(sp)
    288e:	c84a                	sw	s2,16(sp)
    2890:	c64e                	sw	s3,12(sp)
    2892:	cc22                	sw	s0,24(sp)
    2894:	c452                	sw	s4,8(sp)
    2896:	c256                	sw	s5,4(sp)
    2898:	79b010ef          	jal	ra,4832 <rt_object_get_information>
    289c:	00450913          	addi	s2,a0,4
    28a0:	85ca                	mv	a1,s2
    28a2:	89aa                	mv	s3,a0
    28a4:	00005517          	auipc	a0,0x5
    28a8:	86450513          	addi	a0,a0,-1948 # 7108 <__fsym_pinMode_name+0x3b0>
    28ac:	8d1ff0ef          	jal	ra,217c <object_name_maxlen>
    28b0:	84aa                	mv	s1,a0
    28b2:	85aa                	mv	a1,a0
    28b4:	00005617          	auipc	a2,0x5
    28b8:	85460613          	addi	a2,a2,-1964 # 7108 <__fsym_pinMode_name+0x3b0>
    28bc:	00005517          	auipc	a0,0x5
    28c0:	85450513          	addi	a0,a0,-1964 # 7110 <__fsym_pinMode_name+0x3b8>
    28c4:	2a9010ef          	jal	ra,436c <rt_kprintf>
    28c8:	cc91                	beqz	s1,28e4 <list_timer+0x5e>
    28ca:	fff48413          	addi	s0,s1,-1
    28ce:	00004a97          	auipc	s5,0x4
    28d2:	7d2a8a93          	addi	s5,s5,2002 # 70a0 <__fsym_pinMode_name+0x348>
    28d6:	5a7d                	li	s4,-1
    28d8:	147d                	addi	s0,s0,-1
    28da:	8556                	mv	a0,s5
    28dc:	291010ef          	jal	ra,436c <rt_kprintf>
    28e0:	ff441ce3          	bne	s0,s4,28d8 <list_timer+0x52>
    28e4:	00005517          	auipc	a0,0x5
    28e8:	85450513          	addi	a0,a0,-1964 # 7138 <__fsym_pinMode_name+0x3e0>
    28ec:	281010ef          	jal	ra,436c <rt_kprintf>
    28f0:	0049a403          	lw	s0,4(s3)
    28f4:	04890263          	beq	s2,s0,2938 <list_timer+0xb2>
    28f8:	00005a97          	auipc	s5,0x5
    28fc:	864a8a93          	addi	s5,s5,-1948 # 715c <__fsym_pinMode_name+0x404>
    2900:	00005a17          	auipc	s4,0x5
    2904:	880a0a13          	addi	s4,s4,-1920 # 7180 <__fsym_pinMode_name+0x428>
    2908:	00005997          	auipc	s3,0x5
    290c:	86c98993          	addi	s3,s3,-1940 # 7174 <__fsym_pinMode_name+0x41c>
    2910:	4c5c                	lw	a5,28(s0)
    2912:	4c18                	lw	a4,24(s0)
    2914:	8556                	mv	a0,s5
    2916:	ff440693          	addi	a3,s0,-12
    291a:	4621                	li	a2,8
    291c:	85a6                	mv	a1,s1
    291e:	24f010ef          	jal	ra,436c <rt_kprintf>
    2922:	ffd44783          	lbu	a5,-3(s0)
    2926:	854e                	mv	a0,s3
    2928:	8b85                	andi	a5,a5,1
    292a:	e391                	bnez	a5,292e <list_timer+0xa8>
    292c:	8552                	mv	a0,s4
    292e:	23f010ef          	jal	ra,436c <rt_kprintf>
    2932:	4000                	lw	s0,0(s0)
    2934:	fc891ee3          	bne	s2,s0,2910 <list_timer+0x8a>
    2938:	3d7000ef          	jal	ra,350e <rt_tick_get>
    293c:	85aa                	mv	a1,a0
    293e:	00005517          	auipc	a0,0x5
    2942:	85250513          	addi	a0,a0,-1966 # 7190 <__fsym_pinMode_name+0x438>
    2946:	227010ef          	jal	ra,436c <rt_kprintf>
    294a:	40f2                	lw	ra,28(sp)
    294c:	4462                	lw	s0,24(sp)
    294e:	44d2                	lw	s1,20(sp)
    2950:	4942                	lw	s2,16(sp)
    2952:	49b2                	lw	s3,12(sp)
    2954:	4a22                	lw	s4,8(sp)
    2956:	4a92                	lw	s5,4(sp)
    2958:	4501                	li	a0,0
    295a:	6105                	addi	sp,sp,32
    295c:	8082                	ret

0000295e <list>:
    295e:	1101                	addi	sp,sp,-32
    2960:	00004517          	auipc	a0,0x4
    2964:	40850513          	addi	a0,a0,1032 # 6d68 <__fsym_pinMode_name+0x10>
    2968:	cc22                	sw	s0,24(sp)
    296a:	c84a                	sw	s2,16(sp)
    296c:	ce06                	sw	ra,28(sp)
    296e:	ca26                	sw	s1,20(sp)
    2970:	c64e                	sw	s3,12(sp)
    2972:	c452                	sw	s4,8(sp)
    2974:	1f9010ef          	jal	ra,436c <rt_kprintf>
    2978:	81c18793          	addi	a5,gp,-2020 # 200001dc <_syscall_table_begin>
    297c:	82018913          	addi	s2,gp,-2016 # 200001e0 <_syscall_table_end>
    2980:	4380                	lw	s0,0(a5)
    2982:	00092783          	lw	a5,0(s2)
    2986:	02f47b63          	bgeu	s0,a5,29bc <list+0x5e>
    298a:	00004997          	auipc	s3,0x4
    298e:	3f298993          	addi	s3,s3,1010 # 6d7c <__fsym_pinMode_name+0x24>
    2992:	00004a17          	auipc	s4,0x4
    2996:	3eea0a13          	addi	s4,s4,1006 # 6d80 <__fsym_pinMode_name+0x28>
    299a:	4004                	lw	s1,0(s0)
    299c:	85ce                	mv	a1,s3
    299e:	4609                	li	a2,2
    29a0:	8526                	mv	a0,s1
    29a2:	34b020ef          	jal	ra,54ec <strncmp>
    29a6:	85a6                	mv	a1,s1
    29a8:	c509                	beqz	a0,29b2 <list+0x54>
    29aa:	4050                	lw	a2,4(s0)
    29ac:	8552                	mv	a0,s4
    29ae:	1bf010ef          	jal	ra,436c <rt_kprintf>
    29b2:	00092783          	lw	a5,0(s2)
    29b6:	0431                	addi	s0,s0,12
    29b8:	fef461e3          	bltu	s0,a5,299a <list+0x3c>
    29bc:	40f2                	lw	ra,28(sp)
    29be:	4462                	lw	s0,24(sp)
    29c0:	44d2                	lw	s1,20(sp)
    29c2:	4942                	lw	s2,16(sp)
    29c4:	49b2                	lw	s3,12(sp)
    29c6:	4a22                	lw	s4,8(sp)
    29c8:	4501                	li	a0,0
    29ca:	6105                	addi	sp,sp,32
    29cc:	8082                	ret

000029ce <msh_help>:
    29ce:	1101                	addi	sp,sp,-32
    29d0:	00005517          	auipc	a0,0x5
    29d4:	c5c50513          	addi	a0,a0,-932 # 762c <__fsym_reboot_name+0x168>
    29d8:	cc22                	sw	s0,24(sp)
    29da:	c84a                	sw	s2,16(sp)
    29dc:	ce06                	sw	ra,28(sp)
    29de:	ca26                	sw	s1,20(sp)
    29e0:	c64e                	sw	s3,12(sp)
    29e2:	c452                	sw	s4,8(sp)
    29e4:	189010ef          	jal	ra,436c <rt_kprintf>
    29e8:	81c18793          	addi	a5,gp,-2020 # 200001dc <_syscall_table_begin>
    29ec:	82018913          	addi	s2,gp,-2016 # 200001e0 <_syscall_table_end>
    29f0:	4380                	lw	s0,0(a5)
    29f2:	00092783          	lw	a5,0(s2)
    29f6:	02f47c63          	bgeu	s0,a5,2a2e <msh_help+0x60>
    29fa:	00005997          	auipc	s3,0x5
    29fe:	c4e98993          	addi	s3,s3,-946 # 7648 <__fsym_reboot_name+0x184>
    2a02:	00005a17          	auipc	s4,0x5
    2a06:	c4ea0a13          	addi	s4,s4,-946 # 7650 <__fsym_reboot_name+0x18c>
    2a0a:	4004                	lw	s1,0(s0)
    2a0c:	85ce                	mv	a1,s3
    2a0e:	4619                	li	a2,6
    2a10:	8526                	mv	a0,s1
    2a12:	2db020ef          	jal	ra,54ec <strncmp>
    2a16:	00648593          	addi	a1,s1,6
    2a1a:	e509                	bnez	a0,2a24 <msh_help+0x56>
    2a1c:	4050                	lw	a2,4(s0)
    2a1e:	8552                	mv	a0,s4
    2a20:	14d010ef          	jal	ra,436c <rt_kprintf>
    2a24:	00092783          	lw	a5,0(s2)
    2a28:	0431                	addi	s0,s0,12
    2a2a:	fef460e3          	bltu	s0,a5,2a0a <msh_help+0x3c>
    2a2e:	00004517          	auipc	a0,0x4
    2a32:	b2a50513          	addi	a0,a0,-1238 # 6558 <_read+0x90>
    2a36:	137010ef          	jal	ra,436c <rt_kprintf>
    2a3a:	40f2                	lw	ra,28(sp)
    2a3c:	4462                	lw	s0,24(sp)
    2a3e:	44d2                	lw	s1,20(sp)
    2a40:	4942                	lw	s2,16(sp)
    2a42:	49b2                	lw	s3,12(sp)
    2a44:	4a22                	lw	s4,8(sp)
    2a46:	4501                	li	a0,0
    2a48:	6105                	addi	sp,sp,32
    2a4a:	8082                	ret

00002a4c <msh_is_used>:
    2a4c:	4505                	li	a0,1
    2a4e:	8082                	ret

00002a50 <msh_exec>:
    2a50:	711d                	addi	sp,sp,-96
    2a52:	caa6                	sw	s1,84(sp)
    2a54:	ce86                	sw	ra,92(sp)
    2a56:	cca2                	sw	s0,88(sp)
    2a58:	c8ca                	sw	s2,80(sp)
    2a5a:	c6ce                	sw	s3,76(sp)
    2a5c:	c4d2                	sw	s4,72(sp)
    2a5e:	c2d6                	sw	s5,68(sp)
    2a60:	c0da                	sw	s6,64(sp)
    2a62:	de5e                	sw	s7,60(sp)
    2a64:	dc62                	sw	s8,56(sp)
    2a66:	84aa                	mv	s1,a0
    2a68:	95aa                	add	a1,a1,a0
    2a6a:	02000793          	li	a5,32
    2a6e:	4725                	li	a4,9
    2a70:	00048403          	lb	s0,0(s1)
    2a74:	40958933          	sub	s2,a1,s1
    2a78:	00f40463          	beq	s0,a5,2a80 <msh_exec+0x30>
    2a7c:	00e41463          	bne	s0,a4,2a84 <msh_exec+0x34>
    2a80:	0485                	addi	s1,s1,1
    2a82:	b7fd                	j	2a70 <msh_exec+0x20>
    2a84:	4501                	li	a0,0
    2a86:	00091e63          	bnez	s2,2aa2 <msh_exec+0x52>
    2a8a:	40f6                	lw	ra,92(sp)
    2a8c:	4466                	lw	s0,88(sp)
    2a8e:	44d6                	lw	s1,84(sp)
    2a90:	4946                	lw	s2,80(sp)
    2a92:	49b6                	lw	s3,76(sp)
    2a94:	4a26                	lw	s4,72(sp)
    2a96:	4a96                	lw	s5,68(sp)
    2a98:	4b06                	lw	s6,64(sp)
    2a9a:	5bf2                	lw	s7,60(sp)
    2a9c:	5c62                	lw	s8,56(sp)
    2a9e:	6125                	addi	sp,sp,96
    2aa0:	8082                	ret
    2aa2:	4b01                	li	s6,0
    2aa4:	02000713          	li	a4,32
    2aa8:	46a5                	li	a3,9
    2aaa:	a031                	j	2ab6 <msh_exec+0x66>
    2aac:	00d78d63          	beq	a5,a3,2ac6 <msh_exec+0x76>
    2ab0:	01590b63          	beq	s2,s5,2ac6 <msh_exec+0x76>
    2ab4:	8b56                	mv	s6,s5
    2ab6:	001b0a93          	addi	s5,s6,1
    2aba:	015487b3          	add	a5,s1,s5
    2abe:	00078783          	lb	a5,0(a5)
    2ac2:	fee795e3          	bne	a5,a4,2aac <msh_exec+0x5c>
    2ac6:	81c18793          	addi	a5,gp,-2020 # 200001dc <_syscall_table_begin>
    2aca:	0007aa03          	lw	s4,0(a5)
    2ace:	82018793          	addi	a5,gp,-2016 # 200001e0 <_syscall_table_end>
    2ad2:	0007ab83          	lw	s7,0(a5)
    2ad6:	037a7c63          	bgeu	s4,s7,2b0e <msh_exec+0xbe>
    2ada:	00005c17          	auipc	s8,0x5
    2ade:	b6ec0c13          	addi	s8,s8,-1170 # 7648 <__fsym_reboot_name+0x184>
    2ae2:	000a2983          	lw	s3,0(s4)
    2ae6:	4619                	li	a2,6
    2ae8:	85e2                	mv	a1,s8
    2aea:	854e                	mv	a0,s3
    2aec:	201020ef          	jal	ra,54ec <strncmp>
    2af0:	8656                	mv	a2,s5
    2af2:	85a6                	mv	a1,s1
    2af4:	e911                	bnez	a0,2b08 <msh_exec+0xb8>
    2af6:	00698513          	addi	a0,s3,6
    2afa:	1f3020ef          	jal	ra,54ec <strncmp>
    2afe:	99da                	add	s3,s3,s6
    2b00:	e501                	bnez	a0,2b08 <msh_exec+0xb8>
    2b02:	00798783          	lb	a5,7(s3)
    2b06:	c79d                	beqz	a5,2b34 <msh_exec+0xe4>
    2b08:	0a31                	addi	s4,s4,12
    2b0a:	fd7a6ce3          	bltu	s4,s7,2ae2 <msh_exec+0x92>
    2b0e:	8726                	mv	a4,s1
    2b10:	c419                	beqz	s0,2b1e <msh_exec+0xce>
    2b12:	0705                	addi	a4,a4,1
    2b14:	00070783          	lb	a5,0(a4)
    2b18:	fdf7f793          	andi	a5,a5,-33
    2b1c:	fbfd                	bnez	a5,2b12 <msh_exec+0xc2>
    2b1e:	00005517          	auipc	a0,0x5
    2b22:	af650513          	addi	a0,a0,-1290 # 7614 <__fsym_reboot_name+0x150>
    2b26:	00070023          	sb	zero,0(a4)
    2b2a:	85a6                	mv	a1,s1
    2b2c:	041010ef          	jal	ra,436c <rt_kprintf>
    2b30:	557d                	li	a0,-1
    2b32:	bfa1                	j	2a8a <msh_exec+0x3a>
    2b34:	008a2983          	lw	s3,8(s4)
    2b38:	fc098be3          	beqz	s3,2b0e <msh_exec+0xbe>
    2b3c:	00810a13          	addi	s4,sp,8
    2b40:	c402                	sw	zero,8(sp)
    2b42:	c602                	sw	zero,12(sp)
    2b44:	c802                	sw	zero,16(sp)
    2b46:	ca02                	sw	zero,20(sp)
    2b48:	cc02                	sw	zero,24(sp)
    2b4a:	ce02                	sw	zero,28(sp)
    2b4c:	d002                	sw	zero,32(sp)
    2b4e:	d202                	sw	zero,36(sp)
    2b50:	d402                	sw	zero,40(sp)
    2b52:	d602                	sw	zero,44(sp)
    2b54:	8ed2                	mv	t4,s4
    2b56:	87a6                	mv	a5,s1
    2b58:	4701                	li	a4,0
    2b5a:	4501                	li	a0,0
    2b5c:	02000813          	li	a6,32
    2b60:	45a5                	li	a1,9
    2b62:	4fa9                	li	t6,10
    2b64:	02200e13          	li	t3,34
    2b68:	05c00f13          	li	t5,92
    2b6c:	01040463          	beq	s0,a6,2b74 <msh_exec+0x124>
    2b70:	00b41b63          	bne	s0,a1,2b86 <msh_exec+0x136>
    2b74:	05277963          	bgeu	a4,s2,2bc6 <msh_exec+0x176>
    2b78:	00078023          	sb	zero,0(a5)
    2b7c:	0785                	addi	a5,a5,1
    2b7e:	00078403          	lb	s0,0(a5)
    2b82:	0705                	addi	a4,a4,1
    2b84:	b7e5                	j	2b6c <msh_exec+0x11c>
    2b86:	05f50363          	beq	a0,t6,2bcc <msh_exec+0x17c>
    2b8a:	0f277663          	bgeu	a4,s2,2c76 <msh_exec+0x226>
    2b8e:	0505                	addi	a0,a0,1
    2b90:	07c40b63          	beq	s0,t3,2c06 <msh_exec+0x1b6>
    2b94:	40e908b3          	sub	a7,s2,a4
    2b98:	00fea023          	sw	a5,0(t4)
    2b9c:	98be                	add	a7,a7,a5
    2b9e:	86be                	mv	a3,a5
    2ba0:	a029                	j	2baa <msh_exec+0x15a>
    2ba2:	00b40c63          	beq	s0,a1,2bba <msh_exec+0x16a>
    2ba6:	04d88d63          	beq	a7,a3,2c00 <msh_exec+0x1b0>
    2baa:	0685                	addi	a3,a3,1
    2bac:	00068403          	lb	s0,0(a3)
    2bb0:	00e68633          	add	a2,a3,a4
    2bb4:	8e1d                	sub	a2,a2,a5
    2bb6:	ff0416e3          	bne	s0,a6,2ba2 <msh_exec+0x152>
    2bba:	05267363          	bgeu	a2,s2,2c00 <msh_exec+0x1b0>
    2bbe:	0e91                	addi	t4,t4,4
    2bc0:	87b6                	mv	a5,a3
    2bc2:	8732                	mv	a4,a2
    2bc4:	b765                	j	2b6c <msh_exec+0x11c>
    2bc6:	47a9                	li	a5,10
    2bc8:	0af51763          	bne	a0,a5,2c76 <msh_exec+0x226>
    2bcc:	00005517          	auipc	a0,0x5
    2bd0:	a2450513          	addi	a0,a0,-1500 # 75f0 <__fsym_reboot_name+0x12c>
    2bd4:	798010ef          	jal	ra,436c <rt_kprintf>
    2bd8:	1804                	addi	s1,sp,48
    2bda:	00005417          	auipc	s0,0x5
    2bde:	a3640413          	addi	s0,s0,-1482 # 7610 <__fsym_reboot_name+0x14c>
    2be2:	000a2583          	lw	a1,0(s4)
    2be6:	8522                	mv	a0,s0
    2be8:	0a11                	addi	s4,s4,4
    2bea:	782010ef          	jal	ra,436c <rt_kprintf>
    2bee:	ff449ae3          	bne	s1,s4,2be2 <msh_exec+0x192>
    2bf2:	00004517          	auipc	a0,0x4
    2bf6:	96650513          	addi	a0,a0,-1690 # 6558 <_read+0x90>
    2bfa:	772010ef          	jal	ra,436c <rt_kprintf>
    2bfe:	4529                	li	a0,10
    2c00:	002c                	addi	a1,sp,8
    2c02:	9982                	jalr	s3
    2c04:	b559                	j	2a8a <msh_exec+0x3a>
    2c06:	00178683          	lb	a3,1(a5)
    2c0a:	0785                	addi	a5,a5,1
    2c0c:	00fea023          	sw	a5,0(t4)
    2c10:	0705                	addi	a4,a4,1
    2c12:	07c68b63          	beq	a3,t3,2c88 <msh_exec+0x238>
    2c16:	ff2775e3          	bgeu	a4,s2,2c00 <msh_exec+0x1b0>
    2c1a:	00178303          	lb	t1,1(a5)
    2c1e:	00178893          	addi	a7,a5,1
    2c22:	00170613          	addi	a2,a4,1
    2c26:	03e68163          	beq	a3,t5,2c48 <msh_exec+0x1f8>
    2c2a:	869a                	mv	a3,t1
    2c2c:	03c68963          	beq	a3,t3,2c5e <msh_exec+0x20e>
    2c30:	8732                	mv	a4,a2
    2c32:	87c6                	mv	a5,a7
    2c34:	fd2676e3          	bgeu	a2,s2,2c00 <msh_exec+0x1b0>
    2c38:	00178303          	lb	t1,1(a5)
    2c3c:	00178893          	addi	a7,a5,1
    2c40:	00170613          	addi	a2,a4,1
    2c44:	ffe693e3          	bne	a3,t5,2c2a <msh_exec+0x1da>
    2c48:	869a                	mv	a3,t1
    2c4a:	ffc313e3          	bne	t1,t3,2c30 <msh_exec+0x1e0>
    2c4e:	00278683          	lb	a3,2(a5)
    2c52:	00278893          	addi	a7,a5,2
    2c56:	00270613          	addi	a2,a4,2
    2c5a:	fdc69be3          	bne	a3,t3,2c30 <msh_exec+0x1e0>
    2c5e:	fb2671e3          	bgeu	a2,s2,2c00 <msh_exec+0x1b0>
    2c62:	00088023          	sb	zero,0(a7)
    2c66:	0605                	addi	a2,a2,1
    2c68:	00188693          	addi	a3,a7,1
    2c6c:	f9267ae3          	bgeu	a2,s2,2c00 <msh_exec+0x1b0>
    2c70:	00188403          	lb	s0,1(a7)
    2c74:	b7a9                	j	2bbe <msh_exec+0x16e>
    2c76:	f549                	bnez	a0,2c00 <msh_exec+0x1b0>
    2c78:	00048403          	lb	s0,0(s1)
    2c7c:	02000793          	li	a5,32
    2c80:	8726                	mv	a4,s1
    2c82:	e8f416e3          	bne	s0,a5,2b0e <msh_exec+0xbe>
    2c86:	bd61                	j	2b1e <msh_exec+0xce>
    2c88:	863a                	mv	a2,a4
    2c8a:	88be                	mv	a7,a5
    2c8c:	bfc9                	j	2c5e <msh_exec+0x20e>

00002c8e <msh_auto_complete>:
    2c8e:	00050783          	lb	a5,0(a0)
    2c92:	10078763          	beqz	a5,2da0 <msh_auto_complete+0x112>
    2c96:	7179                	addi	sp,sp,-48
    2c98:	81c18793          	addi	a5,gp,-2020 # 200001dc <_syscall_table_begin>
    2c9c:	ce4e                	sw	s3,28(sp)
    2c9e:	82018993          	addi	s3,gp,-2016 # 200001e0 <_syscall_table_end>
    2ca2:	c462                	sw	s8,8(sp)
    2ca4:	0007ac03          	lw	s8,0(a5)
    2ca8:	0009a783          	lw	a5,0(s3)
    2cac:	d226                	sw	s1,36(sp)
    2cae:	cc52                	sw	s4,24(sp)
    2cb0:	ca56                	sw	s5,20(sp)
    2cb2:	c85a                	sw	s6,16(sp)
    2cb4:	c65e                	sw	s7,12(sp)
    2cb6:	d606                	sw	ra,44(sp)
    2cb8:	d422                	sw	s0,40(sp)
    2cba:	d04a                	sw	s2,32(sp)
    2cbc:	c266                	sw	s9,4(sp)
    2cbe:	84aa                	mv	s1,a0
    2cc0:	4a81                	li	s5,0
    2cc2:	4b01                	li	s6,0
    2cc4:	00005a17          	auipc	s4,0x5
    2cc8:	984a0a13          	addi	s4,s4,-1660 # 7648 <__fsym_reboot_name+0x184>
    2ccc:	00005b97          	auipc	s7,0x5
    2cd0:	98cb8b93          	addi	s7,s7,-1652 # 7658 <__fsym_reboot_name+0x194>
    2cd4:	00fc6863          	bltu	s8,a5,2ce4 <msh_auto_complete+0x56>
    2cd8:	a07d                	j	2d86 <msh_auto_complete+0xf8>
    2cda:	0009a783          	lw	a5,0(s3)
    2cde:	0c31                	addi	s8,s8,12
    2ce0:	08fc7063          	bgeu	s8,a5,2d60 <msh_auto_complete+0xd2>
    2ce4:	000c2c83          	lw	s9,0(s8)
    2ce8:	4619                	li	a2,6
    2cea:	85d2                	mv	a1,s4
    2cec:	8566                	mv	a0,s9
    2cee:	7fe020ef          	jal	ra,54ec <strncmp>
    2cf2:	f565                	bnez	a0,2cda <msh_auto_complete+0x4c>
    2cf4:	8526                	mv	a0,s1
    2cf6:	7e4020ef          	jal	ra,54da <strlen>
    2cfa:	006c8913          	addi	s2,s9,6
    2cfe:	862a                	mv	a2,a0
    2d00:	85ca                	mv	a1,s2
    2d02:	8526                	mv	a0,s1
    2d04:	7e8020ef          	jal	ra,54ec <strncmp>
    2d08:	842a                	mv	s0,a0
    2d0a:	f961                	bnez	a0,2cda <msh_auto_complete+0x4c>
    2d0c:	000b1763          	bnez	s6,2d1a <msh_auto_complete+0x8c>
    2d10:	854a                	mv	a0,s2
    2d12:	7c8020ef          	jal	ra,54da <strlen>
    2d16:	8b2a                	mv	s6,a0
    2d18:	8aca                	mv	s5,s2
    2d1a:	000a8783          	lb	a5,0(s5)
    2d1e:	c78d                	beqz	a5,2d48 <msh_auto_complete+0xba>
    2d20:	006c8703          	lb	a4,6(s9)
    2d24:	c315                	beqz	a4,2d48 <msh_auto_complete+0xba>
    2d26:	02e79163          	bne	a5,a4,2d48 <msh_auto_complete+0xba>
    2d2a:	874a                	mv	a4,s2
    2d2c:	87d6                	mv	a5,s5
    2d2e:	a031                	j	2d3a <msh_auto_complete+0xac>
    2d30:	00070603          	lb	a2,0(a4)
    2d34:	ca01                	beqz	a2,2d44 <msh_auto_complete+0xb6>
    2d36:	00c69763          	bne	a3,a2,2d44 <msh_auto_complete+0xb6>
    2d3a:	0785                	addi	a5,a5,1
    2d3c:	00078683          	lb	a3,0(a5)
    2d40:	0705                	addi	a4,a4,1
    2d42:	f6fd                	bnez	a3,2d30 <msh_auto_complete+0xa2>
    2d44:	41578433          	sub	s0,a5,s5
    2d48:	01645363          	bge	s0,s6,2d4e <msh_auto_complete+0xc0>
    2d4c:	8b22                	mv	s6,s0
    2d4e:	85ca                	mv	a1,s2
    2d50:	855e                	mv	a0,s7
    2d52:	61a010ef          	jal	ra,436c <rt_kprintf>
    2d56:	0009a783          	lw	a5,0(s3)
    2d5a:	0c31                	addi	s8,s8,12
    2d5c:	f8fc64e3          	bltu	s8,a5,2ce4 <msh_auto_complete+0x56>
    2d60:	020a8363          	beqz	s5,2d86 <msh_auto_complete+0xf8>
    2d64:	5422                	lw	s0,40(sp)
    2d66:	50b2                	lw	ra,44(sp)
    2d68:	5902                	lw	s2,32(sp)
    2d6a:	49f2                	lw	s3,28(sp)
    2d6c:	4a62                	lw	s4,24(sp)
    2d6e:	4bb2                	lw	s7,12(sp)
    2d70:	4c22                	lw	s8,8(sp)
    2d72:	4c92                	lw	s9,4(sp)
    2d74:	865a                	mv	a2,s6
    2d76:	85d6                	mv	a1,s5
    2d78:	4b42                	lw	s6,16(sp)
    2d7a:	4ad2                	lw	s5,20(sp)
    2d7c:	8526                	mv	a0,s1
    2d7e:	5492                	lw	s1,36(sp)
    2d80:	6145                	addi	sp,sp,48
    2d82:	0e80106f          	j	3e6a <rt_strncpy>
    2d86:	50b2                	lw	ra,44(sp)
    2d88:	5422                	lw	s0,40(sp)
    2d8a:	5492                	lw	s1,36(sp)
    2d8c:	5902                	lw	s2,32(sp)
    2d8e:	49f2                	lw	s3,28(sp)
    2d90:	4a62                	lw	s4,24(sp)
    2d92:	4ad2                	lw	s5,20(sp)
    2d94:	4b42                	lw	s6,16(sp)
    2d96:	4bb2                	lw	s7,12(sp)
    2d98:	4c22                	lw	s8,8(sp)
    2d9a:	4c92                	lw	s9,4(sp)
    2d9c:	6145                	addi	sp,sp,48
    2d9e:	8082                	ret
    2da0:	4581                	li	a1,0
    2da2:	4501                	li	a0,0
    2da4:	b12d                	j	29ce <msh_help>

00002da6 <cmd_ps>:
    2da6:	1141                	addi	sp,sp,-16
    2da8:	c606                	sw	ra,12(sp)
    2daa:	c2eff0ef          	jal	ra,21d8 <list_thread>
    2dae:	40b2                	lw	ra,12(sp)
    2db0:	4501                	li	a0,0
    2db2:	0141                	addi	sp,sp,16
    2db4:	8082                	ret

00002db6 <cmd_free>:
    2db6:	1141                	addi	sp,sp,-16
    2db8:	c606                	sw	ra,12(sp)
    2dba:	752010ef          	jal	ra,450c <list_mem>
    2dbe:	40b2                	lw	ra,12(sp)
    2dc0:	4501                	li	a0,0
    2dc2:	0141                	addi	sp,sp,16
    2dc4:	8082                	ret

00002dc6 <finsh_rx_ind>:
    2dc6:	81818793          	addi	a5,gp,-2024 # 200001d8 <_edata>
    2dca:	4388                	lw	a0,0(a5)
    2dcc:	1141                	addi	sp,sp,-16
    2dce:	c606                	sw	ra,12(sp)
    2dd0:	4e9000ef          	jal	ra,3ab8 <rt_sem_release>
    2dd4:	40b2                	lw	ra,12(sp)
    2dd6:	4501                	li	a0,0
    2dd8:	0141                	addi	sp,sp,16
    2dda:	8082                	ret

00002ddc <finsh_system_init>:
    2ddc:	00005797          	auipc	a5,0x5
    2de0:	e5878793          	addi	a5,a5,-424 # 7c34 <__fsym___cmd_led>
    2de4:	80f1ae23          	sw	a5,-2020(gp) # 200001dc <_syscall_table_begin>
    2de8:	00005797          	auipc	a5,0x5
    2dec:	fa878793          	addi	a5,a5,-88 # 7d90 <__rt_init_rti_start>
    2df0:	82f1a023          	sw	a5,-2016(gp) # 200001e0 <_syscall_table_end>
    2df4:	00005797          	auipc	a5,0x5
    2df8:	f9c78793          	addi	a5,a5,-100 # 7d90 <__rt_init_rti_start>
    2dfc:	1141                	addi	sp,sp,-16
    2dfe:	82f1a223          	sw	a5,-2012(gp) # 200001e4 <_sysvar_table_begin>
    2e02:	21000593          	li	a1,528
    2e06:	00005797          	auipc	a5,0x5
    2e0a:	f8a78793          	addi	a5,a5,-118 # 7d90 <__rt_init_rti_start>
    2e0e:	4505                	li	a0,1
    2e10:	82f1a423          	sw	a5,-2008(gp) # 200001e8 <_sysvar_table_end>
    2e14:	c606                	sw	ra,12(sp)
    2e16:	c422                	sw	s0,8(sp)
    2e18:	c226                	sw	s1,4(sp)
    2e1a:	11b010ef          	jal	ra,4734 <rt_calloc>
    2e1e:	80a1ac23          	sw	a0,-2024(gp) # 200001d8 <_edata>
    2e22:	c539                	beqz	a0,2e70 <finsh_system_init+0x94>
    2e24:	47a9                	li	a5,10
    2e26:	472d                	li	a4,11
    2e28:	40000693          	li	a3,1024
    2e2c:	4601                	li	a2,0
    2e2e:	00000597          	auipc	a1,0x0
    2e32:	19258593          	addi	a1,a1,402 # 2fc0 <finsh_thread_entry>
    2e36:	00005517          	auipc	a0,0x5
    2e3a:	8da50513          	addi	a0,a0,-1830 # 7710 <__fsym___cmd_ps_name+0x44>
    2e3e:	75b010ef          	jal	ra,4d98 <rt_thread_create>
    2e42:	81818793          	addi	a5,gp,-2024 # 200001d8 <_edata>
    2e46:	842a                	mv	s0,a0
    2e48:	4388                	lw	a0,0(a5)
    2e4a:	4681                	li	a3,0
    2e4c:	4601                	li	a2,0
    2e4e:	00005597          	auipc	a1,0x5
    2e52:	8ca58593          	addi	a1,a1,-1846 # 7718 <__fsym___cmd_ps_name+0x4c>
    2e56:	331000ef          	jal	ra,3986 <rt_sem_init>
    2e5a:	4481                	li	s1,0
    2e5c:	c401                	beqz	s0,2e64 <finsh_system_init+0x88>
    2e5e:	8522                	mv	a0,s0
    2e60:	116020ef          	jal	ra,4f76 <rt_thread_startup>
    2e64:	40b2                	lw	ra,12(sp)
    2e66:	4422                	lw	s0,8(sp)
    2e68:	8526                	mv	a0,s1
    2e6a:	4492                	lw	s1,4(sp)
    2e6c:	0141                	addi	sp,sp,16
    2e6e:	8082                	ret
    2e70:	00005517          	auipc	a0,0x5
    2e74:	88850513          	addi	a0,a0,-1912 # 76f8 <__fsym___cmd_ps_name+0x2c>
    2e78:	4f4010ef          	jal	ra,436c <rt_kprintf>
    2e7c:	54fd                	li	s1,-1
    2e7e:	b7dd                	j	2e64 <finsh_system_init+0x88>

00002e80 <finsh_get_prompt>:
    2e80:	1141                	addi	sp,sp,-16
    2e82:	c606                	sw	ra,12(sp)
    2e84:	c422                	sw	s0,8(sp)
    2e86:	bc7ff0ef          	jal	ra,2a4c <msh_is_used>
    2e8a:	c121                	beqz	a0,2eca <finsh_get_prompt+0x4a>
    2e8c:	206877b7          	lui	a5,0x20687
    2e90:	36d78793          	addi	a5,a5,877 # 2068736d <_eusrstack+0x67736d>
    2e94:	1fffe717          	auipc	a4,0x1fffe
    2e98:	4af72623          	sw	a5,1196(a4) # 20001340 <finsh_prompt.4329>
    2e9c:	1fffe797          	auipc	a5,0x1fffe
    2ea0:	4a078423          	sb	zero,1192(a5) # 20001344 <finsh_prompt.4329+0x4>
    2ea4:	1fffe417          	auipc	s0,0x1fffe
    2ea8:	49c40413          	addi	s0,s0,1180 # 20001340 <finsh_prompt.4329>
    2eac:	8522                	mv	a0,s0
    2eae:	62c020ef          	jal	ra,54da <strlen>
    2eb2:	9522                	add	a0,a0,s0
    2eb4:	03e00793          	li	a5,62
    2eb8:	00f50023          	sb	a5,0(a0)
    2ebc:	000500a3          	sb	zero,1(a0)
    2ec0:	40b2                	lw	ra,12(sp)
    2ec2:	8522                	mv	a0,s0
    2ec4:	4422                	lw	s0,8(sp)
    2ec6:	0141                	addi	sp,sp,16
    2ec8:	8082                	ret
    2eca:	736e77b7          	lui	a5,0x736e7
    2ece:	96678793          	addi	a5,a5,-1690 # 736e6966 <_eusrstack+0x536d6966>
    2ed2:	1fffe717          	auipc	a4,0x1fffe
    2ed6:	46f72723          	sw	a5,1134(a4) # 20001340 <finsh_prompt.4329>
    2eda:	6789                	lui	a5,0x2
    2edc:	06878793          	addi	a5,a5,104 # 2068 <rt_hw_serial_isr+0x3c>
    2ee0:	1fffe717          	auipc	a4,0x1fffe
    2ee4:	46f71223          	sh	a5,1124(a4) # 20001344 <finsh_prompt.4329+0x4>
    2ee8:	1fffe797          	auipc	a5,0x1fffe
    2eec:	44078f23          	sb	zero,1118(a5) # 20001346 <finsh_prompt.4329+0x6>
    2ef0:	bf55                	j	2ea4 <finsh_get_prompt+0x24>

00002ef2 <shell_handle_history>:
    2ef2:	1141                	addi	sp,sp,-16
    2ef4:	c422                	sw	s0,8(sp)
    2ef6:	842a                	mv	s0,a0
    2ef8:	00005517          	auipc	a0,0x5
    2efc:	83c50513          	addi	a0,a0,-1988 # 7734 <__fsym___cmd_ps_name+0x68>
    2f00:	c606                	sw	ra,12(sp)
    2f02:	46a010ef          	jal	ra,436c <rt_kprintf>
    2f06:	3fad                	jal	2e80 <finsh_get_prompt>
    2f08:	85aa                	mv	a1,a0
    2f0a:	1ba40613          	addi	a2,s0,442
    2f0e:	00005517          	auipc	a0,0x5
    2f12:	82e50513          	addi	a0,a0,-2002 # 773c <__fsym___cmd_ps_name+0x70>
    2f16:	456010ef          	jal	ra,436c <rt_kprintf>
    2f1a:	40b2                	lw	ra,12(sp)
    2f1c:	4422                	lw	s0,8(sp)
    2f1e:	4501                	li	a0,0
    2f20:	0141                	addi	sp,sp,16
    2f22:	8082                	ret

00002f24 <finsh_set_device>:
    2f24:	1141                	addi	sp,sp,-16
    2f26:	c226                	sw	s1,4(sp)
    2f28:	c606                	sw	ra,12(sp)
    2f2a:	c422                	sw	s0,8(sp)
    2f2c:	c04a                	sw	s2,0(sp)
    2f2e:	84aa                	mv	s1,a0
    2f30:	74a000ef          	jal	ra,367a <rt_device_find>
    2f34:	c935                	beqz	a0,2fa8 <finsh_set_device+0x84>
    2f36:	81818493          	addi	s1,gp,-2024 # 200001d8 <_edata>
    2f3a:	409c                	lw	a5,0(s1)
    2f3c:	842a                	mv	s0,a0
    2f3e:	20c7a783          	lw	a5,524(a5)
    2f42:	04a78d63          	beq	a5,a0,2f9c <finsh_set_device+0x78>
    2f46:	14300593          	li	a1,323
    2f4a:	7e6000ef          	jal	ra,3730 <rt_device_open>
    2f4e:	e539                	bnez	a0,2f9c <finsh_set_device+0x78>
    2f50:	0004a903          	lw	s2,0(s1)
    2f54:	20c92503          	lw	a0,524(s2)
    2f58:	c919                	beqz	a0,2f6e <finsh_set_device+0x4a>
    2f5a:	073000ef          	jal	ra,37cc <rt_device_close>
    2f5e:	409c                	lw	a5,0(s1)
    2f60:	4581                	li	a1,0
    2f62:	20c7a503          	lw	a0,524(a5)
    2f66:	113000ef          	jal	ra,3878 <rt_device_set_rx_indicate>
    2f6a:	0004a903          	lw	s2,0(s1)
    2f6e:	4581                	li	a1,0
    2f70:	1ba90513          	addi	a0,s2,442
    2f74:	05000613          	li	a2,80
    2f78:	bfafd0ef          	jal	ra,372 <memset>
    2f7c:	20091523          	sh	zero,522(s2)
    2f80:	20892623          	sw	s0,524(s2)
    2f84:	8522                	mv	a0,s0
    2f86:	4422                	lw	s0,8(sp)
    2f88:	40b2                	lw	ra,12(sp)
    2f8a:	4492                	lw	s1,4(sp)
    2f8c:	4902                	lw	s2,0(sp)
    2f8e:	00000597          	auipc	a1,0x0
    2f92:	e3858593          	addi	a1,a1,-456 # 2dc6 <finsh_rx_ind>
    2f96:	0141                	addi	sp,sp,16
    2f98:	0e10006f          	j	3878 <rt_device_set_rx_indicate>
    2f9c:	40b2                	lw	ra,12(sp)
    2f9e:	4422                	lw	s0,8(sp)
    2fa0:	4492                	lw	s1,4(sp)
    2fa2:	4902                	lw	s2,0(sp)
    2fa4:	0141                	addi	sp,sp,16
    2fa6:	8082                	ret
    2fa8:	4422                	lw	s0,8(sp)
    2faa:	40b2                	lw	ra,12(sp)
    2fac:	4902                	lw	s2,0(sp)
    2fae:	85a6                	mv	a1,s1
    2fb0:	4492                	lw	s1,4(sp)
    2fb2:	00004517          	auipc	a0,0x4
    2fb6:	72650513          	addi	a0,a0,1830 # 76d8 <__fsym___cmd_ps_name+0xc>
    2fba:	0141                	addi	sp,sp,16
    2fbc:	3b00106f          	j	436c <rt_kprintf>

00002fc0 <finsh_thread_entry>:
    2fc0:	715d                	addi	sp,sp,-80
    2fc2:	c0ca                	sw	s2,64(sp)
    2fc4:	81818913          	addi	s2,gp,-2024 # 200001d8 <_edata>
    2fc8:	00092783          	lw	a5,0(s2)
    2fcc:	c686                	sw	ra,76(sp)
    2fce:	c4a2                	sw	s0,72(sp)
    2fd0:	0247c703          	lbu	a4,36(a5)
    2fd4:	20c7a683          	lw	a3,524(a5)
    2fd8:	c2a6                	sw	s1,68(sp)
    2fda:	de4e                	sw	s3,60(sp)
    2fdc:	dc52                	sw	s4,56(sp)
    2fde:	da56                	sw	s5,52(sp)
    2fe0:	d85a                	sw	s6,48(sp)
    2fe2:	d65e                	sw	s7,44(sp)
    2fe4:	d462                	sw	s8,40(sp)
    2fe6:	d266                	sw	s9,36(sp)
    2fe8:	d06a                	sw	s10,32(sp)
    2fea:	ce6e                	sw	s11,28(sp)
    2fec:	00176713          	ori	a4,a4,1
    2ff0:	02e78223          	sb	a4,36(a5)
    2ff4:	48068963          	beqz	a3,3486 <finsh_thread_entry+0x4c6>
    2ff8:	3561                	jal	2e80 <finsh_get_prompt>
    2ffa:	372010ef          	jal	ra,436c <rt_kprintf>
    2ffe:	49ed                	li	s3,27
    3000:	00092403          	lw	s0,0(s2)
    3004:	4aa5                	li	s5,9
    3006:	07f00b13          	li	s6,127
    300a:	00004c97          	auipc	s9,0x4
    300e:	726c8c93          	addi	s9,s9,1830 # 7730 <__fsym___cmd_ps_name+0x64>
    3012:	00004a17          	auipc	s4,0x4
    3016:	70ea0a13          	addi	s4,s4,1806 # 7720 <__fsym___cmd_ps_name+0x54>
    301a:	4ba1                	li	s7,8
    301c:	4c35                	li	s8,13
    301e:	a801                	j	302e <finsh_thread_entry+0x6e>
    3020:	00092503          	lw	a0,0(s2)
    3024:	55fd                	li	a1,-1
    3026:	197000ef          	jal	ra,39bc <rt_sem_take>
    302a:	00092403          	lw	s0,0(s2)
    302e:	20c42503          	lw	a0,524(s0)
    3032:	4685                	li	a3,1
    3034:	00f10613          	addi	a2,sp,15
    3038:	55fd                	li	a1,-1
    303a:	7de000ef          	jal	ra,3818 <rt_device_read>
    303e:	4785                	li	a5,1
    3040:	fef510e3          	bne	a0,a5,3020 <finsh_thread_entry+0x60>
    3044:	00f10483          	lb	s1,15(sp)
    3048:	00092403          	lw	s0,0(s2)
    304c:	0d348c63          	beq	s1,s3,3124 <finsh_thread_entry+0x164>
    3050:	501c                	lw	a5,32(s0)
    3052:	0ca78b63          	beq	a5,a0,3128 <finsh_thread_entry+0x168>
    3056:	4709                	li	a4,2
    3058:	06e78163          	beq	a5,a4,30ba <finsh_thread_entry+0xfa>
    305c:	d8e9                	beqz	s1,302e <finsh_thread_entry+0x6e>
    305e:	27548d63          	beq	s1,s5,32d8 <finsh_thread_entry+0x318>
    3062:	0d648a63          	beq	s1,s6,3136 <finsh_thread_entry+0x176>
    3066:	0d748863          	beq	s1,s7,3136 <finsh_thread_entry+0x176>
    306a:	20a44783          	lbu	a5,522(s0)
    306e:	1b848463          	beq	s1,s8,3216 <finsh_thread_entry+0x256>
    3072:	4729                	li	a4,10
    3074:	1ae48163          	beq	s1,a4,3216 <finsh_thread_entry+0x256>
    3078:	04f00713          	li	a4,79
    307c:	12f77e63          	bgeu	a4,a5,31b8 <finsh_thread_entry+0x1f8>
    3080:	20040523          	sb	zero,522(s0)
    3084:	4701                	li	a4,0
    3086:	9722                	add	a4,a4,s0
    3088:	1a970d23          	sb	s1,442(a4)
    308c:	02444783          	lbu	a5,36(s0)
    3090:	8b85                	andi	a5,a5,1
    3092:	efad                	bnez	a5,310c <finsh_thread_entry+0x14c>
    3094:	20a44783          	lbu	a5,522(s0)
    3098:	20b44703          	lbu	a4,523(s0)
    309c:	0785                	addi	a5,a5,1
    309e:	0705                	addi	a4,a4,1
    30a0:	0ff7f793          	andi	a5,a5,255
    30a4:	20e405a3          	sb	a4,523(s0)
    30a8:	20f40523          	sb	a5,522(s0)
    30ac:	04f00713          	li	a4,79
    30b0:	f6f77fe3          	bgeu	a4,a5,302e <finsh_thread_entry+0x6e>
    30b4:	20041523          	sh	zero,522(s0)
    30b8:	bf9d                	j	302e <finsh_thread_entry+0x6e>
    30ba:	02042023          	sw	zero,32(s0)
    30be:	04100793          	li	a5,65
    30c2:	0af48763          	beq	s1,a5,3170 <finsh_thread_entry+0x1b0>
    30c6:	04200793          	li	a5,66
    30ca:	1cf48a63          	beq	s1,a5,329e <finsh_thread_entry+0x2de>
    30ce:	04400793          	li	a5,68
    30d2:	2ef48163          	beq	s1,a5,33b4 <finsh_thread_entry+0x3f4>
    30d6:	04300793          	li	a5,67
    30da:	f8f491e3          	bne	s1,a5,305c <finsh_thread_entry+0x9c>
    30de:	20b44783          	lbu	a5,523(s0)
    30e2:	20a44703          	lbu	a4,522(s0)
    30e6:	f4e7f4e3          	bgeu	a5,a4,302e <finsh_thread_entry+0x6e>
    30ea:	97a2                	add	a5,a5,s0
    30ec:	1ba78583          	lb	a1,442(a5)
    30f0:	00004517          	auipc	a0,0x4
    30f4:	63450513          	addi	a0,a0,1588 # 7724 <__fsym___cmd_ps_name+0x58>
    30f8:	274010ef          	jal	ra,436c <rt_kprintf>
    30fc:	00092403          	lw	s0,0(s2)
    3100:	20b44783          	lbu	a5,523(s0)
    3104:	0785                	addi	a5,a5,1
    3106:	20f405a3          	sb	a5,523(s0)
    310a:	b715                	j	302e <finsh_thread_entry+0x6e>
    310c:	85a6                	mv	a1,s1
    310e:	00004517          	auipc	a0,0x4
    3112:	61650513          	addi	a0,a0,1558 # 7724 <__fsym___cmd_ps_name+0x58>
    3116:	256010ef          	jal	ra,436c <rt_kprintf>
    311a:	00092403          	lw	s0,0(s2)
    311e:	20a44783          	lbu	a5,522(s0)
    3122:	bf9d                	j	3098 <finsh_thread_entry+0xd8>
    3124:	d008                	sw	a0,32(s0)
    3126:	b721                	j	302e <finsh_thread_entry+0x6e>
    3128:	05b00793          	li	a5,91
    312c:	0ef48263          	beq	s1,a5,3210 <finsh_thread_entry+0x250>
    3130:	02042023          	sw	zero,32(s0)
    3134:	b725                	j	305c <finsh_thread_entry+0x9c>
    3136:	20b44603          	lbu	a2,523(s0)
    313a:	ee060ae3          	beqz	a2,302e <finsh_thread_entry+0x6e>
    313e:	20a44783          	lbu	a5,522(s0)
    3142:	167d                	addi	a2,a2,-1
    3144:	0ff67613          	andi	a2,a2,255
    3148:	17fd                	addi	a5,a5,-1
    314a:	0ff7f793          	andi	a5,a5,255
    314e:	20f40523          	sb	a5,522(s0)
    3152:	20c405a3          	sb	a2,523(s0)
    3156:	1ef66363          	bltu	a2,a5,333c <finsh_thread_entry+0x37c>
    315a:	8566                	mv	a0,s9
    315c:	210010ef          	jal	ra,436c <rt_kprintf>
    3160:	00092403          	lw	s0,0(s2)
    3164:	20a44783          	lbu	a5,522(s0)
    3168:	97a2                	add	a5,a5,s0
    316a:	1a078d23          	sb	zero,442(a5)
    316e:	b5c1                	j	302e <finsh_thread_entry+0x6e>
    3170:	02645783          	lhu	a5,38(s0)
    3174:	ea078de3          	beqz	a5,302e <finsh_thread_entry+0x6e>
    3178:	17fd                	addi	a5,a5,-1
    317a:	07c2                	slli	a5,a5,0x10
    317c:	83c1                	srli	a5,a5,0x10
    317e:	00279593          	slli	a1,a5,0x2
    3182:	95be                	add	a1,a1,a5
    3184:	0592                	slli	a1,a1,0x4
    3186:	1ba40713          	addi	a4,s0,442
    318a:	02a58593          	addi	a1,a1,42
    318e:	95a2                	add	a1,a1,s0
    3190:	05000613          	li	a2,80
    3194:	02f41323          	sh	a5,38(s0)
    3198:	853a                	mv	a0,a4
    319a:	0a8020ef          	jal	ra,5242 <memcpy>
    319e:	33c020ef          	jal	ra,54da <strlen>
    31a2:	0ff57513          	andi	a0,a0,255
    31a6:	20a40523          	sb	a0,522(s0)
    31aa:	20a405a3          	sb	a0,523(s0)
    31ae:	8522                	mv	a0,s0
    31b0:	3389                	jal	2ef2 <shell_handle_history>
    31b2:	00092403          	lw	s0,0(s2)
    31b6:	bda5                	j	302e <finsh_thread_entry+0x6e>
    31b8:	20b44603          	lbu	a2,523(s0)
    31bc:	873e                	mv	a4,a5
    31be:	ecf674e3          	bgeu	a2,a5,3086 <finsh_thread_entry+0xc6>
    31c2:	1ba60593          	addi	a1,a2,442
    31c6:	1bb60513          	addi	a0,a2,443
    31ca:	95a2                	add	a1,a1,s0
    31cc:	9522                	add	a0,a0,s0
    31ce:	40c78633          	sub	a2,a5,a2
    31d2:	459000ef          	jal	ra,3e2a <rt_memmove>
    31d6:	00092403          	lw	s0,0(s2)
    31da:	20b44703          	lbu	a4,523(s0)
    31de:	00e407b3          	add	a5,s0,a4
    31e2:	1a978d23          	sb	s1,442(a5)
    31e6:	02444783          	lbu	a5,36(s0)
    31ea:	84ba                	mv	s1,a4
    31ec:	8b85                	andi	a5,a5,1
    31ee:	26079363          	bnez	a5,3454 <finsh_thread_entry+0x494>
    31f2:	20a44783          	lbu	a5,522(s0)
    31f6:	eaf753e3          	bge	a4,a5,309c <finsh_thread_entry+0xdc>
    31fa:	8552                	mv	a0,s4
    31fc:	170010ef          	jal	ra,436c <rt_kprintf>
    3200:	00092403          	lw	s0,0(s2)
    3204:	0485                	addi	s1,s1,1
    3206:	20a44783          	lbu	a5,522(s0)
    320a:	fef4c8e3          	blt	s1,a5,31fa <finsh_thread_entry+0x23a>
    320e:	b569                	j	3098 <finsh_thread_entry+0xd8>
    3210:	4789                	li	a5,2
    3212:	d01c                	sw	a5,32(s0)
    3214:	bd29                	j	302e <finsh_thread_entry+0x6e>
    3216:	02845d03          	lhu	s10,40(s0)
    321a:	cbb9                	beqz	a5,3270 <finsh_thread_entry+0x2b0>
    321c:	4791                	li	a5,4
    321e:	1ba40d93          	addi	s11,s0,442
    3222:	1ba7ff63          	bgeu	a5,s10,33e0 <finsh_thread_entry+0x420>
    3226:	16a40493          	addi	s1,s0,362
    322a:	05000613          	li	a2,80
    322e:	85ee                	mv	a1,s11
    3230:	8526                	mv	a0,s1
    3232:	7eb010ef          	jal	ra,521c <memcmp>
    3236:	cd0d                	beqz	a0,3270 <finsh_thread_entry+0x2b0>
    3238:	02a40d13          	addi	s10,s0,42
    323c:	856a                	mv	a0,s10
    323e:	050d0d13          	addi	s10,s10,80
    3242:	05000613          	li	a2,80
    3246:	85ea                	mv	a1,s10
    3248:	7fb010ef          	jal	ra,5242 <memcpy>
    324c:	ffa498e3          	bne	s1,s10,323c <finsh_thread_entry+0x27c>
    3250:	05000613          	li	a2,80
    3254:	4581                	li	a1,0
    3256:	8526                	mv	a0,s1
    3258:	91afd0ef          	jal	ra,372 <memset>
    325c:	20a44603          	lbu	a2,522(s0)
    3260:	85ee                	mv	a1,s11
    3262:	8526                	mv	a0,s1
    3264:	7df010ef          	jal	ra,5242 <memcpy>
    3268:	4795                	li	a5,5
    326a:	02f41423          	sh	a5,40(s0)
    326e:	4d15                	li	s10,5
    3270:	03a41323          	sh	s10,38(s0)
    3274:	fd8ff0ef          	jal	ra,2a4c <msh_is_used>
    3278:	4785                	li	a5,1
    327a:	12f50063          	beq	a0,a5,339a <finsh_thread_entry+0x3da>
    327e:	c03ff0ef          	jal	ra,2e80 <finsh_get_prompt>
    3282:	0ea010ef          	jal	ra,436c <rt_kprintf>
    3286:	00092403          	lw	s0,0(s2)
    328a:	05000613          	li	a2,80
    328e:	4581                	li	a1,0
    3290:	1ba40513          	addi	a0,s0,442
    3294:	8defd0ef          	jal	ra,372 <memset>
    3298:	20041523          	sh	zero,522(s0)
    329c:	bb49                	j	302e <finsh_thread_entry+0x6e>
    329e:	02845683          	lhu	a3,40(s0)
    32a2:	02645703          	lhu	a4,38(s0)
    32a6:	fff68793          	addi	a5,a3,-1
    32aa:	12f74463          	blt	a4,a5,33d2 <finsh_thread_entry+0x412>
    32ae:	d80680e3          	beqz	a3,302e <finsh_thread_entry+0x6e>
    32b2:	07c2                	slli	a5,a5,0x10
    32b4:	83c1                	srli	a5,a5,0x10
    32b6:	02f41323          	sh	a5,38(s0)
    32ba:	00279593          	slli	a1,a5,0x2
    32be:	95be                	add	a1,a1,a5
    32c0:	0592                	slli	a1,a1,0x4
    32c2:	1ba40793          	addi	a5,s0,442
    32c6:	02a58593          	addi	a1,a1,42
    32ca:	95a2                	add	a1,a1,s0
    32cc:	05000613          	li	a2,80
    32d0:	853e                	mv	a0,a5
    32d2:	771010ef          	jal	ra,5242 <memcpy>
    32d6:	b5e1                	j	319e <finsh_thread_entry+0x1de>
    32d8:	20b44783          	lbu	a5,523(s0)
    32dc:	cf81                	beqz	a5,32f4 <finsh_thread_entry+0x334>
    32de:	4481                	li	s1,0
    32e0:	8552                	mv	a0,s4
    32e2:	08a010ef          	jal	ra,436c <rt_kprintf>
    32e6:	00092403          	lw	s0,0(s2)
    32ea:	0485                	addi	s1,s1,1
    32ec:	20b44783          	lbu	a5,523(s0)
    32f0:	fef4c8e3          	blt	s1,a5,32e0 <finsh_thread_entry+0x320>
    32f4:	00003517          	auipc	a0,0x3
    32f8:	26450513          	addi	a0,a0,612 # 6558 <_read+0x90>
    32fc:	070010ef          	jal	ra,436c <rt_kprintf>
    3300:	f4cff0ef          	jal	ra,2a4c <msh_is_used>
    3304:	4785                	li	a5,1
    3306:	1ba40413          	addi	s0,s0,442
    330a:	14f50163          	beq	a0,a5,344c <finsh_thread_entry+0x48c>
    330e:	b73ff0ef          	jal	ra,2e80 <finsh_get_prompt>
    3312:	8622                	mv	a2,s0
    3314:	85aa                	mv	a1,a0
    3316:	00004517          	auipc	a0,0x4
    331a:	42650513          	addi	a0,a0,1062 # 773c <__fsym___cmd_ps_name+0x70>
    331e:	04e010ef          	jal	ra,436c <rt_kprintf>
    3322:	00092403          	lw	s0,0(s2)
    3326:	1ba40513          	addi	a0,s0,442
    332a:	1b0020ef          	jal	ra,54da <strlen>
    332e:	0ff57513          	andi	a0,a0,255
    3332:	20a40523          	sb	a0,522(s0)
    3336:	20a405a3          	sb	a0,523(s0)
    333a:	b9d5                	j	302e <finsh_thread_entry+0x6e>
    333c:	1bb60593          	addi	a1,a2,443
    3340:	1ba60513          	addi	a0,a2,442
    3344:	95a2                	add	a1,a1,s0
    3346:	40c78633          	sub	a2,a5,a2
    334a:	9522                	add	a0,a0,s0
    334c:	2df000ef          	jal	ra,3e2a <rt_memmove>
    3350:	00092783          	lw	a5,0(s2)
    3354:	00004517          	auipc	a0,0x4
    3358:	3d450513          	addi	a0,a0,980 # 7728 <__fsym___cmd_ps_name+0x5c>
    335c:	20a7c703          	lbu	a4,522(a5)
    3360:	973e                	add	a4,a4,a5
    3362:	1a070d23          	sb	zero,442(a4)
    3366:	20b7c583          	lbu	a1,523(a5)
    336a:	1ba58593          	addi	a1,a1,442
    336e:	95be                	add	a1,a1,a5
    3370:	7fd000ef          	jal	ra,436c <rt_kprintf>
    3374:	00092403          	lw	s0,0(s2)
    3378:	20b44483          	lbu	s1,523(s0)
    337c:	20a44783          	lbu	a5,522(s0)
    3380:	ca97c7e3          	blt	a5,s1,302e <finsh_thread_entry+0x6e>
    3384:	8552                	mv	a0,s4
    3386:	7e7000ef          	jal	ra,436c <rt_kprintf>
    338a:	00092403          	lw	s0,0(s2)
    338e:	0485                	addi	s1,s1,1
    3390:	20a44783          	lbu	a5,522(s0)
    3394:	fe97d8e3          	bge	a5,s1,3384 <finsh_thread_entry+0x3c4>
    3398:	b959                	j	302e <finsh_thread_entry+0x6e>
    339a:	00092503          	lw	a0,0(s2)
    339e:	02454783          	lbu	a5,36(a0)
    33a2:	8b85                	andi	a5,a5,1
    33a4:	ebe1                	bnez	a5,3474 <finsh_thread_entry+0x4b4>
    33a6:	20a54583          	lbu	a1,522(a0)
    33aa:	1ba50513          	addi	a0,a0,442
    33ae:	ea2ff0ef          	jal	ra,2a50 <msh_exec>
    33b2:	b5f1                	j	327e <finsh_thread_entry+0x2be>
    33b4:	20b44783          	lbu	a5,523(s0)
    33b8:	c6078be3          	beqz	a5,302e <finsh_thread_entry+0x6e>
    33bc:	8552                	mv	a0,s4
    33be:	7af000ef          	jal	ra,436c <rt_kprintf>
    33c2:	00092403          	lw	s0,0(s2)
    33c6:	20b44783          	lbu	a5,523(s0)
    33ca:	17fd                	addi	a5,a5,-1
    33cc:	20f405a3          	sb	a5,523(s0)
    33d0:	b9b9                	j	302e <finsh_thread_entry+0x6e>
    33d2:	00170793          	addi	a5,a4,1
    33d6:	07c2                	slli	a5,a5,0x10
    33d8:	83c1                	srli	a5,a5,0x10
    33da:	02f41323          	sh	a5,38(s0)
    33de:	bdf1                	j	32ba <finsh_thread_entry+0x2fa>
    33e0:	020d0263          	beqz	s10,3404 <finsh_thread_entry+0x444>
    33e4:	fffd0793          	addi	a5,s10,-1
    33e8:	00279513          	slli	a0,a5,0x2
    33ec:	953e                	add	a0,a0,a5
    33ee:	0512                	slli	a0,a0,0x4
    33f0:	02a50513          	addi	a0,a0,42
    33f4:	05000613          	li	a2,80
    33f8:	85ee                	mv	a1,s11
    33fa:	9522                	add	a0,a0,s0
    33fc:	621010ef          	jal	ra,521c <memcmp>
    3400:	e60508e3          	beqz	a0,3270 <finsh_thread_entry+0x2b0>
    3404:	002d1513          	slli	a0,s10,0x2
    3408:	956a                	add	a0,a0,s10
    340a:	0512                	slli	a0,a0,0x4
    340c:	02a50513          	addi	a0,a0,42
    3410:	05000613          	li	a2,80
    3414:	4581                	li	a1,0
    3416:	9522                	add	a0,a0,s0
    3418:	f5bfc0ef          	jal	ra,372 <memset>
    341c:	02845783          	lhu	a5,40(s0)
    3420:	20a44603          	lbu	a2,522(s0)
    3424:	85ee                	mv	a1,s11
    3426:	00279513          	slli	a0,a5,0x2
    342a:	953e                	add	a0,a0,a5
    342c:	0512                	slli	a0,a0,0x4
    342e:	02a50513          	addi	a0,a0,42
    3432:	9522                	add	a0,a0,s0
    3434:	60f010ef          	jal	ra,5242 <memcpy>
    3438:	02845703          	lhu	a4,40(s0)
    343c:	0705                	addi	a4,a4,1
    343e:	01071d13          	slli	s10,a4,0x10
    3442:	010d5d13          	srli	s10,s10,0x10
    3446:	03a41423          	sh	s10,40(s0)
    344a:	b51d                	j	3270 <finsh_thread_entry+0x2b0>
    344c:	8522                	mv	a0,s0
    344e:	841ff0ef          	jal	ra,2c8e <msh_auto_complete>
    3452:	bd75                	j	330e <finsh_thread_entry+0x34e>
    3454:	1ba70713          	addi	a4,a4,442
    3458:	00e405b3          	add	a1,s0,a4
    345c:	00004517          	auipc	a0,0x4
    3460:	07050513          	addi	a0,a0,112 # 74cc <__fsym_reboot_name+0x8>
    3464:	709000ef          	jal	ra,436c <rt_kprintf>
    3468:	00092403          	lw	s0,0(s2)
    346c:	20b44703          	lbu	a4,523(s0)
    3470:	84ba                	mv	s1,a4
    3472:	b341                	j	31f2 <finsh_thread_entry+0x232>
    3474:	00003517          	auipc	a0,0x3
    3478:	0e450513          	addi	a0,a0,228 # 6558 <_read+0x90>
    347c:	6f1000ef          	jal	ra,436c <rt_kprintf>
    3480:	00092503          	lw	a0,0(s2)
    3484:	b70d                	j	33a6 <finsh_thread_entry+0x3e6>
    3486:	69f000ef          	jal	ra,4324 <rt_console_get_device>
    348a:	b60507e3          	beqz	a0,2ff8 <finsh_thread_entry+0x38>
    348e:	a97ff0ef          	jal	ra,2f24 <finsh_set_device>
    3492:	b69d                	j	2ff8 <finsh_thread_entry+0x38>

00003494 <rt_hw_stack_init>:
    3494:	0611                	addi	a2,a2,4
    3496:	9a71                	andi	a2,a2,-4
    3498:	f8060813          	addi	a6,a2,-128
    349c:	deadc737          	lui	a4,0xdeadc
    34a0:	87c2                	mv	a5,a6
    34a2:	eef70713          	addi	a4,a4,-273 # deadbeef <_eusrstack+0xbeacbeef>
    34a6:	c398                	sw	a4,0(a5)
    34a8:	0791                	addi	a5,a5,4
    34aa:	fef61ee3          	bne	a2,a5,34a6 <rt_hw_stack_init+0x12>
    34ae:	67a1                	lui	a5,0x8
    34b0:	88078793          	addi	a5,a5,-1920 # 7880 <__fsym___cmd_ps_name+0x1b4>
    34b4:	f8a62023          	sw	a0,-128(a2)
    34b8:	f8d62223          	sw	a3,-124(a2)
    34bc:	fab62423          	sw	a1,-88(a2)
    34c0:	f8f62423          	sw	a5,-120(a2)
    34c4:	8542                	mv	a0,a6
    34c6:	8082                	ret

000034c8 <sw_clearpend>:
    34c8:	e000f737          	lui	a4,0xe000f
    34cc:	431c                	lw	a5,0(a4)
    34ce:	0786                	slli	a5,a5,0x1
    34d0:	8385                	srli	a5,a5,0x1
    34d2:	c31c                	sw	a5,0(a4)
    34d4:	8082                	ret

000034d6 <rt_hw_interrupt_disable>:
    34d6:	6521                	lui	a0,0x8
    34d8:	80050513          	addi	a0,a0,-2048 # 7800 <__fsym___cmd_ps_name+0x134>
    34dc:	30051573          	csrrw	a0,mstatus,a0
    34e0:	8082                	ret

000034e2 <rt_hw_interrupt_enable>:
    34e2:	30051073          	csrw	mstatus,a0
    34e6:	8082                	ret

000034e8 <rt_hw_context_switch_interrupt>:
    34e8:	83418793          	addi	a5,gp,-1996 # 200001f4 <rt_thread_switch_interrupt_flag>
    34ec:	439c                	lw	a5,0(a5)
    34ee:	e399                	bnez	a5,34f4 <rt_hw_context_switch_interrupt+0xc>
    34f0:	82a1a623          	sw	a0,-2004(gp) # 200001ec <rt_interrupt_from_thread>
    34f4:	82b1a823          	sw	a1,-2000(gp) # 200001f0 <rt_interrupt_to_thread>
    34f8:	4785                	li	a5,1
    34fa:	82f1aa23          	sw	a5,-1996(gp) # 200001f4 <rt_thread_switch_interrupt_flag>
    34fe:	e000f737          	lui	a4,0xe000f
    3502:	431c                	lw	a5,0(a4)
    3504:	800006b7          	lui	a3,0x80000
    3508:	8fd5                	or	a5,a5,a3
    350a:	c31c                	sw	a5,0(a4)
    350c:	8082                	ret

0000350e <rt_tick_get>:
    350e:	83818793          	addi	a5,gp,-1992 # 200001f8 <rt_tick>
    3512:	4388                	lw	a0,0(a5)
    3514:	8082                	ret

00003516 <rt_tick_increase>:
    3516:	83818793          	addi	a5,gp,-1992 # 200001f8 <rt_tick>
    351a:	439c                	lw	a5,0(a5)
    351c:	1141                	addi	sp,sp,-16
    351e:	c606                	sw	ra,12(sp)
    3520:	0785                	addi	a5,a5,1
    3522:	82f1ac23          	sw	a5,-1992(gp) # 200001f8 <rt_tick>
    3526:	06b010ef          	jal	ra,4d90 <rt_thread_self>
    352a:	453c                	lw	a5,72(a0)
    352c:	17fd                	addi	a5,a5,-1
    352e:	c53c                	sw	a5,72(a0)
    3530:	c789                	beqz	a5,353a <rt_tick_increase+0x24>
    3532:	40b2                	lw	ra,12(sp)
    3534:	0141                	addi	sp,sp,16
    3536:	4250106f          	j	515a <rt_timer_check>
    353a:	417c                	lw	a5,68(a0)
    353c:	c53c                	sw	a5,72(a0)
    353e:	0b9010ef          	jal	ra,4df6 <rt_thread_yield>
    3542:	40b2                	lw	ra,12(sp)
    3544:	0141                	addi	sp,sp,16
    3546:	4150106f          	j	515a <rt_timer_check>

0000354a <rt_tick_from_millisecond>:
    354a:	02054263          	bltz	a0,356e <rt_tick_from_millisecond+0x24>
    354e:	3e800693          	li	a3,1000
    3552:	02d567b3          	rem	a5,a0,a3
    3556:	02d787b3          	mul	a5,a5,a3
    355a:	02d54733          	div	a4,a0,a3
    355e:	3e778513          	addi	a0,a5,999
    3562:	02d54533          	div	a0,a0,a3
    3566:	02d707b3          	mul	a5,a4,a3
    356a:	953e                	add	a0,a0,a5
    356c:	8082                	ret
    356e:	557d                	li	a0,-1
    3570:	8082                	ret

00003572 <rti_start>:
    3572:	4501                	li	a0,0
    3574:	8082                	ret

00003576 <main_thread_entry>:
    3576:	1141                	addi	sp,sp,-16
    3578:	c422                	sw	s0,8(sp)
    357a:	c606                	sw	ra,12(sp)
    357c:	c226                	sw	s1,4(sp)
    357e:	00005417          	auipc	s0,0x5
    3582:	82240413          	addi	s0,s0,-2014 # 7da0 <__rt_init_rti_board_end>
    3586:	00005797          	auipc	a5,0x5
    358a:	82278793          	addi	a5,a5,-2014 # 7da8 <__rt_init_rti_end>
    358e:	02f47463          	bgeu	s0,a5,35b6 <main_thread_entry+0x40>
    3592:	00005497          	auipc	s1,0x5
    3596:	81548493          	addi	s1,s1,-2027 # 7da7 <__rt_init_finsh_system_init+0x3>
    359a:	8c81                	sub	s1,s1,s0
    359c:	98f1                	andi	s1,s1,-4
    359e:	0491                	addi	s1,s1,4
    35a0:	94a2                	add	s1,s1,s0
    35a2:	00000797          	auipc	a5,0x0
    35a6:	02878793          	addi	a5,a5,40 # 35ca <rti_board_end>
    35aa:	a011                	j	35ae <main_thread_entry+0x38>
    35ac:	401c                	lw	a5,0(s0)
    35ae:	0411                	addi	s0,s0,4
    35b0:	9782                	jalr	a5
    35b2:	fe941de3          	bne	s0,s1,35ac <main_thread_entry+0x36>
    35b6:	4422                	lw	s0,8(sp)
    35b8:	40b2                	lw	ra,12(sp)
    35ba:	4492                	lw	s1,4(sp)
    35bc:	0141                	addi	sp,sp,16
    35be:	df2fd06f          	j	bb0 <main>

000035c2 <rti_end>:
    35c2:	4501                	li	a0,0
    35c4:	8082                	ret

000035c6 <rti_board_start>:
    35c6:	4501                	li	a0,0
    35c8:	8082                	ret

000035ca <rti_board_end>:
    35ca:	4501                	li	a0,0
    35cc:	8082                	ret

000035ce <rt_components_board_init>:
    35ce:	1141                	addi	sp,sp,-16
    35d0:	c422                	sw	s0,8(sp)
    35d2:	c606                	sw	ra,12(sp)
    35d4:	c226                	sw	s1,4(sp)
    35d6:	00004417          	auipc	s0,0x4
    35da:	7be40413          	addi	s0,s0,1982 # 7d94 <__rt_init_rti_board_start>
    35de:	00004797          	auipc	a5,0x4
    35e2:	7c278793          	addi	a5,a5,1986 # 7da0 <__rt_init_rti_board_end>
    35e6:	02f47463          	bgeu	s0,a5,360e <rt_components_board_init+0x40>
    35ea:	00004497          	auipc	s1,0x4
    35ee:	7b548493          	addi	s1,s1,1973 # 7d9f <__rt_init_rt_hw_usart_init+0x3>
    35f2:	8c81                	sub	s1,s1,s0
    35f4:	98f1                	andi	s1,s1,-4
    35f6:	0491                	addi	s1,s1,4
    35f8:	94a2                	add	s1,s1,s0
    35fa:	00000797          	auipc	a5,0x0
    35fe:	fcc78793          	addi	a5,a5,-52 # 35c6 <rti_board_start>
    3602:	a011                	j	3606 <rt_components_board_init+0x38>
    3604:	401c                	lw	a5,0(s0)
    3606:	0411                	addi	s0,s0,4
    3608:	9782                	jalr	a5
    360a:	fe941de3          	bne	s0,s1,3604 <rt_components_board_init+0x36>
    360e:	40b2                	lw	ra,12(sp)
    3610:	4422                	lw	s0,8(sp)
    3612:	4492                	lw	s1,4(sp)
    3614:	0141                	addi	sp,sp,16
    3616:	8082                	ret

00003618 <rt_application_init>:
    3618:	1141                	addi	sp,sp,-16
    361a:	47d1                	li	a5,20
    361c:	4715                	li	a4,5
    361e:	20000693          	li	a3,512
    3622:	4601                	li	a2,0
    3624:	00000597          	auipc	a1,0x0
    3628:	f5258593          	addi	a1,a1,-174 # 3576 <main_thread_entry>
    362c:	00004517          	auipc	a0,0x4
    3630:	11850513          	addi	a0,a0,280 # 7744 <__fsym___cmd_ps_name+0x78>
    3634:	c606                	sw	ra,12(sp)
    3636:	762010ef          	jal	ra,4d98 <rt_thread_create>
    363a:	40b2                	lw	ra,12(sp)
    363c:	0141                	addi	sp,sp,16
    363e:	1390106f          	j	4f76 <rt_thread_startup>

00003642 <rtthread_startup>:
    3642:	1141                	addi	sp,sp,-16
    3644:	c606                	sw	ra,12(sp)
    3646:	3d41                	jal	34d6 <rt_hw_interrupt_disable>
    3648:	c8cfe0ef          	jal	ra,1ad4 <rt_hw_board_init>
    364c:	5a7000ef          	jal	ra,43f2 <rt_show_version>
    3650:	3c1010ef          	jal	ra,5210 <rt_system_timer_init>
    3654:	3d4010ef          	jal	ra,4a28 <rt_system_scheduler_init>
    3658:	37c1                	jal	3618 <rt_application_init>
    365a:	3c1010ef          	jal	ra,521a <rt_system_timer_thread_init>
    365e:	24d5                	jal	3942 <rt_thread_idle_init>
    3660:	402010ef          	jal	ra,4a62 <rt_system_scheduler_start>
    3664:	40b2                	lw	ra,12(sp)
    3666:	4501                	li	a0,0
    3668:	0141                	addi	sp,sp,16
    366a:	8082                	ret

0000366c <entry>:
    366c:	1141                	addi	sp,sp,-16
    366e:	c606                	sw	ra,12(sp)
    3670:	3fc9                	jal	3642 <rtthread_startup>
    3672:	40b2                	lw	ra,12(sp)
    3674:	4501                	li	a0,0
    3676:	0141                	addi	sp,sp,16
    3678:	8082                	ret

0000367a <rt_device_find>:
    367a:	1101                	addi	sp,sp,-32
    367c:	c64e                	sw	s3,12(sp)
    367e:	ce06                	sw	ra,28(sp)
    3680:	cc22                	sw	s0,24(sp)
    3682:	ca26                	sw	s1,20(sp)
    3684:	c84a                	sw	s2,16(sp)
    3686:	89aa                	mv	s3,a0
    3688:	708010ef          	jal	ra,4d90 <rt_thread_self>
    368c:	c119                	beqz	a0,3692 <rt_device_find+0x18>
    368e:	53e010ef          	jal	ra,4bcc <rt_enter_critical>
    3692:	4525                	li	a0,9
    3694:	19e010ef          	jal	ra,4832 <rt_object_get_information>
    3698:	4140                	lw	s0,4(a0)
    369a:	00450913          	addi	s2,a0,4
    369e:	01241663          	bne	s0,s2,36aa <rt_device_find+0x30>
    36a2:	a80d                	j	36d4 <rt_device_find+0x5a>
    36a4:	4000                	lw	s0,0(s0)
    36a6:	03240763          	beq	s0,s2,36d4 <rt_device_find+0x5a>
    36aa:	ff440493          	addi	s1,s0,-12
    36ae:	4621                	li	a2,8
    36b0:	85ce                	mv	a1,s3
    36b2:	8526                	mv	a0,s1
    36b4:	7ec000ef          	jal	ra,3ea0 <rt_strncmp>
    36b8:	f575                	bnez	a0,36a4 <rt_device_find+0x2a>
    36ba:	6d6010ef          	jal	ra,4d90 <rt_thread_self>
    36be:	c119                	beqz	a0,36c4 <rt_device_find+0x4a>
    36c0:	52a010ef          	jal	ra,4bea <rt_exit_critical>
    36c4:	40f2                	lw	ra,28(sp)
    36c6:	4462                	lw	s0,24(sp)
    36c8:	8526                	mv	a0,s1
    36ca:	4942                	lw	s2,16(sp)
    36cc:	44d2                	lw	s1,20(sp)
    36ce:	49b2                	lw	s3,12(sp)
    36d0:	6105                	addi	sp,sp,32
    36d2:	8082                	ret
    36d4:	6bc010ef          	jal	ra,4d90 <rt_thread_self>
    36d8:	4481                	li	s1,0
    36da:	f17d                	bnez	a0,36c0 <rt_device_find+0x46>
    36dc:	40f2                	lw	ra,28(sp)
    36de:	4462                	lw	s0,24(sp)
    36e0:	8526                	mv	a0,s1
    36e2:	4942                	lw	s2,16(sp)
    36e4:	44d2                	lw	s1,20(sp)
    36e6:	49b2                	lw	s3,12(sp)
    36e8:	6105                	addi	sp,sp,32
    36ea:	8082                	ret

000036ec <rt_device_register>:
    36ec:	c121                	beqz	a0,372c <rt_device_register+0x40>
    36ee:	1141                	addi	sp,sp,-16
    36f0:	c422                	sw	s0,8(sp)
    36f2:	842a                	mv	s0,a0
    36f4:	852e                	mv	a0,a1
    36f6:	c226                	sw	s1,4(sp)
    36f8:	c04a                	sw	s2,0(sp)
    36fa:	c606                	sw	ra,12(sp)
    36fc:	8932                	mv	s2,a2
    36fe:	84ae                	mv	s1,a1
    3700:	3fad                	jal	367a <rt_device_find>
    3702:	e11d                	bnez	a0,3728 <rt_device_register+0x3c>
    3704:	8522                	mv	a0,s0
    3706:	8626                	mv	a2,s1
    3708:	45a5                	li	a1,9
    370a:	150010ef          	jal	ra,485a <rt_object_init>
    370e:	4501                	li	a0,0
    3710:	01241c23          	sh	s2,24(s0)
    3714:	00040e23          	sb	zero,28(s0)
    3718:	00041d23          	sh	zero,26(s0)
    371c:	40b2                	lw	ra,12(sp)
    371e:	4422                	lw	s0,8(sp)
    3720:	4492                	lw	s1,4(sp)
    3722:	4902                	lw	s2,0(sp)
    3724:	0141                	addi	sp,sp,16
    3726:	8082                	ret
    3728:	557d                	li	a0,-1
    372a:	bfcd                	j	371c <rt_device_register+0x30>
    372c:	557d                	li	a0,-1
    372e:	8082                	ret

00003730 <rt_device_open>:
    3730:	01855783          	lhu	a5,24(a0)
    3734:	1101                	addi	sp,sp,-32
    3736:	cc22                	sw	s0,24(sp)
    3738:	ce06                	sw	ra,28(sp)
    373a:	ca26                	sw	s1,20(sp)
    373c:	0107f713          	andi	a4,a5,16
    3740:	842a                	mv	s0,a0
    3742:	ef11                	bnez	a4,375e <rt_device_open+0x2e>
    3744:	5518                	lw	a4,40(a0)
    3746:	cb01                	beqz	a4,3756 <rt_device_open+0x26>
    3748:	c62e                	sw	a1,12(sp)
    374a:	9702                	jalr	a4
    374c:	84aa                	mv	s1,a0
    374e:	e535                	bnez	a0,37ba <rt_device_open+0x8a>
    3750:	01845783          	lhu	a5,24(s0)
    3754:	45b2                	lw	a1,12(sp)
    3756:	0107e793          	ori	a5,a5,16
    375a:	00f41c23          	sh	a5,24(s0)
    375e:	8ba1                	andi	a5,a5,8
    3760:	e385                	bnez	a5,3780 <rt_device_open+0x50>
    3762:	545c                	lw	a5,44(s0)
    3764:	c7a9                	beqz	a5,37ae <rt_device_open+0x7e>
    3766:	8522                	mv	a0,s0
    3768:	9782                	jalr	a5
    376a:	84aa                	mv	s1,a0
    376c:	c105                	beqz	a0,378c <rt_device_open+0x5c>
    376e:	57e9                	li	a5,-6
    3770:	00f50e63          	beq	a0,a5,378c <rt_device_open+0x5c>
    3774:	40f2                	lw	ra,28(sp)
    3776:	4462                	lw	s0,24(sp)
    3778:	8526                	mv	a0,s1
    377a:	44d2                	lw	s1,20(sp)
    377c:	6105                	addi	sp,sp,32
    377e:	8082                	ret
    3780:	01a45783          	lhu	a5,26(s0)
    3784:	8ba1                	andi	a5,a5,8
    3786:	dff1                	beqz	a5,3762 <rt_device_open+0x32>
    3788:	54e5                	li	s1,-7
    378a:	b7ed                	j	3774 <rt_device_open+0x44>
    378c:	01a45583          	lhu	a1,26(s0)
    3790:	01c44783          	lbu	a5,28(s0)
    3794:	0085e593          	ori	a1,a1,8
    3798:	00b41d23          	sh	a1,26(s0)
    379c:	0785                	addi	a5,a5,1
    379e:	00f40e23          	sb	a5,28(s0)
    37a2:	40f2                	lw	ra,28(sp)
    37a4:	4462                	lw	s0,24(sp)
    37a6:	8526                	mv	a0,s1
    37a8:	44d2                	lw	s1,20(sp)
    37aa:	6105                	addi	sp,sp,32
    37ac:	8082                	ret
    37ae:	6785                	lui	a5,0x1
    37b0:	f0f78793          	addi	a5,a5,-241 # f0f <ch32_pin_mode+0x1f>
    37b4:	8dfd                	and	a1,a1,a5
    37b6:	4481                	li	s1,0
    37b8:	bfe1                	j	3790 <rt_device_open+0x60>
    37ba:	862a                	mv	a2,a0
    37bc:	85a2                	mv	a1,s0
    37be:	00004517          	auipc	a0,0x4
    37c2:	f8e50513          	addi	a0,a0,-114 # 774c <__fsym___cmd_ps_name+0x80>
    37c6:	3a7000ef          	jal	ra,436c <rt_kprintf>
    37ca:	b76d                	j	3774 <rt_device_open+0x44>

000037cc <rt_device_close>:
    37cc:	01c54783          	lbu	a5,28(a0)
    37d0:	c3a9                	beqz	a5,3812 <rt_device_close+0x46>
    37d2:	1141                	addi	sp,sp,-16
    37d4:	17fd                	addi	a5,a5,-1
    37d6:	c422                	sw	s0,8(sp)
    37d8:	c606                	sw	ra,12(sp)
    37da:	0ff7f793          	andi	a5,a5,255
    37de:	00f50e23          	sb	a5,28(a0)
    37e2:	842a                	mv	s0,a0
    37e4:	4681                	li	a3,0
    37e6:	eb89                	bnez	a5,37f8 <rt_device_close+0x2c>
    37e8:	591c                	lw	a5,48(a0)
    37ea:	cf81                	beqz	a5,3802 <rt_device_close+0x36>
    37ec:	9782                	jalr	a5
    37ee:	86aa                	mv	a3,a0
    37f0:	c909                	beqz	a0,3802 <rt_device_close+0x36>
    37f2:	57e9                	li	a5,-6
    37f4:	00f50863          	beq	a0,a5,3804 <rt_device_close+0x38>
    37f8:	40b2                	lw	ra,12(sp)
    37fa:	4422                	lw	s0,8(sp)
    37fc:	8536                	mv	a0,a3
    37fe:	0141                	addi	sp,sp,16
    3800:	8082                	ret
    3802:	4681                	li	a3,0
    3804:	00041d23          	sh	zero,26(s0)
    3808:	40b2                	lw	ra,12(sp)
    380a:	4422                	lw	s0,8(sp)
    380c:	8536                	mv	a0,a3
    380e:	0141                	addi	sp,sp,16
    3810:	8082                	ret
    3812:	56fd                	li	a3,-1
    3814:	8536                	mv	a0,a3
    3816:	8082                	ret

00003818 <rt_device_read>:
    3818:	1141                	addi	sp,sp,-16
    381a:	c606                	sw	ra,12(sp)
    381c:	01c54703          	lbu	a4,28(a0)
    3820:	cf11                	beqz	a4,383c <rt_device_read+0x24>
    3822:	03452303          	lw	t1,52(a0)
    3826:	00030563          	beqz	t1,3830 <rt_device_read+0x18>
    382a:	40b2                	lw	ra,12(sp)
    382c:	0141                	addi	sp,sp,16
    382e:	8302                	jr	t1
    3830:	5569                	li	a0,-6
    3832:	2389                	jal	3d74 <rt_set_errno>
    3834:	40b2                	lw	ra,12(sp)
    3836:	4501                	li	a0,0
    3838:	0141                	addi	sp,sp,16
    383a:	8082                	ret
    383c:	557d                	li	a0,-1
    383e:	2b1d                	jal	3d74 <rt_set_errno>
    3840:	40b2                	lw	ra,12(sp)
    3842:	4501                	li	a0,0
    3844:	0141                	addi	sp,sp,16
    3846:	8082                	ret

00003848 <rt_device_write>:
    3848:	1141                	addi	sp,sp,-16
    384a:	c606                	sw	ra,12(sp)
    384c:	01c54703          	lbu	a4,28(a0)
    3850:	cf11                	beqz	a4,386c <rt_device_write+0x24>
    3852:	03852303          	lw	t1,56(a0)
    3856:	00030563          	beqz	t1,3860 <rt_device_write+0x18>
    385a:	40b2                	lw	ra,12(sp)
    385c:	0141                	addi	sp,sp,16
    385e:	8302                	jr	t1
    3860:	5569                	li	a0,-6
    3862:	2b09                	jal	3d74 <rt_set_errno>
    3864:	40b2                	lw	ra,12(sp)
    3866:	4501                	li	a0,0
    3868:	0141                	addi	sp,sp,16
    386a:	8082                	ret
    386c:	557d                	li	a0,-1
    386e:	2319                	jal	3d74 <rt_set_errno>
    3870:	40b2                	lw	ra,12(sp)
    3872:	4501                	li	a0,0
    3874:	0141                	addi	sp,sp,16
    3876:	8082                	ret

00003878 <rt_device_set_rx_indicate>:
    3878:	d10c                	sw	a1,32(a0)
    387a:	4501                	li	a0,0
    387c:	8082                	ret

0000387e <rt_thread_idle_excute>:
    387e:	1101                	addi	sp,sp,-32
    3880:	ca26                	sw	s1,20(sp)
    3882:	89418493          	addi	s1,gp,-1900 # 20000254 <rt_thread_defunct>
    3886:	409c                	lw	a5,0(s1)
    3888:	ce06                	sw	ra,28(sp)
    388a:	cc22                	sw	s0,24(sp)
    388c:	c84a                	sw	s2,16(sp)
    388e:	c64e                	sw	s3,12(sp)
    3890:	c452                	sw	s4,8(sp)
    3892:	06978563          	beq	a5,s1,38fc <rt_thread_idle_excute+0x7e>
    3896:	4a05                	li	s4,1
    3898:	a099                	j	38de <rt_thread_idle_excute+0x60>
    389a:	4080                	lw	s0,0(s1)
    389c:	405c                	lw	a5,4(s0)
    389e:	4018                	lw	a4,0(s0)
    38a0:	fec40913          	addi	s2,s0,-20
    38a4:	c35c                	sw	a5,4(a4)
    38a6:	c398                	sw	a4,0(a5)
    38a8:	c040                	sw	s0,4(s0)
    38aa:	c000                	sw	s0,0(s0)
    38ac:	320010ef          	jal	ra,4bcc <rt_enter_critical>
    38b0:	507c                	lw	a5,100(s0)
    38b2:	854a                	mv	a0,s2
    38b4:	c391                	beqz	a5,38b8 <rt_thread_idle_excute+0x3a>
    38b6:	9782                	jalr	a5
    38b8:	854a                	mv	a0,s2
    38ba:	166010ef          	jal	ra,4a20 <rt_object_is_systemobject>
    38be:	05450763          	beq	a0,s4,390c <rt_thread_idle_excute+0x8e>
    38c2:	328010ef          	jal	ra,4bea <rt_exit_critical>
    38c6:	854e                	mv	a0,s3
    38c8:	c1bff0ef          	jal	ra,34e2 <rt_hw_interrupt_enable>
    38cc:	4848                	lw	a0,20(s0)
    38ce:	68f000ef          	jal	ra,475c <rt_free>
    38d2:	854a                	mv	a0,s2
    38d4:	112010ef          	jal	ra,49e6 <rt_object_delete>
    38d8:	409c                	lw	a5,0(s1)
    38da:	02978163          	beq	a5,s1,38fc <rt_thread_idle_excute+0x7e>
    38de:	bf9ff0ef          	jal	ra,34d6 <rt_hw_interrupt_disable>
    38e2:	409c                	lw	a5,0(s1)
    38e4:	89aa                	mv	s3,a0
    38e6:	fa979ae3          	bne	a5,s1,389a <rt_thread_idle_excute+0x1c>
    38ea:	4462                	lw	s0,24(sp)
    38ec:	40f2                	lw	ra,28(sp)
    38ee:	44d2                	lw	s1,20(sp)
    38f0:	4942                	lw	s2,16(sp)
    38f2:	49b2                	lw	s3,12(sp)
    38f4:	4a22                	lw	s4,8(sp)
    38f6:	6105                	addi	sp,sp,32
    38f8:	bebff06f          	j	34e2 <rt_hw_interrupt_enable>
    38fc:	40f2                	lw	ra,28(sp)
    38fe:	4462                	lw	s0,24(sp)
    3900:	44d2                	lw	s1,20(sp)
    3902:	4942                	lw	s2,16(sp)
    3904:	49b2                	lw	s3,12(sp)
    3906:	4a22                	lw	s4,8(sp)
    3908:	6105                	addi	sp,sp,32
    390a:	8082                	ret
    390c:	854a                	mv	a0,s2
    390e:	7f9000ef          	jal	ra,4906 <rt_object_detach>
    3912:	2d8010ef          	jal	ra,4bea <rt_exit_critical>
    3916:	854e                	mv	a0,s3
    3918:	bfc9                	j	38ea <rt_thread_idle_excute+0x6c>

0000391a <rt_thread_idle_entry>:
    391a:	1141                	addi	sp,sp,-16
    391c:	c226                	sw	s1,4(sp)
    391e:	c606                	sw	ra,12(sp)
    3920:	c422                	sw	s0,8(sp)
    3922:	1fffe497          	auipc	s1,0x1fffe
    3926:	b3248493          	addi	s1,s1,-1230 # 20001454 <rt_thread_stack>
    392a:	1fffe417          	auipc	s0,0x1fffe
    392e:	b1a40413          	addi	s0,s0,-1254 # 20001444 <idle_hook_list>
    3932:	401c                	lw	a5,0(s0)
    3934:	0411                	addi	s0,s0,4
    3936:	c391                	beqz	a5,393a <rt_thread_idle_entry+0x20>
    3938:	9782                	jalr	a5
    393a:	fe941ce3          	bne	s0,s1,3932 <rt_thread_idle_entry+0x18>
    393e:	3781                	jal	387e <rt_thread_idle_excute>
    3940:	b7ed                	j	392a <rt_thread_idle_entry+0x10>

00003942 <rt_thread_idle_init>:
    3942:	1141                	addi	sp,sp,-16
    3944:	c422                	sw	s0,8(sp)
    3946:	1fffe417          	auipc	s0,0x1fffe
    394a:	a7e40413          	addi	s0,s0,-1410 # 200013c4 <idle>
    394e:	8522                	mv	a0,s0
    3950:	02000893          	li	a7,32
    3954:	483d                	li	a6,15
    3956:	20000793          	li	a5,512
    395a:	1fffe717          	auipc	a4,0x1fffe
    395e:	afa70713          	addi	a4,a4,-1286 # 20001454 <rt_thread_stack>
    3962:	4681                	li	a3,0
    3964:	00000617          	auipc	a2,0x0
    3968:	fb660613          	addi	a2,a2,-74 # 391a <rt_thread_idle_entry>
    396c:	00004597          	auipc	a1,0x4
    3970:	e1858593          	addi	a1,a1,-488 # 7784 <__fsym___cmd_ps_name+0xb8>
    3974:	c606                	sw	ra,12(sp)
    3976:	3ce010ef          	jal	ra,4d44 <rt_thread_init>
    397a:	8522                	mv	a0,s0
    397c:	4422                	lw	s0,8(sp)
    397e:	40b2                	lw	ra,12(sp)
    3980:	0141                	addi	sp,sp,16
    3982:	5f40106f          	j	4f76 <rt_thread_startup>

00003986 <rt_sem_init>:
    3986:	1141                	addi	sp,sp,-16
    3988:	c04a                	sw	s2,0(sp)
    398a:	8932                	mv	s2,a2
    398c:	862e                	mv	a2,a1
    398e:	4589                	li	a1,2
    3990:	c422                	sw	s0,8(sp)
    3992:	c226                	sw	s1,4(sp)
    3994:	842a                	mv	s0,a0
    3996:	c606                	sw	ra,12(sp)
    3998:	84b6                	mv	s1,a3
    399a:	6c1000ef          	jal	ra,485a <rt_object_init>
    399e:	01440793          	addi	a5,s0,20
    39a2:	009404a3          	sb	s1,9(s0)
    39a6:	01241e23          	sh	s2,28(s0)
    39aa:	cc1c                	sw	a5,24(s0)
    39ac:	c85c                	sw	a5,20(s0)
    39ae:	40b2                	lw	ra,12(sp)
    39b0:	4422                	lw	s0,8(sp)
    39b2:	4492                	lw	s1,4(sp)
    39b4:	4902                	lw	s2,0(sp)
    39b6:	4501                	li	a0,0
    39b8:	0141                	addi	sp,sp,16
    39ba:	8082                	ret

000039bc <rt_sem_take>:
    39bc:	88018793          	addi	a5,gp,-1920 # 20000240 <rt_object_trytake_hook>
    39c0:	439c                	lw	a5,0(a5)
    39c2:	7179                	addi	sp,sp,-48
    39c4:	d422                	sw	s0,40(sp)
    39c6:	d606                	sw	ra,44(sp)
    39c8:	d226                	sw	s1,36(sp)
    39ca:	d04a                	sw	s2,32(sp)
    39cc:	ce4e                	sw	s3,28(sp)
    39ce:	cc52                	sw	s4,24(sp)
    39d0:	c62e                	sw	a1,12(sp)
    39d2:	842a                	mv	s0,a0
    39d4:	c391                	beqz	a5,39d8 <rt_sem_take+0x1c>
    39d6:	9782                	jalr	a5
    39d8:	affff0ef          	jal	ra,34d6 <rt_hw_interrupt_disable>
    39dc:	01c45783          	lhu	a5,28(s0)
    39e0:	8a2a                	mv	s4,a0
    39e2:	e3e9                	bnez	a5,3aa4 <rt_sem_take+0xe8>
    39e4:	47b2                	lw	a5,12(sp)
    39e6:	c7e9                	beqz	a5,3ab0 <rt_sem_take+0xf4>
    39e8:	3a8010ef          	jal	ra,4d90 <rt_thread_self>
    39ec:	02052823          	sw	zero,48(a0)
    39f0:	00944983          	lbu	s3,9(s0)
    39f4:	84aa                	mv	s1,a0
    39f6:	01440913          	addi	s2,s0,20
    39fa:	464010ef          	jal	ra,4e5e <rt_thread_suspend>
    39fe:	06098663          	beqz	s3,3a6a <rt_sem_take+0xae>
    3a02:	4785                	li	a5,1
    3a04:	02f99263          	bne	s3,a5,3a28 <rt_sem_take+0x6c>
    3a08:	485c                	lw	a5,20(s0)
    3a0a:	06f90063          	beq	s2,a5,3a6a <rt_sem_take+0xae>
    3a0e:	0354c683          	lbu	a3,53(s1)
    3a12:	0217c703          	lbu	a4,33(a5)
    3a16:	04e6f763          	bgeu	a3,a4,3a64 <rt_sem_take+0xa8>
    3a1a:	43d4                	lw	a3,4(a5)
    3a1c:	01448713          	addi	a4,s1,20
    3a20:	c298                	sw	a4,0(a3)
    3a22:	cc94                	sw	a3,24(s1)
    3a24:	c3d8                	sw	a4,4(a5)
    3a26:	c8dc                	sw	a5,20(s1)
    3a28:	47b2                	lw	a5,12(sp)
    3a2a:	04f04b63          	bgtz	a5,3a80 <rt_sem_take+0xc4>
    3a2e:	8552                	mv	a0,s4
    3a30:	ab3ff0ef          	jal	ra,34e2 <rt_hw_interrupt_enable>
    3a34:	060010ef          	jal	ra,4a94 <rt_schedule>
    3a38:	5884                	lw	s1,48(s1)
    3a3a:	e881                	bnez	s1,3a4a <rt_sem_take+0x8e>
    3a3c:	87c18793          	addi	a5,gp,-1924 # 2000023c <rt_object_take_hook>
    3a40:	439c                	lw	a5,0(a5)
    3a42:	4481                	li	s1,0
    3a44:	c399                	beqz	a5,3a4a <rt_sem_take+0x8e>
    3a46:	8522                	mv	a0,s0
    3a48:	9782                	jalr	a5
    3a4a:	50b2                	lw	ra,44(sp)
    3a4c:	5422                	lw	s0,40(sp)
    3a4e:	8526                	mv	a0,s1
    3a50:	5902                	lw	s2,32(sp)
    3a52:	5492                	lw	s1,36(sp)
    3a54:	49f2                	lw	s3,28(sp)
    3a56:	4a62                	lw	s4,24(sp)
    3a58:	6145                	addi	sp,sp,48
    3a5a:	8082                	ret
    3a5c:	0217c703          	lbu	a4,33(a5)
    3a60:	fae6ede3          	bltu	a3,a4,3a1a <rt_sem_take+0x5e>
    3a64:	439c                	lw	a5,0(a5)
    3a66:	fef91be3          	bne	s2,a5,3a5c <rt_sem_take+0xa0>
    3a6a:	4c18                	lw	a4,24(s0)
    3a6c:	01448793          	addi	a5,s1,20
    3a70:	c31c                	sw	a5,0(a4)
    3a72:	cc98                	sw	a4,24(s1)
    3a74:	cc1c                	sw	a5,24(s0)
    3a76:	47b2                	lw	a5,12(sp)
    3a78:	0124aa23          	sw	s2,20(s1)
    3a7c:	faf059e3          	blez	a5,3a2e <rt_sem_take+0x72>
    3a80:	04c48913          	addi	s2,s1,76
    3a84:	0070                	addi	a2,sp,12
    3a86:	4581                	li	a1,0
    3a88:	854a                	mv	a0,s2
    3a8a:	68a010ef          	jal	ra,5114 <rt_timer_control>
    3a8e:	854a                	mv	a0,s2
    3a90:	596010ef          	jal	ra,5026 <rt_timer_start>
    3a94:	8552                	mv	a0,s4
    3a96:	a4dff0ef          	jal	ra,34e2 <rt_hw_interrupt_enable>
    3a9a:	7fb000ef          	jal	ra,4a94 <rt_schedule>
    3a9e:	5884                	lw	s1,48(s1)
    3aa0:	dcd1                	beqz	s1,3a3c <rt_sem_take+0x80>
    3aa2:	b765                	j	3a4a <rt_sem_take+0x8e>
    3aa4:	17fd                	addi	a5,a5,-1
    3aa6:	00f41e23          	sh	a5,28(s0)
    3aaa:	a39ff0ef          	jal	ra,34e2 <rt_hw_interrupt_enable>
    3aae:	b779                	j	3a3c <rt_sem_take+0x80>
    3ab0:	a33ff0ef          	jal	ra,34e2 <rt_hw_interrupt_enable>
    3ab4:	54f9                	li	s1,-2
    3ab6:	bf51                	j	3a4a <rt_sem_take+0x8e>

00003ab8 <rt_sem_release>:
    3ab8:	87818793          	addi	a5,gp,-1928 # 20000238 <rt_object_put_hook>
    3abc:	439c                	lw	a5,0(a5)
    3abe:	1141                	addi	sp,sp,-16
    3ac0:	c422                	sw	s0,8(sp)
    3ac2:	c606                	sw	ra,12(sp)
    3ac4:	c226                	sw	s1,4(sp)
    3ac6:	842a                	mv	s0,a0
    3ac8:	c391                	beqz	a5,3acc <rt_sem_release+0x14>
    3aca:	9782                	jalr	a5
    3acc:	a0bff0ef          	jal	ra,34d6 <rt_hw_interrupt_disable>
    3ad0:	485c                	lw	a5,20(s0)
    3ad2:	01440713          	addi	a4,s0,20
    3ad6:	84aa                	mv	s1,a0
    3ad8:	02e78163          	beq	a5,a4,3afa <rt_sem_release+0x42>
    3adc:	fec78513          	addi	a0,a5,-20
    3ae0:	43a010ef          	jal	ra,4f1a <rt_thread_resume>
    3ae4:	8526                	mv	a0,s1
    3ae6:	9fdff0ef          	jal	ra,34e2 <rt_hw_interrupt_enable>
    3aea:	7ab000ef          	jal	ra,4a94 <rt_schedule>
    3aee:	40b2                	lw	ra,12(sp)
    3af0:	4422                	lw	s0,8(sp)
    3af2:	4492                	lw	s1,4(sp)
    3af4:	4501                	li	a0,0
    3af6:	0141                	addi	sp,sp,16
    3af8:	8082                	ret
    3afa:	01c45783          	lhu	a5,28(s0)
    3afe:	0785                	addi	a5,a5,1
    3b00:	00f41e23          	sh	a5,28(s0)
    3b04:	9dfff0ef          	jal	ra,34e2 <rt_hw_interrupt_enable>
    3b08:	40b2                	lw	ra,12(sp)
    3b0a:	4422                	lw	s0,8(sp)
    3b0c:	4492                	lw	s1,4(sp)
    3b0e:	4501                	li	a0,0
    3b10:	0141                	addi	sp,sp,16
    3b12:	8082                	ret

00003b14 <rt_interrupt_enter>:
    3b14:	1101                	addi	sp,sp,-32
    3b16:	ce06                	sw	ra,28(sp)
    3b18:	9bfff0ef          	jal	ra,34d6 <rt_hw_interrupt_disable>
    3b1c:	83c18713          	addi	a4,gp,-1988 # 200001fc <rt_interrupt_enter_hook>
    3b20:	8441c783          	lbu	a5,-1980(gp) # 20000204 <rt_interrupt_nest>
    3b24:	4318                	lw	a4,0(a4)
    3b26:	0785                	addi	a5,a5,1
    3b28:	84f18223          	sb	a5,-1980(gp) # 20000204 <rt_interrupt_nest>
    3b2c:	c701                	beqz	a4,3b34 <rt_interrupt_enter+0x20>
    3b2e:	c62a                	sw	a0,12(sp)
    3b30:	9702                	jalr	a4
    3b32:	4532                	lw	a0,12(sp)
    3b34:	40f2                	lw	ra,28(sp)
    3b36:	6105                	addi	sp,sp,32
    3b38:	9abff06f          	j	34e2 <rt_hw_interrupt_enable>

00003b3c <rt_interrupt_leave>:
    3b3c:	1101                	addi	sp,sp,-32
    3b3e:	ce06                	sw	ra,28(sp)
    3b40:	997ff0ef          	jal	ra,34d6 <rt_hw_interrupt_disable>
    3b44:	84018713          	addi	a4,gp,-1984 # 20000200 <rt_interrupt_leave_hook>
    3b48:	8441c783          	lbu	a5,-1980(gp) # 20000204 <rt_interrupt_nest>
    3b4c:	4318                	lw	a4,0(a4)
    3b4e:	17fd                	addi	a5,a5,-1
    3b50:	84f18223          	sb	a5,-1980(gp) # 20000204 <rt_interrupt_nest>
    3b54:	c701                	beqz	a4,3b5c <rt_interrupt_leave+0x20>
    3b56:	c62a                	sw	a0,12(sp)
    3b58:	9702                	jalr	a4
    3b5a:	4532                	lw	a0,12(sp)
    3b5c:	40f2                	lw	ra,28(sp)
    3b5e:	6105                	addi	sp,sp,32
    3b60:	983ff06f          	j	34e2 <rt_hw_interrupt_enable>

00003b64 <rt_interrupt_get_nest>:
    3b64:	8441c503          	lbu	a0,-1980(gp) # 20000204 <rt_interrupt_nest>
    3b68:	8082                	ret

00003b6a <print_number>:
    3b6a:	1101                	addi	sp,sp,-32
    3b6c:	ce22                	sw	s0,28(sp)
    3b6e:	cc26                	sw	s1,24(sp)
    3b70:	04087313          	andi	t1,a6,64
    3b74:	88aa                	mv	a7,a0
    3b76:	00004f97          	auipc	t6,0x4
    3b7a:	f0af8f93          	addi	t6,t6,-246 # 7a80 <small_digits.2584>
    3b7e:	00030663          	beqz	t1,3b8a <print_number+0x20>
    3b82:	00004f97          	auipc	t6,0x4
    3b86:	e5af8f93          	addi	t6,t6,-422 # 79dc <large_digits.2585>
    3b8a:	01087393          	andi	t2,a6,16
    3b8e:	14038163          	beqz	t2,3cd0 <print_number+0x166>
    3b92:	ffe87813          	andi	a6,a6,-2
    3b96:	849e                	mv	s1,t2
    3b98:	02000f13          	li	t5,32
    3b9c:	00287513          	andi	a0,a6,2
    3ba0:	14050363          	beqz	a0,3ce6 <print_number+0x17c>
    3ba4:	14064563          	bltz	a2,3cee <print_number+0x184>
    3ba8:	00487513          	andi	a0,a6,4
    3bac:	02b00413          	li	s0,43
    3bb0:	18050d63          	beqz	a0,3d4a <print_number+0x1e0>
    3bb4:	14061163          	bnez	a2,3cf6 <print_number+0x18c>
    3bb8:	03000693          	li	a3,48
    3bbc:	00d10023          	sb	a3,0(sp)
    3bc0:	4301                	li	t1,0
    3bc2:	4e85                	li	t4,1
    3bc4:	8876                	mv	a6,t4
    3bc6:	00fed363          	bge	t4,a5,3bcc <print_number+0x62>
    3bca:	883e                	mv	a6,a5
    3bcc:	41070733          	sub	a4,a4,a6
    3bd0:	fff70e13          	addi	t3,a4,-1
    3bd4:	e0a1                	bnez	s1,3c14 <print_number+0xaa>
    3bd6:	14041a63          	bnez	s0,3d2a <print_number+0x1c0>
    3bda:	18e05863          	blez	a4,3d6a <print_number+0x200>
    3bde:	00188613          	addi	a2,a7,1
    3be2:	8746                	mv	a4,a7
    3be4:	02000513          	li	a0,32
    3be8:	9672                	add	a2,a2,t3
    3bea:	00b77463          	bgeu	a4,a1,3bf2 <print_number+0x88>
    3bee:	00a70023          	sb	a0,0(a4)
    3bf2:	0705                	addi	a4,a4,1
    3bf4:	40e606b3          	sub	a3,a2,a4
    3bf8:	fed049e3          	bgtz	a3,3bea <print_number+0x80>
    3bfc:	fffe4693          	not	a3,t3
    3c00:	86fd                	srai	a3,a3,0x1f
    3c02:	00de76b3          	and	a3,t3,a3
    3c06:	fffe0713          	addi	a4,t3,-1
    3c0a:	8f15                	sub	a4,a4,a3
    3c0c:	0685                	addi	a3,a3,1
    3c0e:	98b6                	add	a7,a7,a3
    3c10:	fff70e13          	addi	t3,a4,-1
    3c14:	12041363          	bnez	s0,3d3a <print_number+0x1d0>
    3c18:	02039d63          	bnez	t2,3c52 <print_number+0xe8>
    3c1c:	01c886b3          	add	a3,a7,t3
    3c20:	8646                	mv	a2,a7
    3c22:	0685                	addi	a3,a3,1
    3c24:	14e05063          	blez	a4,3d64 <print_number+0x1fa>
    3c28:	00b67463          	bgeu	a2,a1,3c30 <print_number+0xc6>
    3c2c:	01e60023          	sb	t5,0(a2)
    3c30:	0605                	addi	a2,a2,1
    3c32:	40c68733          	sub	a4,a3,a2
    3c36:	fee049e3          	bgtz	a4,3c28 <print_number+0xbe>
    3c3a:	fffe4693          	not	a3,t3
    3c3e:	86fd                	srai	a3,a3,0x1f
    3c40:	00de76b3          	and	a3,t3,a3
    3c44:	fffe0713          	addi	a4,t3,-1
    3c48:	8f15                	sub	a4,a4,a3
    3c4a:	0685                	addi	a3,a3,1
    3c4c:	98b6                	add	a7,a7,a3
    3c4e:	fff70e13          	addi	t3,a4,-1
    3c52:	41d80533          	sub	a0,a6,t4
    3c56:	9546                	add	a0,a0,a7
    3c58:	03000693          	li	a3,48
    3c5c:	0f0edf63          	bge	t4,a6,3d5a <print_number+0x1f0>
    3c60:	00b8f463          	bgeu	a7,a1,3c68 <print_number+0xfe>
    3c64:	00d88023          	sb	a3,0(a7)
    3c68:	0885                	addi	a7,a7,1
    3c6a:	fea89be3          	bne	a7,a0,3c60 <print_number+0xf6>
    3c6e:	c78d                	beqz	a5,3c98 <print_number+0x12e>
    3c70:	00130813          	addi	a6,t1,1
    3c74:	006106b3          	add	a3,sp,t1
    3c78:	87aa                	mv	a5,a0
    3c7a:	010508b3          	add	a7,a0,a6
    3c7e:	00b7f663          	bgeu	a5,a1,3c8a <print_number+0x120>
    3c82:	0006c603          	lbu	a2,0(a3) # 80000000 <_eusrstack+0x5fff0000>
    3c86:	00c78023          	sb	a2,0(a5)
    3c8a:	0785                	addi	a5,a5,1
    3c8c:	40f88633          	sub	a2,a7,a5
    3c90:	16fd                	addi	a3,a3,-1
    3c92:	fec046e3          	bgtz	a2,3c7e <print_number+0x114>
    3c96:	9542                	add	a0,a0,a6
    3c98:	001e0693          	addi	a3,t3,1
    3c9c:	87aa                	mv	a5,a0
    3c9e:	02000613          	li	a2,32
    3ca2:	96aa                	add	a3,a3,a0
    3ca4:	02e05263          	blez	a4,3cc8 <print_number+0x15e>
    3ca8:	00b7f463          	bgeu	a5,a1,3cb0 <print_number+0x146>
    3cac:	00c78023          	sb	a2,0(a5)
    3cb0:	0785                	addi	a5,a5,1
    3cb2:	40f68733          	sub	a4,a3,a5
    3cb6:	fee049e3          	bgtz	a4,3ca8 <print_number+0x13e>
    3cba:	fffe4713          	not	a4,t3
    3cbe:	877d                	srai	a4,a4,0x1f
    3cc0:	00ee7e33          	and	t3,t3,a4
    3cc4:	0e05                	addi	t3,t3,1
    3cc6:	9572                	add	a0,a0,t3
    3cc8:	4472                	lw	s0,28(sp)
    3cca:	44e2                	lw	s1,24(sp)
    3ccc:	6105                	addi	sp,sp,32
    3cce:	8082                	ret
    3cd0:	00187513          	andi	a0,a6,1
    3cd4:	01187493          	andi	s1,a6,17
    3cd8:	03000f13          	li	t5,48
    3cdc:	ec0510e3          	bnez	a0,3b9c <print_number+0x32>
    3ce0:	02000f13          	li	t5,32
    3ce4:	bd65                	j	3b9c <print_number+0x32>
    3ce6:	4401                	li	s0,0
    3ce8:	ec0608e3          	beqz	a2,3bb8 <print_number+0x4e>
    3cec:	a029                	j	3cf6 <print_number+0x18c>
    3cee:	40c00633          	neg	a2,a2
    3cf2:	02d00413          	li	s0,45
    3cf6:	4301                	li	t1,0
    3cf8:	42a9                	li	t0,10
    3cfa:	a839                	j	3d18 <print_number+0x1ae>
    3cfc:	8211                	srli	a2,a2,0x4
    3cfe:	957e                	add	a0,a0,t6
    3d00:	00054e03          	lbu	t3,0(a0)
    3d04:	00130813          	addi	a6,t1,1
    3d08:	01010533          	add	a0,sp,a6
    3d0c:	ffc50fa3          	sb	t3,-1(a0)
    3d10:	8ec2                	mv	t4,a6
    3d12:	ea0609e3          	beqz	a2,3bc4 <print_number+0x5a>
    3d16:	8342                	mv	t1,a6
    3d18:	00f67513          	andi	a0,a2,15
    3d1c:	fe5690e3          	bne	a3,t0,3cfc <print_number+0x192>
    3d20:	02d67533          	remu	a0,a2,a3
    3d24:	02d65633          	divu	a2,a2,a3
    3d28:	bfd9                	j	3cfe <print_number+0x194>
    3d2a:	02e05a63          	blez	a4,3d5e <print_number+0x1f4>
    3d2e:	4685                	li	a3,1
    3d30:	ffe70e13          	addi	t3,a4,-2
    3d34:	ead715e3          	bne	a4,a3,3bde <print_number+0x74>
    3d38:	5e79                	li	t3,-2
    3d3a:	00b8f463          	bgeu	a7,a1,3d42 <print_number+0x1d8>
    3d3e:	00888023          	sb	s0,0(a7)
    3d42:	8772                	mv	a4,t3
    3d44:	0885                	addi	a7,a7,1
    3d46:	1e7d                	addi	t3,t3,-1
    3d48:	bdc1                	j	3c18 <print_number+0xae>
    3d4a:	00887813          	andi	a6,a6,8
    3d4e:	01003433          	snez	s0,a6
    3d52:	0416                	slli	s0,s0,0x5
    3d54:	e60602e3          	beqz	a2,3bb8 <print_number+0x4e>
    3d58:	bf79                	j	3cf6 <print_number+0x18c>
    3d5a:	8546                	mv	a0,a7
    3d5c:	bf09                	j	3c6e <print_number+0x104>
    3d5e:	ffe70e13          	addi	t3,a4,-2
    3d62:	bfe1                	j	3d3a <print_number+0x1d0>
    3d64:	8772                	mv	a4,t3
    3d66:	1e7d                	addi	t3,t3,-1
    3d68:	b5ed                	j	3c52 <print_number+0xe8>
    3d6a:	ffe70693          	addi	a3,a4,-2
    3d6e:	8772                	mv	a4,t3
    3d70:	8e36                	mv	t3,a3
    3d72:	b55d                	j	3c18 <print_number+0xae>

00003d74 <rt_set_errno>:
    3d74:	1141                	addi	sp,sp,-16
    3d76:	c422                	sw	s0,8(sp)
    3d78:	c606                	sw	ra,12(sp)
    3d7a:	842a                	mv	s0,a0
    3d7c:	33e5                	jal	3b64 <rt_interrupt_get_nest>
    3d7e:	c519                	beqz	a0,3d8c <rt_set_errno+0x18>
    3d80:	8481a423          	sw	s0,-1976(gp) # 20000208 <__rt_errno>
    3d84:	40b2                	lw	ra,12(sp)
    3d86:	4422                	lw	s0,8(sp)
    3d88:	0141                	addi	sp,sp,16
    3d8a:	8082                	ret
    3d8c:	004010ef          	jal	ra,4d90 <rt_thread_self>
    3d90:	d965                	beqz	a0,3d80 <rt_set_errno+0xc>
    3d92:	d900                	sw	s0,48(a0)
    3d94:	40b2                	lw	ra,12(sp)
    3d96:	4422                	lw	s0,8(sp)
    3d98:	0141                	addi	sp,sp,16
    3d9a:	8082                	ret

00003d9c <rt_memset>:
    3d9c:	478d                	li	a5,3
    3d9e:	06c7f263          	bgeu	a5,a2,3e02 <rt_memset+0x66>
    3da2:	00357793          	andi	a5,a0,3
    3da6:	efa5                	bnez	a5,3e1e <rt_memset+0x82>
    3da8:	0ff5f793          	andi	a5,a1,255
    3dac:	00879693          	slli	a3,a5,0x8
    3db0:	8fd5                	or	a5,a5,a3
    3db2:	01079693          	slli	a3,a5,0x10
    3db6:	473d                	li	a4,15
    3db8:	8edd                	or	a3,a3,a5
    3dba:	06c77663          	bgeu	a4,a2,3e26 <rt_memset+0x8a>
    3dbe:	ff060793          	addi	a5,a2,-16
    3dc2:	9bc1                	andi	a5,a5,-16
    3dc4:	07c1                	addi	a5,a5,16
    3dc6:	97aa                	add	a5,a5,a0
    3dc8:	872a                	mv	a4,a0
    3dca:	c314                	sw	a3,0(a4)
    3dcc:	c354                	sw	a3,4(a4)
    3dce:	c714                	sw	a3,8(a4)
    3dd0:	0741                	addi	a4,a4,16
    3dd2:	fed72e23          	sw	a3,-4(a4)
    3dd6:	fee79ae3          	bne	a5,a4,3dca <rt_memset+0x2e>
    3dda:	00c67813          	andi	a6,a2,12
    3dde:	8a3d                	andi	a2,a2,15
    3de0:	02080263          	beqz	a6,3e04 <rt_memset+0x68>
    3de4:	ffc60793          	addi	a5,a2,-4
    3de8:	9bf1                	andi	a5,a5,-4
    3dea:	0791                	addi	a5,a5,4
    3dec:	97ba                	add	a5,a5,a4
    3dee:	0711                	addi	a4,a4,4
    3df0:	fed72e23          	sw	a3,-4(a4)
    3df4:	fef71de3          	bne	a4,a5,3dee <rt_memset+0x52>
    3df8:	8a0d                	andi	a2,a2,3
    3dfa:	fff60713          	addi	a4,a2,-1
    3dfe:	e611                	bnez	a2,3e0a <rt_memset+0x6e>
    3e00:	8082                	ret
    3e02:	87aa                	mv	a5,a0
    3e04:	fff60713          	addi	a4,a2,-1
    3e08:	de65                	beqz	a2,3e00 <rt_memset+0x64>
    3e0a:	0705                	addi	a4,a4,1
    3e0c:	05e2                	slli	a1,a1,0x18
    3e0e:	85e1                	srai	a1,a1,0x18
    3e10:	973e                	add	a4,a4,a5
    3e12:	0785                	addi	a5,a5,1
    3e14:	feb78fa3          	sb	a1,-1(a5)
    3e18:	fee79de3          	bne	a5,a4,3e12 <rt_memset+0x76>
    3e1c:	8082                	ret
    3e1e:	fff60713          	addi	a4,a2,-1
    3e22:	87aa                	mv	a5,a0
    3e24:	b7dd                	j	3e0a <rt_memset+0x6e>
    3e26:	872a                	mv	a4,a0
    3e28:	bf75                	j	3de4 <rt_memset+0x48>

00003e2a <rt_memmove>:
    3e2a:	02a5f263          	bgeu	a1,a0,3e4e <rt_memmove+0x24>
    3e2e:	00c58733          	add	a4,a1,a2
    3e32:	00e57e63          	bgeu	a0,a4,3e4e <rt_memmove+0x24>
    3e36:	00c507b3          	add	a5,a0,a2
    3e3a:	c615                	beqz	a2,3e66 <rt_memmove+0x3c>
    3e3c:	177d                	addi	a4,a4,-1
    3e3e:	00070683          	lb	a3,0(a4)
    3e42:	17fd                	addi	a5,a5,-1
    3e44:	00d78023          	sb	a3,0(a5)
    3e48:	fef51ae3          	bne	a0,a5,3e3c <rt_memmove+0x12>
    3e4c:	8082                	ret
    3e4e:	00c506b3          	add	a3,a0,a2
    3e52:	87aa                	mv	a5,a0
    3e54:	ca11                	beqz	a2,3e68 <rt_memmove+0x3e>
    3e56:	0585                	addi	a1,a1,1
    3e58:	fff58703          	lb	a4,-1(a1)
    3e5c:	0785                	addi	a5,a5,1
    3e5e:	fee78fa3          	sb	a4,-1(a5)
    3e62:	fed79ae3          	bne	a5,a3,3e56 <rt_memmove+0x2c>
    3e66:	8082                	ret
    3e68:	8082                	ret

00003e6a <rt_strncpy>:
    3e6a:	ca15                	beqz	a2,3e9e <rt_strncpy+0x34>
    3e6c:	86aa                	mv	a3,a0
    3e6e:	a029                	j	3e78 <rt_strncpy+0xe>
    3e70:	8642                	mv	a2,a6
    3e72:	86be                	mv	a3,a5
    3e74:	02080563          	beqz	a6,3e9e <rt_strncpy+0x34>
    3e78:	0585                	addi	a1,a1,1
    3e7a:	fff58703          	lb	a4,-1(a1)
    3e7e:	00168793          	addi	a5,a3,1
    3e82:	fff60813          	addi	a6,a2,-1
    3e86:	fee78fa3          	sb	a4,-1(a5)
    3e8a:	f37d                	bnez	a4,3e70 <rt_strncpy+0x6>
    3e8c:	00080963          	beqz	a6,3e9e <rt_strncpy+0x34>
    3e90:	9636                	add	a2,a2,a3
    3e92:	0785                	addi	a5,a5,1
    3e94:	fe078fa3          	sb	zero,-1(a5)
    3e98:	fec79de3          	bne	a5,a2,3e92 <rt_strncpy+0x28>
    3e9c:	8082                	ret
    3e9e:	8082                	ret

00003ea0 <rt_strncmp>:
    3ea0:	ce15                	beqz	a2,3edc <rt_strncmp+0x3c>
    3ea2:	00050683          	lb	a3,0(a0)
    3ea6:	0005c783          	lbu	a5,0(a1)
    3eaa:	00158713          	addi	a4,a1,1
    3eae:	40f687b3          	sub	a5,a3,a5
    3eb2:	07e2                	slli	a5,a5,0x18
    3eb4:	87e1                	srai	a5,a5,0x18
    3eb6:	e78d                	bnez	a5,3ee0 <rt_strncmp+0x40>
    3eb8:	00150793          	addi	a5,a0,1
    3ebc:	c285                	beqz	a3,3edc <rt_strncmp+0x3c>
    3ebe:	962e                	add	a2,a2,a1
    3ec0:	00e60e63          	beq	a2,a4,3edc <rt_strncmp+0x3c>
    3ec4:	0705                	addi	a4,a4,1
    3ec6:	00078683          	lb	a3,0(a5)
    3eca:	fff74503          	lbu	a0,-1(a4)
    3ece:	0785                	addi	a5,a5,1
    3ed0:	40a68533          	sub	a0,a3,a0
    3ed4:	0562                	slli	a0,a0,0x18
    3ed6:	8561                	srai	a0,a0,0x18
    3ed8:	e119                	bnez	a0,3ede <rt_strncmp+0x3e>
    3eda:	f2fd                	bnez	a3,3ec0 <rt_strncmp+0x20>
    3edc:	4501                	li	a0,0
    3ede:	8082                	ret
    3ee0:	853e                	mv	a0,a5
    3ee2:	8082                	ret

00003ee4 <rt_strlen>:
    3ee4:	00050783          	lb	a5,0(a0)
    3ee8:	cb89                	beqz	a5,3efa <rt_strlen+0x16>
    3eea:	87aa                	mv	a5,a0
    3eec:	0785                	addi	a5,a5,1
    3eee:	00078703          	lb	a4,0(a5)
    3ef2:	ff6d                	bnez	a4,3eec <rt_strlen+0x8>
    3ef4:	40a78533          	sub	a0,a5,a0
    3ef8:	8082                	ret
    3efa:	4501                	li	a0,0
    3efc:	8082                	ret

00003efe <rt_vsnprintf>:
    3efe:	7179                	addi	sp,sp,-48
    3f00:	ca56                	sw	s5,20(sp)
    3f02:	c85a                	sw	s6,16(sp)
    3f04:	c65e                	sw	s7,12(sp)
    3f06:	d606                	sw	ra,44(sp)
    3f08:	d422                	sw	s0,40(sp)
    3f0a:	d226                	sw	s1,36(sp)
    3f0c:	d04a                	sw	s2,32(sp)
    3f0e:	ce4e                	sw	s3,28(sp)
    3f10:	cc52                	sw	s4,24(sp)
    3f12:	c462                	sw	s8,8(sp)
    3f14:	00b50ab3          	add	s5,a0,a1
    3f18:	8b2a                	mv	s6,a0
    3f1a:	8336                	mv	t1,a3
    3f1c:	8bae                	mv	s7,a1
    3f1e:	00aaf563          	bgeu	s5,a0,3f28 <rt_vsnprintf+0x2a>
    3f22:	fff54b93          	not	s7,a0
    3f26:	5afd                	li	s5,-1
    3f28:	00060783          	lb	a5,0(a2)
    3f2c:	855a                	mv	a0,s6
    3f2e:	3a078d63          	beqz	a5,42e8 <rt_vsnprintf+0x3ea>
    3f32:	6941                	lui	s2,0x10
    3f34:	02b00493          	li	s1,43
    3f38:	02000993          	li	s3,32
    3f3c:	02300a13          	li	s4,35
    3f40:	197d                	addi	s2,s2,-1
    3f42:	02500713          	li	a4,37
    3f46:	04e78063          	beq	a5,a4,3f86 <rt_vsnprintf+0x88>
    3f4a:	01557463          	bgeu	a0,s5,3f52 <rt_vsnprintf+0x54>
    3f4e:	00f50023          	sb	a5,0(a0)
    3f52:	00160783          	lb	a5,1(a2)
    3f56:	0505                	addi	a0,a0,1
    3f58:	0605                	addi	a2,a2,1
    3f5a:	f7e5                	bnez	a5,3f42 <rt_vsnprintf+0x44>
    3f5c:	41650b33          	sub	s6,a0,s6
    3f60:	000b8663          	beqz	s7,3f6c <rt_vsnprintf+0x6e>
    3f64:	2d557763          	bgeu	a0,s5,4232 <rt_vsnprintf+0x334>
    3f68:	00050023          	sb	zero,0(a0)
    3f6c:	50b2                	lw	ra,44(sp)
    3f6e:	5422                	lw	s0,40(sp)
    3f70:	855a                	mv	a0,s6
    3f72:	5492                	lw	s1,36(sp)
    3f74:	5902                	lw	s2,32(sp)
    3f76:	49f2                	lw	s3,28(sp)
    3f78:	4a62                	lw	s4,24(sp)
    3f7a:	4ad2                	lw	s5,20(sp)
    3f7c:	4b42                	lw	s6,16(sp)
    3f7e:	4bb2                	lw	s7,12(sp)
    3f80:	4c22                	lw	s8,8(sp)
    3f82:	6145                	addi	sp,sp,48
    3f84:	8082                	ret
    3f86:	00160583          	lb	a1,1(a2)
    3f8a:	02d00793          	li	a5,45
    3f8e:	4801                	li	a6,0
    3f90:	03000713          	li	a4,48
    3f94:	00160413          	addi	s0,a2,1
    3f98:	02f58363          	beq	a1,a5,3fbe <rt_vsnprintf+0xc0>
    3f9c:	02958563          	beq	a1,s1,3fc6 <rt_vsnprintf+0xc8>
    3fa0:	03358763          	beq	a1,s3,3fce <rt_vsnprintf+0xd0>
    3fa4:	03458963          	beq	a1,s4,3fd6 <rt_vsnprintf+0xd8>
    3fa8:	02e59b63          	bne	a1,a4,3fde <rt_vsnprintf+0xe0>
    3fac:	00186813          	ori	a6,a6,1
    3fb0:	8622                	mv	a2,s0
    3fb2:	00160583          	lb	a1,1(a2)
    3fb6:	00160413          	addi	s0,a2,1
    3fba:	fef591e3          	bne	a1,a5,3f9c <rt_vsnprintf+0x9e>
    3fbe:	01086813          	ori	a6,a6,16
    3fc2:	8622                	mv	a2,s0
    3fc4:	b7fd                	j	3fb2 <rt_vsnprintf+0xb4>
    3fc6:	00486813          	ori	a6,a6,4
    3fca:	8622                	mv	a2,s0
    3fcc:	b7dd                	j	3fb2 <rt_vsnprintf+0xb4>
    3fce:	00886813          	ori	a6,a6,8
    3fd2:	8622                	mv	a2,s0
    3fd4:	bff9                	j	3fb2 <rt_vsnprintf+0xb4>
    3fd6:	02086813          	ori	a6,a6,32
    3fda:	8622                	mv	a2,s0
    3fdc:	bfd9                	j	3fb2 <rt_vsnprintf+0xb4>
    3fde:	fd058713          	addi	a4,a1,-48
    3fe2:	47a5                	li	a5,9
    3fe4:	88ae                	mv	a7,a1
    3fe6:	06e7fa63          	bgeu	a5,a4,405a <rt_vsnprintf+0x15c>
    3fea:	02a00793          	li	a5,42
    3fee:	577d                	li	a4,-1
    3ff0:	08f58763          	beq	a1,a5,407e <rt_vsnprintf+0x180>
    3ff4:	02e00693          	li	a3,46
    3ff8:	57fd                	li	a5,-1
    3ffa:	02d58f63          	beq	a1,a3,4038 <rt_vsnprintf+0x13a>
    3ffe:	ffb5f693          	andi	a3,a1,-5
    4002:	06800613          	li	a2,104
    4006:	4881                	li	a7,0
    4008:	00c69763          	bne	a3,a2,4016 <rt_vsnprintf+0x118>
    400c:	0405                	addi	s0,s0,1
    400e:	0ff5f893          	andi	a7,a1,255
    4012:	00040583          	lb	a1,0(s0)
    4016:	fdb58593          	addi	a1,a1,-37
    401a:	0ff5f593          	andi	a1,a1,255
    401e:	05300693          	li	a3,83
    4022:	1eb6e363          	bltu	a3,a1,4208 <rt_vsnprintf+0x30a>
    4026:	00003617          	auipc	a2,0x3
    402a:	76660613          	addi	a2,a2,1894 # 778c <__fsym___cmd_ps_name+0xc0>
    402e:	058a                	slli	a1,a1,0x2
    4030:	95b2                	add	a1,a1,a2
    4032:	4194                	lw	a3,0(a1)
    4034:	96b2                	add	a3,a3,a2
    4036:	8682                	jr	a3
    4038:	00140683          	lb	a3,1(s0)
    403c:	47a5                	li	a5,9
    403e:	00140613          	addi	a2,s0,1
    4042:	fd068893          	addi	a7,a3,-48
    4046:	85b6                	mv	a1,a3
    4048:	1f17f863          	bgeu	a5,a7,4238 <rt_vsnprintf+0x33a>
    404c:	02a00793          	li	a5,42
    4050:	20f68c63          	beq	a3,a5,4268 <rt_vsnprintf+0x36a>
    4054:	8432                	mv	s0,a2
    4056:	4781                	li	a5,0
    4058:	b75d                	j	3ffe <rt_vsnprintf+0x100>
    405a:	4701                	li	a4,0
    405c:	46a5                	li	a3,9
    405e:	00271793          	slli	a5,a4,0x2
    4062:	973e                	add	a4,a4,a5
    4064:	0405                	addi	s0,s0,1
    4066:	0706                	slli	a4,a4,0x1
    4068:	9746                	add	a4,a4,a7
    406a:	00040883          	lb	a7,0(s0)
    406e:	fd070713          	addi	a4,a4,-48
    4072:	fd088793          	addi	a5,a7,-48
    4076:	85c6                	mv	a1,a7
    4078:	fef6f3e3          	bgeu	a3,a5,405e <rt_vsnprintf+0x160>
    407c:	bfa5                	j	3ff4 <rt_vsnprintf+0xf6>
    407e:	00032703          	lw	a4,0(t1)
    4082:	00260413          	addi	s0,a2,2
    4086:	00260583          	lb	a1,2(a2)
    408a:	0311                	addi	t1,t1,4
    408c:	f60754e3          	bgez	a4,3ff4 <rt_vsnprintf+0xf6>
    4090:	40e00733          	neg	a4,a4
    4094:	01086813          	ori	a6,a6,16
    4098:	bfb1                	j	3ff4 <rt_vsnprintf+0xf6>
    409a:	04086813          	ori	a6,a6,64
    409e:	46c1                	li	a3,16
    40a0:	06c00613          	li	a2,108
    40a4:	00430c13          	addi	s8,t1,4
    40a8:	00c88663          	beq	a7,a2,40b4 <rt_vsnprintf+0x1b6>
    40ac:	06800613          	li	a2,104
    40b0:	00c88f63          	beq	a7,a2,40ce <rt_vsnprintf+0x1d0>
    40b4:	00032603          	lw	a2,0(t1)
    40b8:	85d6                	mv	a1,s5
    40ba:	ab1ff0ef          	jal	ra,3b6a <print_number>
    40be:	00140783          	lb	a5,1(s0)
    40c2:	00140613          	addi	a2,s0,1
    40c6:	8362                	mv	t1,s8
    40c8:	e6079de3          	bnez	a5,3f42 <rt_vsnprintf+0x44>
    40cc:	bd41                	j	3f5c <rt_vsnprintf+0x5e>
    40ce:	00287593          	andi	a1,a6,2
    40d2:	00032603          	lw	a2,0(t1)
    40d6:	1a058463          	beqz	a1,427e <rt_vsnprintf+0x380>
    40da:	0642                	slli	a2,a2,0x10
    40dc:	8641                	srai	a2,a2,0x10
    40de:	bfe9                	j	40b8 <rt_vsnprintf+0x1ba>
    40e0:	46a1                	li	a3,8
    40e2:	bf7d                	j	40a0 <rt_vsnprintf+0x1a2>
    40e4:	00286813          	ori	a6,a6,2
    40e8:	46a9                	li	a3,10
    40ea:	bf5d                	j	40a0 <rt_vsnprintf+0x1a2>
    40ec:	46a9                	li	a3,10
    40ee:	bf4d                	j	40a0 <rt_vsnprintf+0x1a2>
    40f0:	00032683          	lw	a3,0(t1)
    40f4:	0311                	addi	t1,t1,4
    40f6:	1e068263          	beqz	a3,42da <rt_vsnprintf+0x3dc>
    40fa:	00068603          	lb	a2,0(a3)
    40fe:	22060163          	beqz	a2,4320 <rt_vsnprintf+0x422>
    4102:	00168583          	lb	a1,1(a3)
    4106:	8636                	mv	a2,a3
    4108:	a019                	j	410e <rt_vsnprintf+0x210>
    410a:	00160583          	lb	a1,1(a2)
    410e:	0605                	addi	a2,a2,1
    4110:	fded                	bnez	a1,410a <rt_vsnprintf+0x20c>
    4112:	40d605b3          	sub	a1,a2,a3
    4116:	00f05563          	blez	a5,4120 <rt_vsnprintf+0x222>
    411a:	00b7d363          	bge	a5,a1,4120 <rt_vsnprintf+0x222>
    411e:	85be                	mv	a1,a5
    4120:	01087813          	andi	a6,a6,16
    4124:	fff70613          	addi	a2,a4,-1
    4128:	18080563          	beqz	a6,42b2 <rt_vsnprintf+0x3b4>
    412c:	1eb05863          	blez	a1,431c <rt_vsnprintf+0x41e>
    4130:	00b507b3          	add	a5,a0,a1
    4134:	01557663          	bgeu	a0,s5,4140 <rt_vsnprintf+0x242>
    4138:	00068803          	lb	a6,0(a3)
    413c:	01050023          	sb	a6,0(a0)
    4140:	0505                	addi	a0,a0,1
    4142:	0685                	addi	a3,a3,1
    4144:	fea798e3          	bne	a5,a0,4134 <rt_vsnprintf+0x236>
    4148:	00160693          	addi	a3,a2,1
    414c:	853e                	mv	a0,a5
    414e:	00140613          	addi	a2,s0,1
    4152:	02000813          	li	a6,32
    4156:	96be                	add	a3,a3,a5
    4158:	00e5db63          	bge	a1,a4,416e <rt_vsnprintf+0x270>
    415c:	01557463          	bgeu	a0,s5,4164 <rt_vsnprintf+0x266>
    4160:	01050023          	sb	a6,0(a0)
    4164:	0505                	addi	a0,a0,1
    4166:	40a687b3          	sub	a5,a3,a0
    416a:	fef5c9e3          	blt	a1,a5,415c <rt_vsnprintf+0x25e>
    416e:	00140783          	lb	a5,1(s0)
    4172:	dc0798e3          	bnez	a5,3f42 <rt_vsnprintf+0x44>
    4176:	b3dd                	j	3f5c <rt_vsnprintf+0x5e>
    4178:	56fd                	li	a3,-1
    417a:	10d70963          	beq	a4,a3,428c <rt_vsnprintf+0x38e>
    417e:	00032603          	lw	a2,0(t1)
    4182:	46c1                	li	a3,16
    4184:	85d6                	mv	a1,s5
    4186:	00430c13          	addi	s8,t1,4
    418a:	9e1ff0ef          	jal	ra,3b6a <print_number>
    418e:	00140783          	lb	a5,1(s0)
    4192:	00140613          	addi	a2,s0,1
    4196:	8362                	mv	t1,s8
    4198:	da0795e3          	bnez	a5,3f42 <rt_vsnprintf+0x44>
    419c:	b3c1                	j	3f5c <rt_vsnprintf+0x5e>
    419e:	01087813          	andi	a6,a6,16
    41a2:	fff70693          	addi	a3,a4,-1
    41a6:	0e080763          	beqz	a6,4294 <rt_vsnprintf+0x396>
    41aa:	00430813          	addi	a6,t1,4
    41ae:	01557663          	bgeu	a0,s5,41ba <rt_vsnprintf+0x2bc>
    41b2:	00032783          	lw	a5,0(t1)
    41b6:	00f50023          	sb	a5,0(a0)
    41ba:	00150593          	addi	a1,a0,1
    41be:	00168793          	addi	a5,a3,1
    41c2:	953e                	add	a0,a0,a5
    41c4:	00140613          	addi	a2,s0,1
    41c8:	87ae                	mv	a5,a1
    41ca:	02000713          	li	a4,32
    41ce:	12d05b63          	blez	a3,4304 <rt_vsnprintf+0x406>
    41d2:	0157f463          	bgeu	a5,s5,41da <rt_vsnprintf+0x2dc>
    41d6:	00e78023          	sb	a4,0(a5)
    41da:	0785                	addi	a5,a5,1
    41dc:	fef51be3          	bne	a0,a5,41d2 <rt_vsnprintf+0x2d4>
    41e0:	00140783          	lb	a5,1(s0)
    41e4:	00d58533          	add	a0,a1,a3
    41e8:	8342                	mv	t1,a6
    41ea:	d4079ce3          	bnez	a5,3f42 <rt_vsnprintf+0x44>
    41ee:	b3bd                	j	3f5c <rt_vsnprintf+0x5e>
    41f0:	01557663          	bgeu	a0,s5,41fc <rt_vsnprintf+0x2fe>
    41f4:	02500793          	li	a5,37
    41f8:	00f50023          	sb	a5,0(a0)
    41fc:	0505                	addi	a0,a0,1
    41fe:	00140613          	addi	a2,s0,1
    4202:	00140783          	lb	a5,1(s0)
    4206:	b7b5                	j	4172 <rt_vsnprintf+0x274>
    4208:	01557663          	bgeu	a0,s5,4214 <rt_vsnprintf+0x316>
    420c:	02500793          	li	a5,37
    4210:	00f50023          	sb	a5,0(a0)
    4214:	00040783          	lb	a5,0(s0)
    4218:	00150713          	addi	a4,a0,1
    421c:	c7a5                	beqz	a5,4284 <rt_vsnprintf+0x386>
    421e:	01577463          	bgeu	a4,s5,4226 <rt_vsnprintf+0x328>
    4222:	00f500a3          	sb	a5,1(a0)
    4226:	0509                	addi	a0,a0,2
    4228:	00140613          	addi	a2,s0,1
    422c:	00140783          	lb	a5,1(s0)
    4230:	b789                	j	4172 <rt_vsnprintf+0x274>
    4232:	fe0a8fa3          	sb	zero,-1(s5)
    4236:	bb1d                	j	3f6c <rt_vsnprintf+0x6e>
    4238:	4881                	li	a7,0
    423a:	4ea5                	li	t4,9
    423c:	0605                	addi	a2,a2,1
    423e:	00289793          	slli	a5,a7,0x2
    4242:	00060583          	lb	a1,0(a2)
    4246:	97c6                	add	a5,a5,a7
    4248:	0786                	slli	a5,a5,0x1
    424a:	97b6                	add	a5,a5,a3
    424c:	fd058e13          	addi	t3,a1,-48
    4250:	fd078893          	addi	a7,a5,-48
    4254:	86ae                	mv	a3,a1
    4256:	ffcef3e3          	bgeu	t4,t3,423c <rt_vsnprintf+0x33e>
    425a:	fff8c793          	not	a5,a7
    425e:	87fd                	srai	a5,a5,0x1f
    4260:	00f8f7b3          	and	a5,a7,a5
    4264:	8432                	mv	s0,a2
    4266:	bb61                	j	3ffe <rt_vsnprintf+0x100>
    4268:	00032783          	lw	a5,0(t1)
    426c:	00240583          	lb	a1,2(s0)
    4270:	0311                	addi	t1,t1,4
    4272:	fff7c693          	not	a3,a5
    4276:	86fd                	srai	a3,a3,0x1f
    4278:	8ff5                	and	a5,a5,a3
    427a:	0409                	addi	s0,s0,2
    427c:	b349                	j	3ffe <rt_vsnprintf+0x100>
    427e:	01267633          	and	a2,a2,s2
    4282:	bd1d                	j	40b8 <rt_vsnprintf+0x1ba>
    4284:	853a                	mv	a0,a4
    4286:	41650b33          	sub	s6,a0,s6
    428a:	b9d9                	j	3f60 <rt_vsnprintf+0x62>
    428c:	00186813          	ori	a6,a6,1
    4290:	4721                	li	a4,8
    4292:	b5f5                	j	417e <rt_vsnprintf+0x280>
    4294:	00d507b3          	add	a5,a0,a3
    4298:	02000613          	li	a2,32
    429c:	04d05a63          	blez	a3,42f0 <rt_vsnprintf+0x3f2>
    42a0:	01557463          	bgeu	a0,s5,42a8 <rt_vsnprintf+0x3aa>
    42a4:	00c50023          	sb	a2,0(a0)
    42a8:	0505                	addi	a0,a0,1
    42aa:	fea79be3          	bne	a5,a0,42a0 <rt_vsnprintf+0x3a2>
    42ae:	56fd                	li	a3,-1
    42b0:	bded                	j	41aa <rt_vsnprintf+0x2ac>
    42b2:	40b707b3          	sub	a5,a4,a1
    42b6:	97aa                	add	a5,a5,a0
    42b8:	02000813          	li	a6,32
    42bc:	04e5db63          	bge	a1,a4,4312 <rt_vsnprintf+0x414>
    42c0:	01557463          	bgeu	a0,s5,42c8 <rt_vsnprintf+0x3ca>
    42c4:	01050023          	sb	a6,0(a0)
    42c8:	0505                	addi	a0,a0,1
    42ca:	fef51be3          	bne	a0,a5,42c0 <rt_vsnprintf+0x3c2>
    42ce:	40e58733          	sub	a4,a1,a4
    42d2:	9732                	add	a4,a4,a2
    42d4:	fff70613          	addi	a2,a4,-1
    42d8:	bd91                	j	412c <rt_vsnprintf+0x22e>
    42da:	04e00593          	li	a1,78
    42de:	00003697          	auipc	a3,0x3
    42e2:	79a68693          	addi	a3,a3,1946 # 7a78 <large_digits.2585+0x9c>
    42e6:	b505                	j	4106 <rt_vsnprintf+0x208>
    42e8:	4b01                	li	s6,0
    42ea:	c80b81e3          	beqz	s7,3f6c <rt_vsnprintf+0x6e>
    42ee:	b99d                	j	3f64 <rt_vsnprintf+0x66>
    42f0:	ffe70693          	addi	a3,a4,-2
    42f4:	00430813          	addi	a6,t1,4
    42f8:	eb556de3          	bltu	a0,s5,41b2 <rt_vsnprintf+0x2b4>
    42fc:	00150593          	addi	a1,a0,1
    4300:	00140613          	addi	a2,s0,1
    4304:	00140783          	lb	a5,1(s0)
    4308:	8342                	mv	t1,a6
    430a:	852e                	mv	a0,a1
    430c:	c2079be3          	bnez	a5,3f42 <rt_vsnprintf+0x44>
    4310:	b1b1                	j	3f5c <rt_vsnprintf+0x5e>
    4312:	ffe70793          	addi	a5,a4,-2
    4316:	8732                	mv	a4,a2
    4318:	863e                	mv	a2,a5
    431a:	bd09                	j	412c <rt_vsnprintf+0x22e>
    431c:	87aa                	mv	a5,a0
    431e:	b52d                	j	4148 <rt_vsnprintf+0x24a>
    4320:	4581                	li	a1,0
    4322:	bbd5                	j	4116 <rt_vsnprintf+0x218>

00004324 <rt_console_get_device>:
    4324:	84c18793          	addi	a5,gp,-1972 # 2000020c <_console_device>
    4328:	4388                	lw	a0,0(a5)
    432a:	8082                	ret

0000432c <rt_console_set_device>:
    432c:	1141                	addi	sp,sp,-16
    432e:	c226                	sw	s1,4(sp)
    4330:	84c18493          	addi	s1,gp,-1972 # 2000020c <_console_device>
    4334:	c04a                	sw	s2,0(sp)
    4336:	c606                	sw	ra,12(sp)
    4338:	c422                	sw	s0,8(sp)
    433a:	0004a903          	lw	s2,0(s1)
    433e:	b3cff0ef          	jal	ra,367a <rt_device_find>
    4342:	cd09                	beqz	a0,435c <rt_console_set_device+0x30>
    4344:	842a                	mv	s0,a0
    4346:	4088                	lw	a0,0(s1)
    4348:	c119                	beqz	a0,434e <rt_console_set_device+0x22>
    434a:	c82ff0ef          	jal	ra,37cc <rt_device_close>
    434e:	04300593          	li	a1,67
    4352:	8522                	mv	a0,s0
    4354:	bdcff0ef          	jal	ra,3730 <rt_device_open>
    4358:	8481a623          	sw	s0,-1972(gp) # 2000020c <_console_device>
    435c:	40b2                	lw	ra,12(sp)
    435e:	4422                	lw	s0,8(sp)
    4360:	854a                	mv	a0,s2
    4362:	4492                	lw	s1,4(sp)
    4364:	4902                	lw	s2,0(sp)
    4366:	0141                	addi	sp,sp,16
    4368:	8082                	ret

0000436a <rt_hw_console_output>:
    436a:	8082                	ret

0000436c <rt_kprintf>:
    436c:	7139                	addi	sp,sp,-64
    436e:	02410313          	addi	t1,sp,36
    4372:	d22e                	sw	a1,36(sp)
    4374:	d432                	sw	a2,40(sp)
    4376:	d636                	sw	a3,44(sp)
    4378:	862a                	mv	a2,a0
    437a:	869a                	mv	a3,t1
    437c:	07f00593          	li	a1,127
    4380:	1fffd517          	auipc	a0,0x1fffd
    4384:	2d450513          	addi	a0,a0,724 # 20001654 <rt_log_buf.2695>
    4388:	cc22                	sw	s0,24(sp)
    438a:	ce06                	sw	ra,28(sp)
    438c:	ca26                	sw	s1,20(sp)
    438e:	84c18413          	addi	s0,gp,-1972 # 2000020c <_console_device>
    4392:	d83a                	sw	a4,48(sp)
    4394:	da3e                	sw	a5,52(sp)
    4396:	dc42                	sw	a6,56(sp)
    4398:	de46                	sw	a7,60(sp)
    439a:	c61a                	sw	t1,12(sp)
    439c:	b63ff0ef          	jal	ra,3efe <rt_vsnprintf>
    43a0:	86aa                	mv	a3,a0
    43a2:	4008                	lw	a0,0(s0)
    43a4:	cd0d                	beqz	a0,43de <rt_kprintf+0x72>
    43a6:	01a55483          	lhu	s1,26(a0)
    43aa:	07f00793          	li	a5,127
    43ae:	0404e713          	ori	a4,s1,64
    43b2:	00e51d23          	sh	a4,26(a0)
    43b6:	02d7e163          	bltu	a5,a3,43d8 <rt_kprintf+0x6c>
    43ba:	1fffd617          	auipc	a2,0x1fffd
    43be:	29a60613          	addi	a2,a2,666 # 20001654 <rt_log_buf.2695>
    43c2:	4581                	li	a1,0
    43c4:	c84ff0ef          	jal	ra,3848 <rt_device_write>
    43c8:	401c                	lw	a5,0(s0)
    43ca:	40f2                	lw	ra,28(sp)
    43cc:	4462                	lw	s0,24(sp)
    43ce:	00979d23          	sh	s1,26(a5)
    43d2:	44d2                	lw	s1,20(sp)
    43d4:	6121                	addi	sp,sp,64
    43d6:	8082                	ret
    43d8:	07f00693          	li	a3,127
    43dc:	bff9                	j	43ba <rt_kprintf+0x4e>
    43de:	1fffd517          	auipc	a0,0x1fffd
    43e2:	27650513          	addi	a0,a0,630 # 20001654 <rt_log_buf.2695>
    43e6:	3751                	jal	436a <rt_hw_console_output>
    43e8:	40f2                	lw	ra,28(sp)
    43ea:	4462                	lw	s0,24(sp)
    43ec:	44d2                	lw	s1,20(sp)
    43ee:	6121                	addi	sp,sp,64
    43f0:	8082                	ret

000043f2 <rt_show_version>:
    43f2:	1141                	addi	sp,sp,-16
    43f4:	00003517          	auipc	a0,0x3
    43f8:	5fc50513          	addi	a0,a0,1532 # 79f0 <large_digits.2585+0x14>
    43fc:	c606                	sw	ra,12(sp)
    43fe:	37bd                	jal	436c <rt_kprintf>
    4400:	00003517          	auipc	a0,0x3
    4404:	5fc50513          	addi	a0,a0,1532 # 79fc <large_digits.2585+0x20>
    4408:	3795                	jal	436c <rt_kprintf>
    440a:	00003517          	auipc	a0,0x3
    440e:	62250513          	addi	a0,a0,1570 # 7a2c <large_digits.2585+0x50>
    4412:	00003717          	auipc	a4,0x3
    4416:	60e70713          	addi	a4,a4,1550 # 7a20 <large_digits.2585+0x44>
    441a:	468d                	li	a3,3
    441c:	4605                	li	a2,1
    441e:	458d                	li	a1,3
    4420:	37b1                	jal	436c <rt_kprintf>
    4422:	40b2                	lw	ra,12(sp)
    4424:	00003517          	auipc	a0,0x3
    4428:	62850513          	addi	a0,a0,1576 # 7a4c <large_digits.2585+0x70>
    442c:	0141                	addi	sp,sp,16
    442e:	bf3d                	j	436c <rt_kprintf>

00004430 <__rt_ffs>:
    4430:	c121                	beqz	a0,4470 <__rt_ffs+0x40>
    4432:	0ff57793          	andi	a5,a0,255
    4436:	e785                	bnez	a5,445e <__rt_ffs+0x2e>
    4438:	67c1                	lui	a5,0x10
    443a:	f0078793          	addi	a5,a5,-256 # ff00 <__rt_init_end+0x8154>
    443e:	8fe9                	and	a5,a5,a0
    4440:	e7b1                	bnez	a5,448c <__rt_ffs+0x5c>
    4442:	00ff07b7          	lui	a5,0xff0
    4446:	8fe9                	and	a5,a5,a0
    4448:	e795                	bnez	a5,4474 <__rt_ffs+0x44>
    444a:	00003797          	auipc	a5,0x3
    444e:	49278793          	addi	a5,a5,1170 # 78dc <__lowest_bit_bitmap>
    4452:	8161                	srli	a0,a0,0x18
    4454:	953e                	add	a0,a0,a5
    4456:	00054503          	lbu	a0,0(a0)
    445a:	0565                	addi	a0,a0,25
    445c:	8082                	ret
    445e:	00003717          	auipc	a4,0x3
    4462:	47e70713          	addi	a4,a4,1150 # 78dc <__lowest_bit_bitmap>
    4466:	97ba                	add	a5,a5,a4
    4468:	0007c503          	lbu	a0,0(a5)
    446c:	0505                	addi	a0,a0,1
    446e:	8082                	ret
    4470:	4501                	li	a0,0
    4472:	8082                	ret
    4474:	8541                	srai	a0,a0,0x10
    4476:	00003797          	auipc	a5,0x3
    447a:	46678793          	addi	a5,a5,1126 # 78dc <__lowest_bit_bitmap>
    447e:	0ff57513          	andi	a0,a0,255
    4482:	953e                	add	a0,a0,a5
    4484:	00054503          	lbu	a0,0(a0)
    4488:	0545                	addi	a0,a0,17
    448a:	8082                	ret
    448c:	8521                	srai	a0,a0,0x8
    448e:	00003797          	auipc	a5,0x3
    4492:	44e78793          	addi	a5,a5,1102 # 78dc <__lowest_bit_bitmap>
    4496:	0ff57513          	andi	a0,a0,255
    449a:	953e                	add	a0,a0,a5
    449c:	00054503          	lbu	a0,0(a0)
    44a0:	0525                	addi	a0,a0,9
    44a2:	8082                	ret

000044a4 <plug_holes>:
    44a4:	85418793          	addi	a5,gp,-1964 # 20000214 <heap_ptr>
    44a8:	4398                	lw	a4,0(a5)
    44aa:	415c                	lw	a5,4(a0)
    44ac:	97ba                	add	a5,a5,a4
    44ae:	02f50663          	beq	a0,a5,44da <plug_holes+0x36>
    44b2:	0027d683          	lhu	a3,2(a5)
    44b6:	e295                	bnez	a3,44da <plug_holes+0x36>
    44b8:	85018693          	addi	a3,gp,-1968 # 20000210 <heap_end>
    44bc:	4294                	lw	a3,0(a3)
    44be:	00f68e63          	beq	a3,a5,44da <plug_holes+0x36>
    44c2:	85818693          	addi	a3,gp,-1960 # 20000218 <lfree>
    44c6:	4294                	lw	a3,0(a3)
    44c8:	02f68c63          	beq	a3,a5,4500 <plug_holes+0x5c>
    44cc:	43d0                	lw	a2,4(a5)
    44ce:	40e506b3          	sub	a3,a0,a4
    44d2:	c150                	sw	a2,4(a0)
    44d4:	43dc                	lw	a5,4(a5)
    44d6:	97ba                	add	a5,a5,a4
    44d8:	c794                	sw	a3,8(a5)
    44da:	4514                	lw	a3,8(a0)
    44dc:	00d707b3          	add	a5,a4,a3
    44e0:	00f50f63          	beq	a0,a5,44fe <plug_holes+0x5a>
    44e4:	0027d603          	lhu	a2,2(a5)
    44e8:	ea19                	bnez	a2,44fe <plug_holes+0x5a>
    44ea:	85818613          	addi	a2,gp,-1960 # 20000218 <lfree>
    44ee:	4210                	lw	a2,0(a2)
    44f0:	00a60b63          	beq	a2,a0,4506 <plug_holes+0x62>
    44f4:	4150                	lw	a2,4(a0)
    44f6:	c3d0                	sw	a2,4(a5)
    44f8:	415c                	lw	a5,4(a0)
    44fa:	973e                	add	a4,a4,a5
    44fc:	c714                	sw	a3,8(a4)
    44fe:	8082                	ret
    4500:	84a1ac23          	sw	a0,-1960(gp) # 20000218 <lfree>
    4504:	b7e1                	j	44cc <plug_holes+0x28>
    4506:	84f1ac23          	sw	a5,-1960(gp) # 20000218 <lfree>
    450a:	b7ed                	j	44f4 <plug_holes+0x50>

0000450c <list_mem>:
    450c:	86018793          	addi	a5,gp,-1952 # 20000220 <mem_size_aligned>
    4510:	438c                	lw	a1,0(a5)
    4512:	1141                	addi	sp,sp,-16
    4514:	00003517          	auipc	a0,0x3
    4518:	58050513          	addi	a0,a0,1408 # 7a94 <small_digits.2584+0x14>
    451c:	c606                	sw	ra,12(sp)
    451e:	35b9                	jal	436c <rt_kprintf>
    4520:	86c18793          	addi	a5,gp,-1940 # 2000022c <used_mem>
    4524:	438c                	lw	a1,0(a5)
    4526:	00003517          	auipc	a0,0x3
    452a:	58250513          	addi	a0,a0,1410 # 7aa8 <small_digits.2584+0x28>
    452e:	3d3d                	jal	436c <rt_kprintf>
    4530:	85c18793          	addi	a5,gp,-1956 # 2000021c <max_mem>
    4534:	40b2                	lw	ra,12(sp)
    4536:	438c                	lw	a1,0(a5)
    4538:	00003517          	auipc	a0,0x3
    453c:	58450513          	addi	a0,a0,1412 # 7abc <small_digits.2584+0x3c>
    4540:	0141                	addi	sp,sp,16
    4542:	e2bff06f          	j	436c <rt_kprintf>

00004546 <rt_system_heap_init>:
    4546:	ffc5f713          	andi	a4,a1,-4
    454a:	46e1                	li	a3,24
    454c:	00e6f963          	bgeu	a3,a4,455e <rt_system_heap_init+0x18>
    4550:	00350793          	addi	a5,a0,3
    4554:	9bf1                	andi	a5,a5,-4
    4556:	fe870693          	addi	a3,a4,-24
    455a:	00f6fa63          	bgeu	a3,a5,456e <rt_system_heap_init+0x28>
    455e:	862e                	mv	a2,a1
    4560:	85aa                	mv	a1,a0
    4562:	00003517          	auipc	a0,0x3
    4566:	5fa50513          	addi	a0,a0,1530 # 7b5c <__fsym_list_mem_name+0x60>
    456a:	e03ff06f          	j	436c <rt_kprintf>
    456e:	1141                	addi	sp,sp,-16
    4570:	6609                	lui	a2,0x2
    4572:	c606                	sw	ra,12(sp)
    4574:	8f1d                	sub	a4,a4,a5
    4576:	ea060613          	addi	a2,a2,-352 # 1ea0 <rt_serial_control+0x78>
    457a:	c390                	sw	a2,0(a5)
    457c:	ff470693          	addi	a3,a4,-12
    4580:	6649                	lui	a2,0x12
    4582:	00d78833          	add	a6,a5,a3
    4586:	c3d4                	sw	a3,4(a5)
    4588:	0007a423          	sw	zero,8(a5)
    458c:	ea060613          	addi	a2,a2,-352 # 11ea0 <__rt_init_end+0xa0f4>
    4590:	1721                	addi	a4,a4,-24
    4592:	00c82023          	sw	a2,0(a6)
    4596:	00d82223          	sw	a3,4(a6)
    459a:	00d82423          	sw	a3,8(a6)
    459e:	4605                	li	a2,1
    45a0:	4681                	li	a3,0
    45a2:	00003597          	auipc	a1,0x3
    45a6:	5b258593          	addi	a1,a1,1458 # 7b54 <__fsym_list_mem_name+0x58>
    45aa:	1fffd517          	auipc	a0,0x1fffd
    45ae:	12a50513          	addi	a0,a0,298 # 200016d4 <heap_sem>
    45b2:	86e1a023          	sw	a4,-1952(gp) # 20000220 <mem_size_aligned>
    45b6:	84f1aa23          	sw	a5,-1964(gp) # 20000214 <heap_ptr>
    45ba:	8501a823          	sw	a6,-1968(gp) # 20000210 <heap_end>
    45be:	bc8ff0ef          	jal	ra,3986 <rt_sem_init>
    45c2:	85418793          	addi	a5,gp,-1964 # 20000214 <heap_ptr>
    45c6:	439c                	lw	a5,0(a5)
    45c8:	40b2                	lw	ra,12(sp)
    45ca:	84f1ac23          	sw	a5,-1960(gp) # 20000218 <lfree>
    45ce:	0141                	addi	sp,sp,16
    45d0:	8082                	ret

000045d2 <rt_malloc>:
    45d2:	1141                	addi	sp,sp,-16
    45d4:	c606                	sw	ra,12(sp)
    45d6:	c422                	sw	s0,8(sp)
    45d8:	c226                	sw	s1,4(sp)
    45da:	c141                	beqz	a0,465a <rt_malloc+0x88>
    45dc:	86018413          	addi	s0,gp,-1952 # 20000220 <mem_size_aligned>
    45e0:	401c                	lw	a5,0(s0)
    45e2:	00350493          	addi	s1,a0,3
    45e6:	98f1                	andi	s1,s1,-4
    45e8:	0697e963          	bltu	a5,s1,465a <rt_malloc+0x88>
    45ec:	47b1                	li	a5,12
    45ee:	06f4e463          	bltu	s1,a5,4656 <rt_malloc+0x84>
    45f2:	55fd                	li	a1,-1
    45f4:	1fffd517          	auipc	a0,0x1fffd
    45f8:	0e050513          	addi	a0,a0,224 # 200016d4 <heap_sem>
    45fc:	bc0ff0ef          	jal	ra,39bc <rt_sem_take>
    4600:	85818793          	addi	a5,gp,-1960 # 20000218 <lfree>
    4604:	0007a803          	lw	a6,0(a5)
    4608:	85418793          	addi	a5,gp,-1964 # 20000214 <heap_ptr>
    460c:	4390                	lw	a2,0(a5)
    460e:	00042883          	lw	a7,0(s0)
    4612:	40c807b3          	sub	a5,a6,a2
    4616:	409885b3          	sub	a1,a7,s1
    461a:	02b7f163          	bgeu	a5,a1,463c <rt_malloc+0x6a>
    461e:	00f60433          	add	s0,a2,a5
    4622:	00245683          	lhu	a3,2(s0)
    4626:	4058                	lw	a4,4(s0)
    4628:	e699                	bnez	a3,4636 <rt_malloc+0x64>
    462a:	40f706b3          	sub	a3,a4,a5
    462e:	ff468513          	addi	a0,a3,-12
    4632:	02957b63          	bgeu	a0,s1,4668 <rt_malloc+0x96>
    4636:	87ba                	mv	a5,a4
    4638:	feb763e3          	bltu	a4,a1,461e <rt_malloc+0x4c>
    463c:	1fffd517          	auipc	a0,0x1fffd
    4640:	09850513          	addi	a0,a0,152 # 200016d4 <heap_sem>
    4644:	c74ff0ef          	jal	ra,3ab8 <rt_sem_release>
    4648:	4401                	li	s0,0
    464a:	8522                	mv	a0,s0
    464c:	40b2                	lw	ra,12(sp)
    464e:	4422                	lw	s0,8(sp)
    4650:	4492                	lw	s1,4(sp)
    4652:	0141                	addi	sp,sp,16
    4654:	8082                	ret
    4656:	44b1                	li	s1,12
    4658:	bf69                	j	45f2 <rt_malloc+0x20>
    465a:	4401                	li	s0,0
    465c:	8522                	mv	a0,s0
    465e:	40b2                	lw	ra,12(sp)
    4660:	4422                	lw	s0,8(sp)
    4662:	4492                	lw	s1,4(sp)
    4664:	0141                	addi	sp,sp,16
    4666:	8082                	ret
    4668:	86c18593          	addi	a1,gp,-1940 # 2000022c <used_mem>
    466c:	85c18e13          	addi	t3,gp,-1956 # 2000021c <max_mem>
    4670:	01848313          	addi	t1,s1,24
    4674:	418c                	lw	a1,0(a1)
    4676:	000e2e03          	lw	t3,0(t3)
    467a:	04657763          	bgeu	a0,t1,46c8 <rt_malloc+0xf6>
    467e:	4785                	li	a5,1
    4680:	96ae                	add	a3,a3,a1
    4682:	00f41123          	sh	a5,2(s0)
    4686:	86d1a623          	sw	a3,-1940(gp) # 2000022c <used_mem>
    468a:	00de7463          	bgeu	t3,a3,4692 <rt_malloc+0xc0>
    468e:	84d1ae23          	sw	a3,-1956(gp) # 2000021c <max_mem>
    4692:	6789                	lui	a5,0x2
    4694:	ea078793          	addi	a5,a5,-352 # 1ea0 <rt_serial_control+0x78>
    4698:	00f41023          	sh	a5,0(s0)
    469c:	06880563          	beq	a6,s0,4706 <rt_malloc+0x134>
    46a0:	1fffd517          	auipc	a0,0x1fffd
    46a4:	03450513          	addi	a0,a0,52 # 200016d4 <heap_sem>
    46a8:	c10ff0ef          	jal	ra,3ab8 <rt_sem_release>
    46ac:	86818793          	addi	a5,gp,-1944 # 20000228 <rt_malloc_hook>
    46b0:	439c                	lw	a5,0(a5)
    46b2:	0431                	addi	s0,s0,12
    46b4:	dbd9                	beqz	a5,464a <rt_malloc+0x78>
    46b6:	8522                	mv	a0,s0
    46b8:	85a6                	mv	a1,s1
    46ba:	9782                	jalr	a5
    46bc:	8522                	mv	a0,s0
    46be:	40b2                	lw	ra,12(sp)
    46c0:	4422                	lw	s0,8(sp)
    46c2:	4492                	lw	s1,4(sp)
    46c4:	0141                	addi	sp,sp,16
    46c6:	8082                	ret
    46c8:	00c48693          	addi	a3,s1,12
    46cc:	96be                	add	a3,a3,a5
    46ce:	00d60533          	add	a0,a2,a3
    46d2:	c158                	sw	a4,4(a0)
    46d4:	6709                	lui	a4,0x2
    46d6:	ea070713          	addi	a4,a4,-352 # 1ea0 <rt_serial_control+0x78>
    46da:	c118                	sw	a4,0(a0)
    46dc:	c51c                	sw	a5,8(a0)
    46de:	c054                	sw	a3,4(s0)
    46e0:	415c                	lw	a5,4(a0)
    46e2:	4705                	li	a4,1
    46e4:	00e41123          	sh	a4,2(s0)
    46e8:	08b1                	addi	a7,a7,12
    46ea:	01178463          	beq	a5,a7,46f2 <rt_malloc+0x120>
    46ee:	97b2                	add	a5,a5,a2
    46f0:	c794                	sw	a3,8(a5)
    46f2:	00c58793          	addi	a5,a1,12
    46f6:	97a6                	add	a5,a5,s1
    46f8:	86f1a623          	sw	a5,-1940(gp) # 2000022c <used_mem>
    46fc:	f8fe7be3          	bgeu	t3,a5,4692 <rt_malloc+0xc0>
    4700:	84f1ae23          	sw	a5,-1956(gp) # 2000021c <max_mem>
    4704:	b779                	j	4692 <rt_malloc+0xc0>
    4706:	00285783          	lhu	a5,2(a6)
    470a:	dbd9                	beqz	a5,46a0 <rt_malloc+0xce>
    470c:	85018793          	addi	a5,gp,-1968 # 20000210 <heap_end>
    4710:	4398                	lw	a4,0(a5)
    4712:	00e81563          	bne	a6,a4,471c <rt_malloc+0x14a>
    4716:	b769                	j	46a0 <rt_malloc+0xce>
    4718:	01070b63          	beq	a4,a6,472e <rt_malloc+0x15c>
    471c:	00482803          	lw	a6,4(a6)
    4720:	9832                	add	a6,a6,a2
    4722:	00285783          	lhu	a5,2(a6)
    4726:	fbed                	bnez	a5,4718 <rt_malloc+0x146>
    4728:	8501ac23          	sw	a6,-1960(gp) # 20000218 <lfree>
    472c:	bf95                	j	46a0 <rt_malloc+0xce>
    472e:	84e1ac23          	sw	a4,-1960(gp) # 20000218 <lfree>
    4732:	b7bd                	j	46a0 <rt_malloc+0xce>

00004734 <rt_calloc>:
    4734:	1141                	addi	sp,sp,-16
    4736:	c226                	sw	s1,4(sp)
    4738:	02b504b3          	mul	s1,a0,a1
    473c:	c422                	sw	s0,8(sp)
    473e:	c606                	sw	ra,12(sp)
    4740:	8526                	mv	a0,s1
    4742:	3d41                	jal	45d2 <rt_malloc>
    4744:	842a                	mv	s0,a0
    4746:	c509                	beqz	a0,4750 <rt_calloc+0x1c>
    4748:	8626                	mv	a2,s1
    474a:	4581                	li	a1,0
    474c:	e50ff0ef          	jal	ra,3d9c <rt_memset>
    4750:	8522                	mv	a0,s0
    4752:	40b2                	lw	ra,12(sp)
    4754:	4422                	lw	s0,8(sp)
    4756:	4492                	lw	s1,4(sp)
    4758:	0141                	addi	sp,sp,16
    475a:	8082                	ret

0000475c <rt_free>:
    475c:	0c050a63          	beqz	a0,4830 <rt_free+0xd4>
    4760:	86418793          	addi	a5,gp,-1948 # 20000224 <rt_free_hook>
    4764:	439c                	lw	a5,0(a5)
    4766:	1141                	addi	sp,sp,-16
    4768:	c422                	sw	s0,8(sp)
    476a:	c606                	sw	ra,12(sp)
    476c:	c226                	sw	s1,4(sp)
    476e:	c04a                	sw	s2,0(sp)
    4770:	842a                	mv	s0,a0
    4772:	c391                	beqz	a5,4776 <rt_free+0x1a>
    4774:	9782                	jalr	a5
    4776:	85418913          	addi	s2,gp,-1964 # 20000214 <heap_ptr>
    477a:	00092783          	lw	a5,0(s2) # 10000 <__rt_init_end+0x8254>
    477e:	00f46763          	bltu	s0,a5,478c <rt_free+0x30>
    4782:	85018793          	addi	a5,gp,-1968 # 20000210 <heap_end>
    4786:	439c                	lw	a5,0(a5)
    4788:	00f46863          	bltu	s0,a5,4798 <rt_free+0x3c>
    478c:	40b2                	lw	ra,12(sp)
    478e:	4422                	lw	s0,8(sp)
    4790:	4492                	lw	s1,4(sp)
    4792:	4902                	lw	s2,0(sp)
    4794:	0141                	addi	sp,sp,16
    4796:	8082                	ret
    4798:	55fd                	li	a1,-1
    479a:	1fffd517          	auipc	a0,0x1fffd
    479e:	f3a50513          	addi	a0,a0,-198 # 200016d4 <heap_sem>
    47a2:	a1aff0ef          	jal	ra,39bc <rt_sem_take>
    47a6:	ff645783          	lhu	a5,-10(s0)
    47aa:	ff440493          	addi	s1,s0,-12
    47ae:	cb81                	beqz	a5,47be <rt_free+0x62>
    47b0:	ff445703          	lhu	a4,-12(s0)
    47b4:	6789                	lui	a5,0x2
    47b6:	ea078793          	addi	a5,a5,-352 # 1ea0 <rt_serial_control+0x78>
    47ba:	02f70363          	beq	a4,a5,47e0 <rt_free+0x84>
    47be:	00003517          	auipc	a0,0x3
    47c2:	34a50513          	addi	a0,a0,842 # 7b08 <__fsym_list_mem_name+0xc>
    47c6:	ba7ff0ef          	jal	ra,436c <rt_kprintf>
    47ca:	ff445683          	lhu	a3,-12(s0)
    47ce:	ff645603          	lhu	a2,-10(s0)
    47d2:	85a6                	mv	a1,s1
    47d4:	00003517          	auipc	a0,0x3
    47d8:	35050513          	addi	a0,a0,848 # 7b24 <__fsym_list_mem_name+0x28>
    47dc:	b91ff0ef          	jal	ra,436c <rt_kprintf>
    47e0:	85818793          	addi	a5,gp,-1960 # 20000218 <lfree>
    47e4:	4398                	lw	a4,0(a5)
    47e6:	6789                	lui	a5,0x2
    47e8:	ea078793          	addi	a5,a5,-352 # 1ea0 <rt_serial_control+0x78>
    47ec:	fe041b23          	sh	zero,-10(s0)
    47f0:	fef41a23          	sh	a5,-12(s0)
    47f4:	00e4f463          	bgeu	s1,a4,47fc <rt_free+0xa0>
    47f8:	8491ac23          	sw	s1,-1960(gp) # 20000218 <lfree>
    47fc:	86c18793          	addi	a5,gp,-1940 # 2000022c <used_mem>
    4800:	439c                	lw	a5,0(a5)
    4802:	ff842683          	lw	a3,-8(s0)
    4806:	00092703          	lw	a4,0(s2)
    480a:	8526                	mv	a0,s1
    480c:	8f95                	sub	a5,a5,a3
    480e:	8c99                	sub	s1,s1,a4
    4810:	94be                	add	s1,s1,a5
    4812:	8691a623          	sw	s1,-1940(gp) # 2000022c <used_mem>
    4816:	c8fff0ef          	jal	ra,44a4 <plug_holes>
    481a:	4422                	lw	s0,8(sp)
    481c:	40b2                	lw	ra,12(sp)
    481e:	4492                	lw	s1,4(sp)
    4820:	4902                	lw	s2,0(sp)
    4822:	1fffd517          	auipc	a0,0x1fffd
    4826:	eb250513          	addi	a0,a0,-334 # 200016d4 <heap_sem>
    482a:	0141                	addi	sp,sp,16
    482c:	a8cff06f          	j	3ab8 <rt_sem_release>
    4830:	8082                	ret

00004832 <rt_object_get_information>:
    4832:	1fffc597          	auipc	a1,0x1fffc
    4836:	8ae58593          	addi	a1,a1,-1874 # 200000e0 <rt_object_container>
    483a:	872e                	mv	a4,a1
    483c:	4781                	li	a5,0
    483e:	4621                	li	a2,8
    4840:	4314                	lw	a3,0(a4)
    4842:	0741                	addi	a4,a4,16
    4844:	00a68763          	beq	a3,a0,4852 <rt_object_get_information+0x20>
    4848:	0785                	addi	a5,a5,1
    484a:	fec79be3          	bne	a5,a2,4840 <rt_object_get_information+0xe>
    484e:	4501                	li	a0,0
    4850:	8082                	ret
    4852:	0792                	slli	a5,a5,0x4
    4854:	00f58533          	add	a0,a1,a5
    4858:	8082                	ret

0000485a <rt_object_init>:
    485a:	1101                	addi	sp,sp,-32
    485c:	c84a                	sw	s2,16(sp)
    485e:	1fffc917          	auipc	s2,0x1fffc
    4862:	88290913          	addi	s2,s2,-1918 # 200000e0 <rt_object_container>
    4866:	c64e                	sw	s3,12(sp)
    4868:	c452                	sw	s4,8(sp)
    486a:	c256                	sw	s5,4(sp)
    486c:	ce06                	sw	ra,28(sp)
    486e:	8ab2                	mv	s5,a2
    4870:	cc22                	sw	s0,24(sp)
    4872:	ca26                	sw	s1,20(sp)
    4874:	c05a                	sw	s6,0(sp)
    4876:	8a2a                	mv	s4,a0
    4878:	89ae                	mv	s3,a1
    487a:	874a                	mv	a4,s2
    487c:	4781                	li	a5,0
    487e:	4621                	li	a2,8
    4880:	a029                	j	488a <rt_object_init+0x30>
    4882:	0785                	addi	a5,a5,1
    4884:	0741                	addi	a4,a4,16
    4886:	06c78c63          	beq	a5,a2,48fe <rt_object_init+0xa4>
    488a:	4314                	lw	a3,0(a4)
    488c:	fed99be3          	bne	s3,a3,4882 <rt_object_init+0x28>
    4890:	00479493          	slli	s1,a5,0x4
    4894:	00990b33          	add	s6,s2,s1
    4898:	2e15                	jal	4bcc <rt_enter_critical>
    489a:	004b2403          	lw	s0,4(s6)
    489e:	00448793          	addi	a5,s1,4
    48a2:	97ca                	add	a5,a5,s2
    48a4:	00878563          	beq	a5,s0,48ae <rt_object_init+0x54>
    48a8:	4000                	lw	s0,0(s0)
    48aa:	fe879fe3          	bne	a5,s0,48a8 <rt_object_init+0x4e>
    48ae:	2e35                	jal	4bea <rt_exit_critical>
    48b0:	f809e993          	ori	s3,s3,-128
    48b4:	013a0423          	sb	s3,8(s4)
    48b8:	4621                	li	a2,8
    48ba:	85d6                	mv	a1,s5
    48bc:	8552                	mv	a0,s4
    48be:	dacff0ef          	jal	ra,3e6a <rt_strncpy>
    48c2:	87018793          	addi	a5,gp,-1936 # 20000230 <rt_object_attach_hook>
    48c6:	439c                	lw	a5,0(a5)
    48c8:	c399                	beqz	a5,48ce <rt_object_init+0x74>
    48ca:	8552                	mv	a0,s4
    48cc:	9782                	jalr	a5
    48ce:	c09fe0ef          	jal	ra,34d6 <rt_hw_interrupt_disable>
    48d2:	004b2703          	lw	a4,4(s6)
    48d6:	00ca0793          	addi	a5,s4,12
    48da:	40f2                	lw	ra,28(sp)
    48dc:	c35c                	sw	a5,4(a4)
    48de:	00ea2623          	sw	a4,12(s4)
    48e2:	00fb2223          	sw	a5,4(s6)
    48e6:	008a2823          	sw	s0,16(s4)
    48ea:	4462                	lw	s0,24(sp)
    48ec:	44d2                	lw	s1,20(sp)
    48ee:	4942                	lw	s2,16(sp)
    48f0:	49b2                	lw	s3,12(sp)
    48f2:	4a22                	lw	s4,8(sp)
    48f4:	4a92                	lw	s5,4(sp)
    48f6:	4b02                	lw	s6,0(sp)
    48f8:	6105                	addi	sp,sp,32
    48fa:	be9fe06f          	j	34e2 <rt_hw_interrupt_enable>
    48fe:	24f9                	jal	4bcc <rt_enter_critical>
    4900:	00402783          	lw	a5,4(zero) # 4 <_einit>
    4904:	9002                	ebreak

00004906 <rt_object_detach>:
    4906:	87418793          	addi	a5,gp,-1932 # 20000234 <rt_object_detach_hook>
    490a:	439c                	lw	a5,0(a5)
    490c:	1141                	addi	sp,sp,-16
    490e:	c422                	sw	s0,8(sp)
    4910:	c606                	sw	ra,12(sp)
    4912:	842a                	mv	s0,a0
    4914:	c391                	beqz	a5,4918 <rt_object_detach+0x12>
    4916:	9782                	jalr	a5
    4918:	00040423          	sb	zero,8(s0)
    491c:	bbbfe0ef          	jal	ra,34d6 <rt_hw_interrupt_disable>
    4920:	4454                	lw	a3,12(s0)
    4922:	4818                	lw	a4,16(s0)
    4924:	00c40793          	addi	a5,s0,12
    4928:	40b2                	lw	ra,12(sp)
    492a:	c2d8                	sw	a4,4(a3)
    492c:	c314                	sw	a3,0(a4)
    492e:	c81c                	sw	a5,16(s0)
    4930:	c45c                	sw	a5,12(s0)
    4932:	4422                	lw	s0,8(sp)
    4934:	0141                	addi	sp,sp,16
    4936:	badfe06f          	j	34e2 <rt_hw_interrupt_enable>

0000493a <rt_object_allocate>:
    493a:	1101                	addi	sp,sp,-32
    493c:	c64e                	sw	s3,12(sp)
    493e:	1fffb997          	auipc	s3,0x1fffb
    4942:	7a298993          	addi	s3,s3,1954 # 200000e0 <rt_object_container>
    4946:	ce06                	sw	ra,28(sp)
    4948:	cc22                	sw	s0,24(sp)
    494a:	ca26                	sw	s1,20(sp)
    494c:	c84a                	sw	s2,16(sp)
    494e:	c452                	sw	s4,8(sp)
    4950:	c256                	sw	s5,4(sp)
    4952:	874e                	mv	a4,s3
    4954:	4781                	li	a5,0
    4956:	4621                	li	a2,8
    4958:	a029                	j	4962 <rt_object_allocate+0x28>
    495a:	0785                	addi	a5,a5,1
    495c:	0741                	addi	a4,a4,16
    495e:	08c78163          	beq	a5,a2,49e0 <rt_object_allocate+0xa6>
    4962:	4314                	lw	a3,0(a4)
    4964:	fed51be3          	bne	a0,a3,495a <rt_object_allocate+0x20>
    4968:	00479413          	slli	s0,a5,0x4
    496c:	00898a33          	add	s4,s3,s0
    4970:	84aa                	mv	s1,a0
    4972:	00ca2503          	lw	a0,12(s4)
    4976:	8aae                	mv	s5,a1
    4978:	c5bff0ef          	jal	ra,45d2 <rt_malloc>
    497c:	892a                	mv	s2,a0
    497e:	c539                	beqz	a0,49cc <rt_object_allocate+0x92>
    4980:	00ca2603          	lw	a2,12(s4)
    4984:	4581                	li	a1,0
    4986:	c16ff0ef          	jal	ra,3d9c <rt_memset>
    498a:	4621                	li	a2,8
    498c:	00990423          	sb	s1,8(s2)
    4990:	000904a3          	sb	zero,9(s2)
    4994:	85d6                	mv	a1,s5
    4996:	854a                	mv	a0,s2
    4998:	cd2ff0ef          	jal	ra,3e6a <rt_strncpy>
    499c:	87018793          	addi	a5,gp,-1936 # 20000230 <rt_object_attach_hook>
    49a0:	439c                	lw	a5,0(a5)
    49a2:	c399                	beqz	a5,49a8 <rt_object_allocate+0x6e>
    49a4:	854a                	mv	a0,s2
    49a6:	9782                	jalr	a5
    49a8:	b2ffe0ef          	jal	ra,34d6 <rt_hw_interrupt_disable>
    49ac:	004a2683          	lw	a3,4(s4)
    49b0:	00c90713          	addi	a4,s2,12
    49b4:	00440793          	addi	a5,s0,4
    49b8:	c2d8                	sw	a4,4(a3)
    49ba:	00d92623          	sw	a3,12(s2)
    49be:	00ea2223          	sw	a4,4(s4)
    49c2:	97ce                	add	a5,a5,s3
    49c4:	00f92823          	sw	a5,16(s2)
    49c8:	b1bfe0ef          	jal	ra,34e2 <rt_hw_interrupt_enable>
    49cc:	40f2                	lw	ra,28(sp)
    49ce:	4462                	lw	s0,24(sp)
    49d0:	854a                	mv	a0,s2
    49d2:	44d2                	lw	s1,20(sp)
    49d4:	4942                	lw	s2,16(sp)
    49d6:	49b2                	lw	s3,12(sp)
    49d8:	4a22                	lw	s4,8(sp)
    49da:	4a92                	lw	s5,4(sp)
    49dc:	6105                	addi	sp,sp,32
    49de:	8082                	ret
    49e0:	00c02783          	lw	a5,12(zero) # c <_einit+0x8>
    49e4:	9002                	ebreak

000049e6 <rt_object_delete>:
    49e6:	87418793          	addi	a5,gp,-1932 # 20000234 <rt_object_detach_hook>
    49ea:	439c                	lw	a5,0(a5)
    49ec:	1141                	addi	sp,sp,-16
    49ee:	c422                	sw	s0,8(sp)
    49f0:	c606                	sw	ra,12(sp)
    49f2:	842a                	mv	s0,a0
    49f4:	c391                	beqz	a5,49f8 <rt_object_delete+0x12>
    49f6:	9782                	jalr	a5
    49f8:	00040423          	sb	zero,8(s0)
    49fc:	adbfe0ef          	jal	ra,34d6 <rt_hw_interrupt_disable>
    4a00:	4454                	lw	a3,12(s0)
    4a02:	4818                	lw	a4,16(s0)
    4a04:	00c40793          	addi	a5,s0,12
    4a08:	c2d8                	sw	a4,4(a3)
    4a0a:	c314                	sw	a3,0(a4)
    4a0c:	c81c                	sw	a5,16(s0)
    4a0e:	c45c                	sw	a5,12(s0)
    4a10:	ad3fe0ef          	jal	ra,34e2 <rt_hw_interrupt_enable>
    4a14:	8522                	mv	a0,s0
    4a16:	4422                	lw	s0,8(sp)
    4a18:	40b2                	lw	ra,12(sp)
    4a1a:	0141                	addi	sp,sp,16
    4a1c:	d41ff06f          	j	475c <rt_free>

00004a20 <rt_object_is_systemobject>:
    4a20:	00850503          	lb	a0,8(a0)
    4a24:	817d                	srli	a0,a0,0x1f
    4a26:	8082                	ret

00004a28 <rt_system_scheduler_init>:
    4a28:	88019823          	sh	zero,-1904(gp) # 20000250 <rt_scheduler_lock_nest>
    4a2c:	1fffd797          	auipc	a5,0x1fffd
    4a30:	cc878793          	addi	a5,a5,-824 # 200016f4 <rt_thread_priority_table>
    4a34:	1fffd717          	auipc	a4,0x1fffd
    4a38:	d4070713          	addi	a4,a4,-704 # 20001774 <errno>
    4a3c:	c3dc                	sw	a5,4(a5)
    4a3e:	c39c                	sw	a5,0(a5)
    4a40:	07a1                	addi	a5,a5,8
    4a42:	fee79de3          	bne	a5,a4,4a3c <rt_system_scheduler_init+0x14>
    4a46:	473d                	li	a4,15
    4a48:	89418793          	addi	a5,gp,-1900 # 20000254 <rt_thread_defunct>
    4a4c:	88e18223          	sb	a4,-1916(gp) # 20000244 <rt_current_priority>
    4a50:	8801a423          	sw	zero,-1912(gp) # 20000248 <rt_current_thread>
    4a54:	8801ae23          	sw	zero,-1892(gp) # 2000025c <rt_thread_ready_priority_group>
    4a58:	88f1ac23          	sw	a5,-1896(gp) # 20000258 <rt_thread_defunct+0x4>
    4a5c:	88f1aa23          	sw	a5,-1900(gp) # 20000254 <rt_thread_defunct>
    4a60:	8082                	ret

00004a62 <rt_system_scheduler_start>:
    4a62:	89c18793          	addi	a5,gp,-1892 # 2000025c <rt_thread_ready_priority_group>
    4a66:	4388                	lw	a0,0(a5)
    4a68:	1141                	addi	sp,sp,-16
    4a6a:	c606                	sw	ra,12(sp)
    4a6c:	9c5ff0ef          	jal	ra,4430 <__rt_ffs>
    4a70:	157d                	addi	a0,a0,-1
    4a72:	00351793          	slli	a5,a0,0x3
    4a76:	1fffd517          	auipc	a0,0x1fffd
    4a7a:	c7e50513          	addi	a0,a0,-898 # 200016f4 <rt_thread_priority_table>
    4a7e:	953e                	add	a0,a0,a5
    4a80:	4108                	lw	a0,0(a0)
    4a82:	40b2                	lw	ra,12(sp)
    4a84:	fec50793          	addi	a5,a0,-20
    4a88:	88f1a423          	sw	a5,-1912(gp) # 20000248 <rt_current_thread>
    4a8c:	0521                	addi	a0,a0,8
    4a8e:	0141                	addi	sp,sp,16
    4a90:	f30fb06f          	j	1c0 <rt_hw_context_switch_to>

00004a94 <rt_schedule>:
    4a94:	1141                	addi	sp,sp,-16
    4a96:	c04a                	sw	s2,0(sp)
    4a98:	c606                	sw	ra,12(sp)
    4a9a:	c422                	sw	s0,8(sp)
    4a9c:	c226                	sw	s1,4(sp)
    4a9e:	a39fe0ef          	jal	ra,34d6 <rt_hw_interrupt_disable>
    4aa2:	8901d783          	lhu	a5,-1904(gp) # 20000250 <rt_scheduler_lock_nest>
    4aa6:	892a                	mv	s2,a0
    4aa8:	eba9                	bnez	a5,4afa <rt_schedule+0x66>
    4aaa:	89c18793          	addi	a5,gp,-1892 # 2000025c <rt_thread_ready_priority_group>
    4aae:	4388                	lw	a0,0(a5)
    4ab0:	981ff0ef          	jal	ra,4430 <__rt_ffs>
    4ab4:	157d                	addi	a0,a0,-1
    4ab6:	00351713          	slli	a4,a0,0x3
    4aba:	1fffd797          	auipc	a5,0x1fffd
    4abe:	c3a78793          	addi	a5,a5,-966 # 200016f4 <rt_thread_priority_table>
    4ac2:	97ba                	add	a5,a5,a4
    4ac4:	4384                	lw	s1,0(a5)
    4ac6:	88818793          	addi	a5,gp,-1912 # 20000248 <rt_current_thread>
    4aca:	4380                	lw	s0,0(a5)
    4acc:	fec48593          	addi	a1,s1,-20
    4ad0:	02b40563          	beq	s0,a1,4afa <rt_schedule+0x66>
    4ad4:	88c18793          	addi	a5,gp,-1908 # 2000024c <rt_scheduler_hook>
    4ad8:	439c                	lw	a5,0(a5)
    4ada:	88a18223          	sb	a0,-1916(gp) # 20000244 <rt_current_priority>
    4ade:	88b1a423          	sw	a1,-1912(gp) # 20000248 <rt_current_thread>
    4ae2:	c399                	beqz	a5,4ae8 <rt_schedule+0x54>
    4ae4:	8522                	mv	a0,s0
    4ae6:	9782                	jalr	a5
    4ae8:	8441c783          	lbu	a5,-1980(gp) # 20000204 <rt_interrupt_nest>
    4aec:	01c40513          	addi	a0,s0,28
    4af0:	00848593          	addi	a1,s1,8
    4af4:	cb99                	beqz	a5,4b0a <rt_schedule+0x76>
    4af6:	9f3fe0ef          	jal	ra,34e8 <rt_hw_context_switch_interrupt>
    4afa:	4422                	lw	s0,8(sp)
    4afc:	40b2                	lw	ra,12(sp)
    4afe:	4492                	lw	s1,4(sp)
    4b00:	854a                	mv	a0,s2
    4b02:	4902                	lw	s2,0(sp)
    4b04:	0141                	addi	sp,sp,16
    4b06:	9ddfe06f          	j	34e2 <rt_hw_interrupt_enable>
    4b0a:	ed2fb0ef          	jal	ra,1dc <rt_hw_context_switch>
    4b0e:	4422                	lw	s0,8(sp)
    4b10:	40b2                	lw	ra,12(sp)
    4b12:	4492                	lw	s1,4(sp)
    4b14:	854a                	mv	a0,s2
    4b16:	4902                	lw	s2,0(sp)
    4b18:	0141                	addi	sp,sp,16
    4b1a:	9c9fe06f          	j	34e2 <rt_hw_interrupt_enable>

00004b1e <rt_schedule_insert_thread>:
    4b1e:	1141                	addi	sp,sp,-16
    4b20:	c422                	sw	s0,8(sp)
    4b22:	c606                	sw	ra,12(sp)
    4b24:	842a                	mv	s0,a0
    4b26:	9b1fe0ef          	jal	ra,34d6 <rt_hw_interrupt_disable>
    4b2a:	03444703          	lbu	a4,52(s0)
    4b2e:	03544783          	lbu	a5,53(s0)
    4b32:	01440613          	addi	a2,s0,20
    4b36:	9b41                	andi	a4,a4,-16
    4b38:	00379693          	slli	a3,a5,0x3
    4b3c:	00176713          	ori	a4,a4,1
    4b40:	1fffd797          	auipc	a5,0x1fffd
    4b44:	bb478793          	addi	a5,a5,-1100 # 200016f4 <rt_thread_priority_table>
    4b48:	02e40a23          	sb	a4,52(s0)
    4b4c:	97b6                	add	a5,a5,a3
    4b4e:	43cc                	lw	a1,4(a5)
    4b50:	89c18693          	addi	a3,gp,-1892 # 2000025c <rt_thread_ready_priority_group>
    4b54:	5c18                	lw	a4,56(s0)
    4b56:	c190                	sw	a2,0(a1)
    4b58:	0006a803          	lw	a6,0(a3)
    4b5c:	cc0c                	sw	a1,24(s0)
    4b5e:	c3d0                	sw	a2,4(a5)
    4b60:	c85c                	sw	a5,20(s0)
    4b62:	4422                	lw	s0,8(sp)
    4b64:	40b2                	lw	ra,12(sp)
    4b66:	01076733          	or	a4,a4,a6
    4b6a:	c298                	sw	a4,0(a3)
    4b6c:	0141                	addi	sp,sp,16
    4b6e:	975fe06f          	j	34e2 <rt_hw_interrupt_enable>

00004b72 <rt_schedule_remove_thread>:
    4b72:	1141                	addi	sp,sp,-16
    4b74:	c422                	sw	s0,8(sp)
    4b76:	c606                	sw	ra,12(sp)
    4b78:	842a                	mv	s0,a0
    4b7a:	95dfe0ef          	jal	ra,34d6 <rt_hw_interrupt_disable>
    4b7e:	4c1c                	lw	a5,24(s0)
    4b80:	4854                	lw	a3,20(s0)
    4b82:	01440713          	addi	a4,s0,20
    4b86:	c2dc                	sw	a5,4(a3)
    4b88:	c394                	sw	a3,0(a5)
    4b8a:	03544783          	lbu	a5,53(s0)
    4b8e:	c858                	sw	a4,20(s0)
    4b90:	cc18                	sw	a4,24(s0)
    4b92:	00379713          	slli	a4,a5,0x3
    4b96:	1fffd797          	auipc	a5,0x1fffd
    4b9a:	b5e78793          	addi	a5,a5,-1186 # 200016f4 <rt_thread_priority_table>
    4b9e:	97ba                	add	a5,a5,a4
    4ba0:	4398                	lw	a4,0(a5)
    4ba2:	00f70763          	beq	a4,a5,4bb0 <rt_schedule_remove_thread+0x3e>
    4ba6:	4422                	lw	s0,8(sp)
    4ba8:	40b2                	lw	ra,12(sp)
    4baa:	0141                	addi	sp,sp,16
    4bac:	937fe06f          	j	34e2 <rt_hw_interrupt_enable>
    4bb0:	5c1c                	lw	a5,56(s0)
    4bb2:	89c18713          	addi	a4,gp,-1892 # 2000025c <rt_thread_ready_priority_group>
    4bb6:	4318                	lw	a4,0(a4)
    4bb8:	4422                	lw	s0,8(sp)
    4bba:	fff7c793          	not	a5,a5
    4bbe:	40b2                	lw	ra,12(sp)
    4bc0:	8ff9                	and	a5,a5,a4
    4bc2:	88f1ae23          	sw	a5,-1892(gp) # 2000025c <rt_thread_ready_priority_group>
    4bc6:	0141                	addi	sp,sp,16
    4bc8:	91bfe06f          	j	34e2 <rt_hw_interrupt_enable>

00004bcc <rt_enter_critical>:
    4bcc:	1141                	addi	sp,sp,-16
    4bce:	c606                	sw	ra,12(sp)
    4bd0:	907fe0ef          	jal	ra,34d6 <rt_hw_interrupt_disable>
    4bd4:	89018713          	addi	a4,gp,-1904 # 20000250 <rt_scheduler_lock_nest>
    4bd8:	00075783          	lhu	a5,0(a4)
    4bdc:	40b2                	lw	ra,12(sp)
    4bde:	0785                	addi	a5,a5,1
    4be0:	00f71023          	sh	a5,0(a4)
    4be4:	0141                	addi	sp,sp,16
    4be6:	8fdfe06f          	j	34e2 <rt_hw_interrupt_enable>

00004bea <rt_exit_critical>:
    4bea:	1141                	addi	sp,sp,-16
    4bec:	c606                	sw	ra,12(sp)
    4bee:	8e9fe0ef          	jal	ra,34d6 <rt_hw_interrupt_disable>
    4bf2:	8901d783          	lhu	a5,-1904(gp) # 20000250 <rt_scheduler_lock_nest>
    4bf6:	17fd                	addi	a5,a5,-1
    4bf8:	07c2                	slli	a5,a5,0x10
    4bfa:	87c1                	srai	a5,a5,0x10
    4bfc:	88f19823          	sh	a5,-1904(gp) # 20000250 <rt_scheduler_lock_nest>
    4c00:	00f05663          	blez	a5,4c0c <rt_exit_critical+0x22>
    4c04:	40b2                	lw	ra,12(sp)
    4c06:	0141                	addi	sp,sp,16
    4c08:	8dbfe06f          	j	34e2 <rt_hw_interrupt_enable>
    4c0c:	88019823          	sh	zero,-1904(gp) # 20000250 <rt_scheduler_lock_nest>
    4c10:	8d3fe0ef          	jal	ra,34e2 <rt_hw_interrupt_enable>
    4c14:	88818793          	addi	a5,gp,-1912 # 20000248 <rt_current_thread>
    4c18:	439c                	lw	a5,0(a5)
    4c1a:	c789                	beqz	a5,4c24 <rt_exit_critical+0x3a>
    4c1c:	40b2                	lw	ra,12(sp)
    4c1e:	0141                	addi	sp,sp,16
    4c20:	e75ff06f          	j	4a94 <rt_schedule>
    4c24:	40b2                	lw	ra,12(sp)
    4c26:	0141                	addi	sp,sp,16
    4c28:	8082                	ret

00004c2a <rt_thread_exit>:
    4c2a:	1141                	addi	sp,sp,-16
    4c2c:	88818793          	addi	a5,gp,-1912 # 20000248 <rt_current_thread>
    4c30:	c422                	sw	s0,8(sp)
    4c32:	4380                	lw	s0,0(a5)
    4c34:	c606                	sw	ra,12(sp)
    4c36:	c226                	sw	s1,4(sp)
    4c38:	89ffe0ef          	jal	ra,34d6 <rt_hw_interrupt_disable>
    4c3c:	84aa                	mv	s1,a0
    4c3e:	8522                	mv	a0,s0
    4c40:	3f0d                	jal	4b72 <rt_schedule_remove_thread>
    4c42:	4791                	li	a5,4
    4c44:	02f40a23          	sb	a5,52(s0)
    4c48:	04c40513          	addi	a0,s0,76
    4c4c:	266d                	jal	4ff6 <rt_timer_detach>
    4c4e:	8522                	mv	a0,s0
    4c50:	dd1ff0ef          	jal	ra,4a20 <rt_object_is_systemobject>
    4c54:	4785                	li	a5,1
    4c56:	02f50563          	beq	a0,a5,4c80 <rt_thread_exit+0x56>
    4c5a:	89418793          	addi	a5,gp,-1900 # 20000254 <rt_thread_defunct>
    4c5e:	4398                	lw	a4,0(a5)
    4c60:	01440693          	addi	a3,s0,20
    4c64:	88d1aa23          	sw	a3,-1900(gp) # 20000254 <rt_thread_defunct>
    4c68:	c354                	sw	a3,4(a4)
    4c6a:	c858                	sw	a4,20(s0)
    4c6c:	cc1c                	sw	a5,24(s0)
    4c6e:	8526                	mv	a0,s1
    4c70:	873fe0ef          	jal	ra,34e2 <rt_hw_interrupt_enable>
    4c74:	4422                	lw	s0,8(sp)
    4c76:	40b2                	lw	ra,12(sp)
    4c78:	4492                	lw	s1,4(sp)
    4c7a:	0141                	addi	sp,sp,16
    4c7c:	e19ff06f          	j	4a94 <rt_schedule>
    4c80:	5c3c                	lw	a5,120(s0)
    4c82:	ffe1                	bnez	a5,4c5a <rt_thread_exit+0x30>
    4c84:	8522                	mv	a0,s0
    4c86:	c81ff0ef          	jal	ra,4906 <rt_object_detach>
    4c8a:	b7d5                	j	4c6e <rt_thread_exit+0x44>

00004c8c <rt_thread_timeout>:
    4c8c:	4950                	lw	a2,20(a0)
    4c8e:	4d14                	lw	a3,24(a0)
    4c90:	1141                	addi	sp,sp,-16
    4c92:	5779                	li	a4,-2
    4c94:	c606                	sw	ra,12(sp)
    4c96:	d918                	sw	a4,48(a0)
    4c98:	c254                	sw	a3,4(a2)
    4c9a:	01450713          	addi	a4,a0,20
    4c9e:	c290                	sw	a2,0(a3)
    4ca0:	cd18                	sw	a4,24(a0)
    4ca2:	c958                	sw	a4,20(a0)
    4ca4:	e7bff0ef          	jal	ra,4b1e <rt_schedule_insert_thread>
    4ca8:	40b2                	lw	ra,12(sp)
    4caa:	0141                	addi	sp,sp,16
    4cac:	de9ff06f          	j	4a94 <rt_schedule>

00004cb0 <_rt_thread_init.isra.0>:
    4cb0:	1141                	addi	sp,sp,-16
    4cb2:	c606                	sw	ra,12(sp)
    4cb4:	c422                	sw	s0,8(sp)
    4cb6:	c226                	sw	s1,4(sp)
    4cb8:	842a                	mv	s0,a0
    4cba:	c04a                	sw	s2,0(sp)
    4cbc:	0551                	addi	a0,a0,20
    4cbe:	d00c                	sw	a1,32(s0)
    4cc0:	d050                	sw	a2,36(s0)
    4cc2:	02300593          	li	a1,35
    4cc6:	863a                	mv	a2,a4
    4cc8:	cc08                	sw	a0,24(s0)
    4cca:	c848                	sw	a0,20(s0)
    4ccc:	d414                	sw	a3,40(s0)
    4cce:	d458                	sw	a4,44(s0)
    4cd0:	8536                	mv	a0,a3
    4cd2:	893e                	mv	s2,a5
    4cd4:	84c2                	mv	s1,a6
    4cd6:	8c6ff0ef          	jal	ra,3d9c <rt_memset>
    4cda:	5458                	lw	a4,44(s0)
    4cdc:	5410                	lw	a2,40(s0)
    4cde:	504c                	lw	a1,36(s0)
    4ce0:	5008                	lw	a0,32(s0)
    4ce2:	1771                	addi	a4,a4,-4
    4ce4:	963a                	add	a2,a2,a4
    4ce6:	00000697          	auipc	a3,0x0
    4cea:	f4468693          	addi	a3,a3,-188 # 4c2a <rt_thread_exit>
    4cee:	fa6fe0ef          	jal	ra,3494 <rt_hw_stack_init>
    4cf2:	cc48                	sw	a0,28(s0)
    4cf4:	4781                	li	a5,0
    4cf6:	03240b23          	sb	s2,54(s0)
    4cfa:	03240aa3          	sb	s2,53(s0)
    4cfe:	02042c23          	sw	zero,56(s0)
    4d02:	c064                	sw	s1,68(s0)
    4d04:	c424                	sw	s1,72(s0)
    4d06:	02042823          	sw	zero,48(s0)
    4d0a:	02040a23          	sb	zero,52(s0)
    4d0e:	06042c23          	sw	zero,120(s0)
    4d12:	06042e23          	sw	zero,124(s0)
    4d16:	4701                	li	a4,0
    4d18:	86a2                	mv	a3,s0
    4d1a:	00000617          	auipc	a2,0x0
    4d1e:	f7260613          	addi	a2,a2,-142 # 4c8c <rt_thread_timeout>
    4d22:	85a2                	mv	a1,s0
    4d24:	04c40513          	addi	a0,s0,76
    4d28:	2441                	jal	4fa8 <rt_timer_init>
    4d2a:	8a018793          	addi	a5,gp,-1888 # 20000260 <rt_thread_inited_hook>
    4d2e:	439c                	lw	a5,0(a5)
    4d30:	c399                	beqz	a5,4d36 <_rt_thread_init.isra.0+0x86>
    4d32:	8522                	mv	a0,s0
    4d34:	9782                	jalr	a5
    4d36:	40b2                	lw	ra,12(sp)
    4d38:	4422                	lw	s0,8(sp)
    4d3a:	4492                	lw	s1,4(sp)
    4d3c:	4902                	lw	s2,0(sp)
    4d3e:	4501                	li	a0,0
    4d40:	0141                	addi	sp,sp,16
    4d42:	8082                	ret

00004d44 <rt_thread_init>:
    4d44:	1101                	addi	sp,sp,-32
    4d46:	ca26                	sw	s1,20(sp)
    4d48:	84b2                	mv	s1,a2
    4d4a:	862e                	mv	a2,a1
    4d4c:	4585                	li	a1,1
    4d4e:	cc22                	sw	s0,24(sp)
    4d50:	c84a                	sw	s2,16(sp)
    4d52:	c64e                	sw	s3,12(sp)
    4d54:	c452                	sw	s4,8(sp)
    4d56:	c256                	sw	s5,4(sp)
    4d58:	c05a                	sw	s6,0(sp)
    4d5a:	ce06                	sw	ra,28(sp)
    4d5c:	8936                	mv	s2,a3
    4d5e:	89ba                	mv	s3,a4
    4d60:	8a3e                	mv	s4,a5
    4d62:	8ac2                	mv	s5,a6
    4d64:	842a                	mv	s0,a0
    4d66:	8b46                	mv	s6,a7
    4d68:	af3ff0ef          	jal	ra,485a <rt_object_init>
    4d6c:	8522                	mv	a0,s0
    4d6e:	4462                	lw	s0,24(sp)
    4d70:	40f2                	lw	ra,28(sp)
    4d72:	885a                	mv	a6,s6
    4d74:	87d6                	mv	a5,s5
    4d76:	4b02                	lw	s6,0(sp)
    4d78:	4a92                	lw	s5,4(sp)
    4d7a:	8752                	mv	a4,s4
    4d7c:	86ce                	mv	a3,s3
    4d7e:	4a22                	lw	s4,8(sp)
    4d80:	49b2                	lw	s3,12(sp)
    4d82:	864a                	mv	a2,s2
    4d84:	85a6                	mv	a1,s1
    4d86:	4942                	lw	s2,16(sp)
    4d88:	44d2                	lw	s1,20(sp)
    4d8a:	6105                	addi	sp,sp,32
    4d8c:	f25ff06f          	j	4cb0 <_rt_thread_init.isra.0>

00004d90 <rt_thread_self>:
    4d90:	88818793          	addi	a5,gp,-1912 # 20000248 <rt_current_thread>
    4d94:	4388                	lw	a0,0(a5)
    4d96:	8082                	ret

00004d98 <rt_thread_create>:
    4d98:	1101                	addi	sp,sp,-32
    4d9a:	c84a                	sw	s2,16(sp)
    4d9c:	892e                	mv	s2,a1
    4d9e:	85aa                	mv	a1,a0
    4da0:	4505                	li	a0,1
    4da2:	cc22                	sw	s0,24(sp)
    4da4:	ca26                	sw	s1,20(sp)
    4da6:	c64e                	sw	s3,12(sp)
    4da8:	c452                	sw	s4,8(sp)
    4daa:	c256                	sw	s5,4(sp)
    4dac:	ce06                	sw	ra,28(sp)
    4dae:	89b2                	mv	s3,a2
    4db0:	84b6                	mv	s1,a3
    4db2:	8a3a                	mv	s4,a4
    4db4:	8abe                	mv	s5,a5
    4db6:	b85ff0ef          	jal	ra,493a <rt_object_allocate>
    4dba:	842a                	mv	s0,a0
    4dbc:	cd11                	beqz	a0,4dd8 <rt_thread_create+0x40>
    4dbe:	8526                	mv	a0,s1
    4dc0:	813ff0ef          	jal	ra,45d2 <rt_malloc>
    4dc4:	c505                	beqz	a0,4dec <rt_thread_create+0x54>
    4dc6:	86aa                	mv	a3,a0
    4dc8:	8856                	mv	a6,s5
    4dca:	87d2                	mv	a5,s4
    4dcc:	8726                	mv	a4,s1
    4dce:	864e                	mv	a2,s3
    4dd0:	85ca                	mv	a1,s2
    4dd2:	8522                	mv	a0,s0
    4dd4:	eddff0ef          	jal	ra,4cb0 <_rt_thread_init.isra.0>
    4dd8:	8522                	mv	a0,s0
    4dda:	40f2                	lw	ra,28(sp)
    4ddc:	4462                	lw	s0,24(sp)
    4dde:	44d2                	lw	s1,20(sp)
    4de0:	4942                	lw	s2,16(sp)
    4de2:	49b2                	lw	s3,12(sp)
    4de4:	4a22                	lw	s4,8(sp)
    4de6:	4a92                	lw	s5,4(sp)
    4de8:	6105                	addi	sp,sp,32
    4dea:	8082                	ret
    4dec:	8522                	mv	a0,s0
    4dee:	bf9ff0ef          	jal	ra,49e6 <rt_object_delete>
    4df2:	4401                	li	s0,0
    4df4:	b7d5                	j	4dd8 <rt_thread_create+0x40>

00004df6 <rt_thread_yield>:
    4df6:	1141                	addi	sp,sp,-16
    4df8:	c606                	sw	ra,12(sp)
    4dfa:	edcfe0ef          	jal	ra,34d6 <rt_hw_interrupt_disable>
    4dfe:	88818793          	addi	a5,gp,-1912 # 20000248 <rt_current_thread>
    4e02:	4398                	lw	a4,0(a5)
    4e04:	4685                	li	a3,1
    4e06:	862a                	mv	a2,a0
    4e08:	03474783          	lbu	a5,52(a4)
    4e0c:	8bbd                	andi	a5,a5,15
    4e0e:	00d79663          	bne	a5,a3,4e1a <rt_thread_yield+0x24>
    4e12:	4b54                	lw	a3,20(a4)
    4e14:	4f1c                	lw	a5,24(a4)
    4e16:	00f69963          	bne	a3,a5,4e28 <rt_thread_yield+0x32>
    4e1a:	8532                	mv	a0,a2
    4e1c:	ec6fe0ef          	jal	ra,34e2 <rt_hw_interrupt_enable>
    4e20:	40b2                	lw	ra,12(sp)
    4e22:	4501                	li	a0,0
    4e24:	0141                	addi	sp,sp,16
    4e26:	8082                	ret
    4e28:	c2dc                	sw	a5,4(a3)
    4e2a:	c394                	sw	a3,0(a5)
    4e2c:	03574783          	lbu	a5,53(a4)
    4e30:	01470693          	addi	a3,a4,20
    4e34:	cf14                	sw	a3,24(a4)
    4e36:	00379613          	slli	a2,a5,0x3
    4e3a:	1fffd797          	auipc	a5,0x1fffd
    4e3e:	8ba78793          	addi	a5,a5,-1862 # 200016f4 <rt_thread_priority_table>
    4e42:	97b2                	add	a5,a5,a2
    4e44:	43d0                	lw	a2,4(a5)
    4e46:	c214                	sw	a3,0(a2)
    4e48:	cf10                	sw	a2,24(a4)
    4e4a:	c3d4                	sw	a3,4(a5)
    4e4c:	cb5c                	sw	a5,20(a4)
    4e4e:	e94fe0ef          	jal	ra,34e2 <rt_hw_interrupt_enable>
    4e52:	c43ff0ef          	jal	ra,4a94 <rt_schedule>
    4e56:	40b2                	lw	ra,12(sp)
    4e58:	4501                	li	a0,0
    4e5a:	0141                	addi	sp,sp,16
    4e5c:	8082                	ret

00004e5e <rt_thread_suspend>:
    4e5e:	1141                	addi	sp,sp,-16
    4e60:	c606                	sw	ra,12(sp)
    4e62:	c422                	sw	s0,8(sp)
    4e64:	c226                	sw	s1,4(sp)
    4e66:	c04a                	sw	s2,0(sp)
    4e68:	03454783          	lbu	a5,52(a0)
    4e6c:	4705                	li	a4,1
    4e6e:	8bbd                	andi	a5,a5,15
    4e70:	04e79463          	bne	a5,a4,4eb8 <rt_thread_suspend+0x5a>
    4e74:	842a                	mv	s0,a0
    4e76:	e60fe0ef          	jal	ra,34d6 <rt_hw_interrupt_disable>
    4e7a:	03444783          	lbu	a5,52(s0)
    4e7e:	892a                	mv	s2,a0
    4e80:	8522                	mv	a0,s0
    4e82:	9bc1                	andi	a5,a5,-16
    4e84:	0027e793          	ori	a5,a5,2
    4e88:	02f40a23          	sb	a5,52(s0)
    4e8c:	ce7ff0ef          	jal	ra,4b72 <rt_schedule_remove_thread>
    4e90:	04c40513          	addi	a0,s0,76
    4e94:	2c1d                	jal	50ca <rt_timer_stop>
    4e96:	854a                	mv	a0,s2
    4e98:	e4afe0ef          	jal	ra,34e2 <rt_hw_interrupt_enable>
    4e9c:	8a818793          	addi	a5,gp,-1880 # 20000268 <rt_thread_suspend_hook>
    4ea0:	439c                	lw	a5,0(a5)
    4ea2:	4481                	li	s1,0
    4ea4:	c399                	beqz	a5,4eaa <rt_thread_suspend+0x4c>
    4ea6:	8522                	mv	a0,s0
    4ea8:	9782                	jalr	a5
    4eaa:	40b2                	lw	ra,12(sp)
    4eac:	4422                	lw	s0,8(sp)
    4eae:	8526                	mv	a0,s1
    4eb0:	4902                	lw	s2,0(sp)
    4eb2:	4492                	lw	s1,4(sp)
    4eb4:	0141                	addi	sp,sp,16
    4eb6:	8082                	ret
    4eb8:	54fd                	li	s1,-1
    4eba:	bfc5                	j	4eaa <rt_thread_suspend+0x4c>

00004ebc <rt_thread_sleep>:
    4ebc:	1101                	addi	sp,sp,-32
    4ebe:	ce06                	sw	ra,28(sp)
    4ec0:	cc22                	sw	s0,24(sp)
    4ec2:	ca26                	sw	s1,20(sp)
    4ec4:	c84a                	sw	s2,16(sp)
    4ec6:	c62a                	sw	a0,12(sp)
    4ec8:	e0efe0ef          	jal	ra,34d6 <rt_hw_interrupt_disable>
    4ecc:	88818793          	addi	a5,gp,-1912 # 20000248 <rt_current_thread>
    4ed0:	4380                	lw	s0,0(a5)
    4ed2:	892a                	mv	s2,a0
    4ed4:	8522                	mv	a0,s0
    4ed6:	3761                	jal	4e5e <rt_thread_suspend>
    4ed8:	04c40493          	addi	s1,s0,76
    4edc:	0070                	addi	a2,sp,12
    4ede:	4581                	li	a1,0
    4ee0:	8526                	mv	a0,s1
    4ee2:	2c0d                	jal	5114 <rt_timer_control>
    4ee4:	8526                	mv	a0,s1
    4ee6:	2281                	jal	5026 <rt_timer_start>
    4ee8:	854a                	mv	a0,s2
    4eea:	df8fe0ef          	jal	ra,34e2 <rt_hw_interrupt_enable>
    4eee:	ba7ff0ef          	jal	ra,4a94 <rt_schedule>
    4ef2:	5818                	lw	a4,48(s0)
    4ef4:	57f9                	li	a5,-2
    4ef6:	00f71463          	bne	a4,a5,4efe <rt_thread_sleep+0x42>
    4efa:	02042823          	sw	zero,48(s0)
    4efe:	40f2                	lw	ra,28(sp)
    4f00:	4462                	lw	s0,24(sp)
    4f02:	44d2                	lw	s1,20(sp)
    4f04:	4942                	lw	s2,16(sp)
    4f06:	4501                	li	a0,0
    4f08:	6105                	addi	sp,sp,32
    4f0a:	8082                	ret

00004f0c <rt_thread_mdelay>:
    4f0c:	1141                	addi	sp,sp,-16
    4f0e:	c606                	sw	ra,12(sp)
    4f10:	e3afe0ef          	jal	ra,354a <rt_tick_from_millisecond>
    4f14:	40b2                	lw	ra,12(sp)
    4f16:	0141                	addi	sp,sp,16
    4f18:	b755                	j	4ebc <rt_thread_sleep>

00004f1a <rt_thread_resume>:
    4f1a:	1141                	addi	sp,sp,-16
    4f1c:	c606                	sw	ra,12(sp)
    4f1e:	c422                	sw	s0,8(sp)
    4f20:	c226                	sw	s1,4(sp)
    4f22:	03454783          	lbu	a5,52(a0)
    4f26:	4709                	li	a4,2
    4f28:	8bbd                	andi	a5,a5,15
    4f2a:	04e79463          	bne	a5,a4,4f72 <rt_thread_resume+0x58>
    4f2e:	842a                	mv	s0,a0
    4f30:	da6fe0ef          	jal	ra,34d6 <rt_hw_interrupt_disable>
    4f34:	4854                	lw	a3,20(s0)
    4f36:	4c18                	lw	a4,24(s0)
    4f38:	01440793          	addi	a5,s0,20
    4f3c:	84aa                	mv	s1,a0
    4f3e:	c2d8                	sw	a4,4(a3)
    4f40:	c314                	sw	a3,0(a4)
    4f42:	cc1c                	sw	a5,24(s0)
    4f44:	c85c                	sw	a5,20(s0)
    4f46:	04c40513          	addi	a0,s0,76
    4f4a:	2241                	jal	50ca <rt_timer_stop>
    4f4c:	8526                	mv	a0,s1
    4f4e:	d94fe0ef          	jal	ra,34e2 <rt_hw_interrupt_enable>
    4f52:	8522                	mv	a0,s0
    4f54:	bcbff0ef          	jal	ra,4b1e <rt_schedule_insert_thread>
    4f58:	8a418793          	addi	a5,gp,-1884 # 20000264 <rt_thread_resume_hook>
    4f5c:	439c                	lw	a5,0(a5)
    4f5e:	4481                	li	s1,0
    4f60:	c399                	beqz	a5,4f66 <rt_thread_resume+0x4c>
    4f62:	8522                	mv	a0,s0
    4f64:	9782                	jalr	a5
    4f66:	40b2                	lw	ra,12(sp)
    4f68:	4422                	lw	s0,8(sp)
    4f6a:	8526                	mv	a0,s1
    4f6c:	4492                	lw	s1,4(sp)
    4f6e:	0141                	addi	sp,sp,16
    4f70:	8082                	ret
    4f72:	54fd                	li	s1,-1
    4f74:	bfcd                	j	4f66 <rt_thread_resume+0x4c>

00004f76 <rt_thread_startup>:
    4f76:	1141                	addi	sp,sp,-16
    4f78:	c606                	sw	ra,12(sp)
    4f7a:	03654683          	lbu	a3,54(a0)
    4f7e:	4705                	li	a4,1
    4f80:	00d71733          	sll	a4,a4,a3
    4f84:	dd18                	sw	a4,56(a0)
    4f86:	4709                	li	a4,2
    4f88:	02d50aa3          	sb	a3,53(a0)
    4f8c:	02e50a23          	sb	a4,52(a0)
    4f90:	f8bff0ef          	jal	ra,4f1a <rt_thread_resume>
    4f94:	88818793          	addi	a5,gp,-1912 # 20000248 <rt_current_thread>
    4f98:	439c                	lw	a5,0(a5)
    4f9a:	c399                	beqz	a5,4fa0 <rt_thread_startup+0x2a>
    4f9c:	af9ff0ef          	jal	ra,4a94 <rt_schedule>
    4fa0:	40b2                	lw	ra,12(sp)
    4fa2:	4501                	li	a0,0
    4fa4:	0141                	addi	sp,sp,16
    4fa6:	8082                	ret

00004fa8 <rt_timer_init>:
    4fa8:	1101                	addi	sp,sp,-32
    4faa:	ca26                	sw	s1,20(sp)
    4fac:	c452                	sw	s4,8(sp)
    4fae:	84be                	mv	s1,a5
    4fb0:	8a32                	mv	s4,a2
    4fb2:	862e                	mv	a2,a1
    4fb4:	45a9                	li	a1,10
    4fb6:	cc22                	sw	s0,24(sp)
    4fb8:	c84a                	sw	s2,16(sp)
    4fba:	c64e                	sw	s3,12(sp)
    4fbc:	842a                	mv	s0,a0
    4fbe:	ce06                	sw	ra,28(sp)
    4fc0:	89b6                	mv	s3,a3
    4fc2:	893a                	mv	s2,a4
    4fc4:	98f9                	andi	s1,s1,-2
    4fc6:	895ff0ef          	jal	ra,485a <rt_object_init>
    4fca:	01440793          	addi	a5,s0,20
    4fce:	009404a3          	sb	s1,9(s0)
    4fd2:	01442e23          	sw	s4,28(s0)
    4fd6:	03342023          	sw	s3,32(s0)
    4fda:	03242223          	sw	s2,36(s0)
    4fde:	02042423          	sw	zero,40(s0)
    4fe2:	cc1c                	sw	a5,24(s0)
    4fe4:	c85c                	sw	a5,20(s0)
    4fe6:	40f2                	lw	ra,28(sp)
    4fe8:	4462                	lw	s0,24(sp)
    4fea:	44d2                	lw	s1,20(sp)
    4fec:	4942                	lw	s2,16(sp)
    4fee:	49b2                	lw	s3,12(sp)
    4ff0:	4a22                	lw	s4,8(sp)
    4ff2:	6105                	addi	sp,sp,32
    4ff4:	8082                	ret

00004ff6 <rt_timer_detach>:
    4ff6:	1141                	addi	sp,sp,-16
    4ff8:	c606                	sw	ra,12(sp)
    4ffa:	c422                	sw	s0,8(sp)
    4ffc:	842a                	mv	s0,a0
    4ffe:	cd8fe0ef          	jal	ra,34d6 <rt_hw_interrupt_disable>
    5002:	4854                	lw	a3,20(s0)
    5004:	4c18                	lw	a4,24(s0)
    5006:	01440793          	addi	a5,s0,20
    500a:	c2d8                	sw	a4,4(a3)
    500c:	c314                	sw	a3,0(a4)
    500e:	cc1c                	sw	a5,24(s0)
    5010:	c85c                	sw	a5,20(s0)
    5012:	cd0fe0ef          	jal	ra,34e2 <rt_hw_interrupt_enable>
    5016:	8522                	mv	a0,s0
    5018:	8efff0ef          	jal	ra,4906 <rt_object_detach>
    501c:	40b2                	lw	ra,12(sp)
    501e:	4422                	lw	s0,8(sp)
    5020:	4501                	li	a0,0
    5022:	0141                	addi	sp,sp,16
    5024:	8082                	ret

00005026 <rt_timer_start>:
    5026:	1141                	addi	sp,sp,-16
    5028:	c606                	sw	ra,12(sp)
    502a:	c422                	sw	s0,8(sp)
    502c:	c226                	sw	s1,4(sp)
    502e:	842a                	mv	s0,a0
    5030:	ca6fe0ef          	jal	ra,34d6 <rt_hw_interrupt_disable>
    5034:	4c1c                	lw	a5,24(s0)
    5036:	4858                	lw	a4,20(s0)
    5038:	01440493          	addi	s1,s0,20
    503c:	c35c                	sw	a5,4(a4)
    503e:	c398                	sw	a4,0(a5)
    5040:	00944783          	lbu	a5,9(s0)
    5044:	cc04                	sw	s1,24(s0)
    5046:	c844                	sw	s1,20(s0)
    5048:	9bf9                	andi	a5,a5,-2
    504a:	00f404a3          	sb	a5,9(s0)
    504e:	c94fe0ef          	jal	ra,34e2 <rt_hw_interrupt_enable>
    5052:	87c18793          	addi	a5,gp,-1924 # 2000023c <rt_object_take_hook>
    5056:	439c                	lw	a5,0(a5)
    5058:	c399                	beqz	a5,505e <rt_timer_start+0x38>
    505a:	8522                	mv	a0,s0
    505c:	9782                	jalr	a5
    505e:	cb0fe0ef          	jal	ra,350e <rt_tick_get>
    5062:	505c                	lw	a5,36(s0)
    5064:	97aa                	add	a5,a5,a0
    5066:	d41c                	sw	a5,40(s0)
    5068:	c6efe0ef          	jal	ra,34d6 <rt_hw_interrupt_disable>
    506c:	8b818793          	addi	a5,gp,-1864 # 20000278 <rt_timer_list>
    5070:	0047a803          	lw	a6,4(a5)
    5074:	800008b7          	lui	a7,0x80000
    5078:	ffe8c893          	xori	a7,a7,-2
    507c:	4398                	lw	a4,0(a5)
    507e:	00f80e63          	beq	a6,a5,509a <rt_timer_start+0x74>
    5082:	5414                	lw	a3,40(s0)
    5084:	4b50                	lw	a2,20(a4)
    5086:	40d605b3          	sub	a1,a2,a3
    508a:	00d60463          	beq	a2,a3,5092 <rt_timer_start+0x6c>
    508e:	00b8f663          	bgeu	a7,a1,509a <rt_timer_start+0x74>
    5092:	87ba                	mv	a5,a4
    5094:	4398                	lw	a4,0(a5)
    5096:	fef816e3          	bne	a6,a5,5082 <rt_timer_start+0x5c>
    509a:	c344                	sw	s1,4(a4)
    509c:	c858                	sw	a4,20(s0)
    509e:	c384                	sw	s1,0(a5)
    50a0:	00944683          	lbu	a3,9(s0)
    50a4:	8ac18713          	addi	a4,gp,-1876 # 2000026c <random_nr.2485>
    50a8:	4318                	lw	a4,0(a4)
    50aa:	0016e693          	ori	a3,a3,1
    50ae:	cc1c                	sw	a5,24(s0)
    50b0:	0705                	addi	a4,a4,1
    50b2:	00d404a3          	sb	a3,9(s0)
    50b6:	8ae1a623          	sw	a4,-1876(gp) # 2000026c <random_nr.2485>
    50ba:	c28fe0ef          	jal	ra,34e2 <rt_hw_interrupt_enable>
    50be:	40b2                	lw	ra,12(sp)
    50c0:	4422                	lw	s0,8(sp)
    50c2:	4492                	lw	s1,4(sp)
    50c4:	4501                	li	a0,0
    50c6:	0141                	addi	sp,sp,16
    50c8:	8082                	ret

000050ca <rt_timer_stop>:
    50ca:	00954783          	lbu	a5,9(a0)
    50ce:	8b85                	andi	a5,a5,1
    50d0:	c3a1                	beqz	a5,5110 <rt_timer_stop+0x46>
    50d2:	87818793          	addi	a5,gp,-1928 # 20000238 <rt_object_put_hook>
    50d6:	439c                	lw	a5,0(a5)
    50d8:	1141                	addi	sp,sp,-16
    50da:	c422                	sw	s0,8(sp)
    50dc:	c606                	sw	ra,12(sp)
    50de:	842a                	mv	s0,a0
    50e0:	c391                	beqz	a5,50e4 <rt_timer_stop+0x1a>
    50e2:	9782                	jalr	a5
    50e4:	bf2fe0ef          	jal	ra,34d6 <rt_hw_interrupt_disable>
    50e8:	4854                	lw	a3,20(s0)
    50ea:	4c18                	lw	a4,24(s0)
    50ec:	01440793          	addi	a5,s0,20
    50f0:	c2d8                	sw	a4,4(a3)
    50f2:	c314                	sw	a3,0(a4)
    50f4:	cc1c                	sw	a5,24(s0)
    50f6:	c85c                	sw	a5,20(s0)
    50f8:	beafe0ef          	jal	ra,34e2 <rt_hw_interrupt_enable>
    50fc:	00944783          	lbu	a5,9(s0)
    5100:	4501                	li	a0,0
    5102:	9bf9                	andi	a5,a5,-2
    5104:	00f404a3          	sb	a5,9(s0)
    5108:	40b2                	lw	ra,12(sp)
    510a:	4422                	lw	s0,8(sp)
    510c:	0141                	addi	sp,sp,16
    510e:	8082                	ret
    5110:	557d                	li	a0,-1
    5112:	8082                	ret

00005114 <rt_timer_control>:
    5114:	4785                	li	a5,1
    5116:	02f58763          	beq	a1,a5,5144 <rt_timer_control+0x30>
    511a:	02b7d063          	bge	a5,a1,513a <rt_timer_control+0x26>
    511e:	4789                	li	a5,2
    5120:	02f58663          	beq	a1,a5,514c <rt_timer_control+0x38>
    5124:	478d                	li	a5,3
    5126:	00f59863          	bne	a1,a5,5136 <rt_timer_control+0x22>
    512a:	00954783          	lbu	a5,9(a0)
    512e:	0027e793          	ori	a5,a5,2
    5132:	00f504a3          	sb	a5,9(a0)
    5136:	4501                	li	a0,0
    5138:	8082                	ret
    513a:	fdf5                	bnez	a1,5136 <rt_timer_control+0x22>
    513c:	421c                	lw	a5,0(a2)
    513e:	d15c                	sw	a5,36(a0)
    5140:	4501                	li	a0,0
    5142:	8082                	ret
    5144:	515c                	lw	a5,36(a0)
    5146:	4501                	li	a0,0
    5148:	c21c                	sw	a5,0(a2)
    514a:	8082                	ret
    514c:	00954783          	lbu	a5,9(a0)
    5150:	9bf5                	andi	a5,a5,-3
    5152:	00f504a3          	sb	a5,9(a0)
    5156:	4501                	li	a0,0
    5158:	8082                	ret

0000515a <rt_timer_check>:
    515a:	7179                	addi	sp,sp,-48
    515c:	d606                	sw	ra,44(sp)
    515e:	d226                	sw	s1,36(sp)
    5160:	ce4e                	sw	s3,28(sp)
    5162:	cc52                	sw	s4,24(sp)
    5164:	ca56                	sw	s5,20(sp)
    5166:	c85a                	sw	s6,16(sp)
    5168:	c65e                	sw	s7,12(sp)
    516a:	c462                	sw	s8,8(sp)
    516c:	d422                	sw	s0,40(sp)
    516e:	d04a                	sw	s2,32(sp)
    5170:	b9efe0ef          	jal	ra,350e <rt_tick_get>
    5174:	84aa                	mv	s1,a0
    5176:	80000a37          	lui	s4,0x80000
    517a:	b5cfe0ef          	jal	ra,34d6 <rt_hw_interrupt_disable>
    517e:	8c2a                	mv	s8,a0
    5180:	8b818993          	addi	s3,gp,-1864 # 20000278 <rt_timer_list>
    5184:	ffea4a13          	xori	s4,s4,-2
    5188:	8b018b93          	addi	s7,gp,-1872 # 20000270 <rt_timer_enter_hook>
    518c:	8b418b13          	addi	s6,gp,-1868 # 20000274 <rt_timer_exit_hook>
    5190:	4a8d                	li	s5,3
    5192:	0009a403          	lw	s0,0(s3)
    5196:	05340f63          	beq	s0,s3,51f4 <rt_timer_check+0x9a>
    519a:	485c                	lw	a5,20(s0)
    519c:	fec40913          	addi	s2,s0,-20
    51a0:	854a                	mv	a0,s2
    51a2:	8c9d                	sub	s1,s1,a5
    51a4:	049a6863          	bltu	s4,s1,51f4 <rt_timer_check+0x9a>
    51a8:	000ba783          	lw	a5,0(s7)
    51ac:	c391                	beqz	a5,51b0 <rt_timer_check+0x56>
    51ae:	9782                	jalr	a5
    51b0:	405c                	lw	a5,4(s0)
    51b2:	4018                	lw	a4,0(s0)
    51b4:	4448                	lw	a0,12(s0)
    51b6:	4414                	lw	a3,8(s0)
    51b8:	c35c                	sw	a5,4(a4)
    51ba:	c398                	sw	a4,0(a5)
    51bc:	c040                	sw	s0,4(s0)
    51be:	c000                	sw	s0,0(s0)
    51c0:	9682                	jalr	a3
    51c2:	b4cfe0ef          	jal	ra,350e <rt_tick_get>
    51c6:	000b2783          	lw	a5,0(s6)
    51ca:	84aa                	mv	s1,a0
    51cc:	854a                	mv	a0,s2
    51ce:	c391                	beqz	a5,51d2 <rt_timer_check+0x78>
    51d0:	9782                	jalr	a5
    51d2:	ff544783          	lbu	a5,-11(s0)
    51d6:	0037f713          	andi	a4,a5,3
    51da:	0fe7f793          	andi	a5,a5,254
    51de:	fef40aa3          	sb	a5,-11(s0)
    51e2:	fb5718e3          	bne	a4,s5,5192 <rt_timer_check+0x38>
    51e6:	854a                	mv	a0,s2
    51e8:	e3fff0ef          	jal	ra,5026 <rt_timer_start>
    51ec:	0009a403          	lw	s0,0(s3)
    51f0:	fb3415e3          	bne	s0,s3,519a <rt_timer_check+0x40>
    51f4:	5422                	lw	s0,40(sp)
    51f6:	50b2                	lw	ra,44(sp)
    51f8:	5492                	lw	s1,36(sp)
    51fa:	5902                	lw	s2,32(sp)
    51fc:	49f2                	lw	s3,28(sp)
    51fe:	4a62                	lw	s4,24(sp)
    5200:	4ad2                	lw	s5,20(sp)
    5202:	4b42                	lw	s6,16(sp)
    5204:	4bb2                	lw	s7,12(sp)
    5206:	8562                	mv	a0,s8
    5208:	4c22                	lw	s8,8(sp)
    520a:	6145                	addi	sp,sp,48
    520c:	ad6fe06f          	j	34e2 <rt_hw_interrupt_enable>

00005210 <rt_system_timer_init>:
    5210:	8b818793          	addi	a5,gp,-1864 # 20000278 <rt_timer_list>
    5214:	c3dc                	sw	a5,4(a5)
    5216:	c39c                	sw	a5,0(a5)
    5218:	8082                	ret

0000521a <rt_system_timer_thread_init>:
    521a:	8082                	ret

0000521c <memcmp>:
    521c:	4701                	li	a4,0
    521e:	00e61463          	bne	a2,a4,5226 <memcmp+0xa>
    5222:	4501                	li	a0,0
    5224:	8082                	ret
    5226:	00e507b3          	add	a5,a0,a4
    522a:	0705                	addi	a4,a4,1
    522c:	00e586b3          	add	a3,a1,a4
    5230:	0007c783          	lbu	a5,0(a5)
    5234:	fff6c683          	lbu	a3,-1(a3)
    5238:	fed783e3          	beq	a5,a3,521e <memcmp+0x2>
    523c:	40d78533          	sub	a0,a5,a3
    5240:	8082                	ret

00005242 <memcpy>:
    5242:	00a5c7b3          	xor	a5,a1,a0
    5246:	8b8d                	andi	a5,a5,3
    5248:	00c50733          	add	a4,a0,a2
    524c:	e781                	bnez	a5,5254 <memcpy+0x12>
    524e:	478d                	li	a5,3
    5250:	00c7ee63          	bltu	a5,a2,526c <memcpy+0x2a>
    5254:	87aa                	mv	a5,a0
    5256:	0ae57063          	bgeu	a0,a4,52f6 <memcpy+0xb4>
    525a:	0005c683          	lbu	a3,0(a1)
    525e:	0785                	addi	a5,a5,1
    5260:	0585                	addi	a1,a1,1
    5262:	fed78fa3          	sb	a3,-1(a5)
    5266:	fee7eae3          	bltu	a5,a4,525a <memcpy+0x18>
    526a:	8082                	ret
    526c:	00357693          	andi	a3,a0,3
    5270:	87aa                	mv	a5,a0
    5272:	ca91                	beqz	a3,5286 <memcpy+0x44>
    5274:	0005c683          	lbu	a3,0(a1)
    5278:	0785                	addi	a5,a5,1
    527a:	0585                	addi	a1,a1,1
    527c:	fed78fa3          	sb	a3,-1(a5)
    5280:	0037f693          	andi	a3,a5,3
    5284:	b7fd                	j	5272 <memcpy+0x30>
    5286:	ffc77693          	andi	a3,a4,-4
    528a:	fe068613          	addi	a2,a3,-32
    528e:	06c7f063          	bgeu	a5,a2,52ee <memcpy+0xac>
    5292:	0005a383          	lw	t2,0(a1)
    5296:	0045a283          	lw	t0,4(a1)
    529a:	0085af83          	lw	t6,8(a1)
    529e:	00c5af03          	lw	t5,12(a1)
    52a2:	0105ae83          	lw	t4,16(a1)
    52a6:	0145ae03          	lw	t3,20(a1)
    52aa:	0185a303          	lw	t1,24(a1)
    52ae:	01c5a883          	lw	a7,28(a1)
    52b2:	02458593          	addi	a1,a1,36
    52b6:	0077a023          	sw	t2,0(a5)
    52ba:	ffc5a803          	lw	a6,-4(a1)
    52be:	0057a223          	sw	t0,4(a5)
    52c2:	01f7a423          	sw	t6,8(a5)
    52c6:	01e7a623          	sw	t5,12(a5)
    52ca:	01d7a823          	sw	t4,16(a5)
    52ce:	01c7aa23          	sw	t3,20(a5)
    52d2:	0067ac23          	sw	t1,24(a5)
    52d6:	0117ae23          	sw	a7,28(a5)
    52da:	02478793          	addi	a5,a5,36
    52de:	ff07ae23          	sw	a6,-4(a5)
    52e2:	b775                	j	528e <memcpy+0x4c>
    52e4:	4190                	lw	a2,0(a1)
    52e6:	0791                	addi	a5,a5,4
    52e8:	0591                	addi	a1,a1,4
    52ea:	fec7ae23          	sw	a2,-4(a5)
    52ee:	fed7ebe3          	bltu	a5,a3,52e4 <memcpy+0xa2>
    52f2:	f6e7e4e3          	bltu	a5,a4,525a <memcpy+0x18>
    52f6:	8082                	ret

000052f8 <_free_r>:
    52f8:	c1cd                	beqz	a1,539a <_free_r+0xa2>
    52fa:	ffc5a783          	lw	a5,-4(a1)
    52fe:	1141                	addi	sp,sp,-16
    5300:	c422                	sw	s0,8(sp)
    5302:	c606                	sw	ra,12(sp)
    5304:	c226                	sw	s1,4(sp)
    5306:	ffc58413          	addi	s0,a1,-4
    530a:	0007d363          	bgez	a5,5310 <_free_r+0x18>
    530e:	943e                	add	s0,s0,a5
    5310:	84aa                	mv	s1,a0
    5312:	292d                	jal	574c <__malloc_lock>
    5314:	8c018793          	addi	a5,gp,-1856 # 20000280 <__malloc_free_list>
    5318:	439c                	lw	a5,0(a5)
    531a:	eb99                	bnez	a5,5330 <_free_r+0x38>
    531c:	00042223          	sw	zero,4(s0)
    5320:	8c81a023          	sw	s0,-1856(gp) # 20000280 <__malloc_free_list>
    5324:	4422                	lw	s0,8(sp)
    5326:	40b2                	lw	ra,12(sp)
    5328:	8526                	mv	a0,s1
    532a:	4492                	lw	s1,4(sp)
    532c:	0141                	addi	sp,sp,16
    532e:	a105                	j	574e <__malloc_unlock>
    5330:	00f47e63          	bgeu	s0,a5,534c <_free_r+0x54>
    5334:	4014                	lw	a3,0(s0)
    5336:	00d40733          	add	a4,s0,a3
    533a:	00e79663          	bne	a5,a4,5346 <_free_r+0x4e>
    533e:	4398                	lw	a4,0(a5)
    5340:	43dc                	lw	a5,4(a5)
    5342:	9736                	add	a4,a4,a3
    5344:	c018                	sw	a4,0(s0)
    5346:	c05c                	sw	a5,4(s0)
    5348:	bfe1                	j	5320 <_free_r+0x28>
    534a:	87ba                	mv	a5,a4
    534c:	43d8                	lw	a4,4(a5)
    534e:	c319                	beqz	a4,5354 <_free_r+0x5c>
    5350:	fee47de3          	bgeu	s0,a4,534a <_free_r+0x52>
    5354:	4394                	lw	a3,0(a5)
    5356:	00d78633          	add	a2,a5,a3
    535a:	00861f63          	bne	a2,s0,5378 <_free_r+0x80>
    535e:	4010                	lw	a2,0(s0)
    5360:	96b2                	add	a3,a3,a2
    5362:	c394                	sw	a3,0(a5)
    5364:	00d78633          	add	a2,a5,a3
    5368:	fac71ee3          	bne	a4,a2,5324 <_free_r+0x2c>
    536c:	4310                	lw	a2,0(a4)
    536e:	4358                	lw	a4,4(a4)
    5370:	96b2                	add	a3,a3,a2
    5372:	c394                	sw	a3,0(a5)
    5374:	c3d8                	sw	a4,4(a5)
    5376:	b77d                	j	5324 <_free_r+0x2c>
    5378:	00c47563          	bgeu	s0,a2,5382 <_free_r+0x8a>
    537c:	47b1                	li	a5,12
    537e:	c09c                	sw	a5,0(s1)
    5380:	b755                	j	5324 <_free_r+0x2c>
    5382:	4010                	lw	a2,0(s0)
    5384:	00c406b3          	add	a3,s0,a2
    5388:	00d71663          	bne	a4,a3,5394 <_free_r+0x9c>
    538c:	4314                	lw	a3,0(a4)
    538e:	4358                	lw	a4,4(a4)
    5390:	96b2                	add	a3,a3,a2
    5392:	c014                	sw	a3,0(s0)
    5394:	c058                	sw	a4,4(s0)
    5396:	c3c0                	sw	s0,4(a5)
    5398:	b771                	j	5324 <_free_r+0x2c>
    539a:	8082                	ret

0000539c <_malloc_r>:
    539c:	1101                	addi	sp,sp,-32
    539e:	ca26                	sw	s1,20(sp)
    53a0:	00358493          	addi	s1,a1,3
    53a4:	98f1                	andi	s1,s1,-4
    53a6:	ce06                	sw	ra,28(sp)
    53a8:	cc22                	sw	s0,24(sp)
    53aa:	c84a                	sw	s2,16(sp)
    53ac:	c64e                	sw	s3,12(sp)
    53ae:	04a1                	addi	s1,s1,8
    53b0:	47b1                	li	a5,12
    53b2:	04f4f163          	bgeu	s1,a5,53f4 <_malloc_r+0x58>
    53b6:	44b1                	li	s1,12
    53b8:	04b4e063          	bltu	s1,a1,53f8 <_malloc_r+0x5c>
    53bc:	892a                	mv	s2,a0
    53be:	2679                	jal	574c <__malloc_lock>
    53c0:	8c018793          	addi	a5,gp,-1856 # 20000280 <__malloc_free_list>
    53c4:	4398                	lw	a4,0(a5)
    53c6:	843a                	mv	s0,a4
    53c8:	e031                	bnez	s0,540c <_malloc_r+0x70>
    53ca:	8c418793          	addi	a5,gp,-1852 # 20000284 <__malloc_sbrk_start>
    53ce:	439c                	lw	a5,0(a5)
    53d0:	e791                	bnez	a5,53dc <_malloc_r+0x40>
    53d2:	4581                	li	a1,0
    53d4:	854a                	mv	a0,s2
    53d6:	28c9                	jal	54a8 <_sbrk_r>
    53d8:	8ca1a223          	sw	a0,-1852(gp) # 20000284 <__malloc_sbrk_start>
    53dc:	85a6                	mv	a1,s1
    53de:	854a                	mv	a0,s2
    53e0:	20e1                	jal	54a8 <_sbrk_r>
    53e2:	59fd                	li	s3,-1
    53e4:	07351763          	bne	a0,s3,5452 <_malloc_r+0xb6>
    53e8:	47b1                	li	a5,12
    53ea:	00f92023          	sw	a5,0(s2)
    53ee:	854a                	mv	a0,s2
    53f0:	2eb9                	jal	574e <__malloc_unlock>
    53f2:	a029                	j	53fc <_malloc_r+0x60>
    53f4:	fc04d2e3          	bgez	s1,53b8 <_malloc_r+0x1c>
    53f8:	47b1                	li	a5,12
    53fa:	c11c                	sw	a5,0(a0)
    53fc:	4501                	li	a0,0
    53fe:	40f2                	lw	ra,28(sp)
    5400:	4462                	lw	s0,24(sp)
    5402:	44d2                	lw	s1,20(sp)
    5404:	4942                	lw	s2,16(sp)
    5406:	49b2                	lw	s3,12(sp)
    5408:	6105                	addi	sp,sp,32
    540a:	8082                	ret
    540c:	401c                	lw	a5,0(s0)
    540e:	8f85                	sub	a5,a5,s1
    5410:	0207ce63          	bltz	a5,544c <_malloc_r+0xb0>
    5414:	46ad                	li	a3,11
    5416:	00f6f663          	bgeu	a3,a5,5422 <_malloc_r+0x86>
    541a:	c01c                	sw	a5,0(s0)
    541c:	943e                	add	s0,s0,a5
    541e:	c004                	sw	s1,0(s0)
    5420:	a031                	j	542c <_malloc_r+0x90>
    5422:	405c                	lw	a5,4(s0)
    5424:	02871263          	bne	a4,s0,5448 <_malloc_r+0xac>
    5428:	8cf1a023          	sw	a5,-1856(gp) # 20000280 <__malloc_free_list>
    542c:	854a                	mv	a0,s2
    542e:	2605                	jal	574e <__malloc_unlock>
    5430:	00b40513          	addi	a0,s0,11
    5434:	00440793          	addi	a5,s0,4
    5438:	9961                	andi	a0,a0,-8
    543a:	40f50733          	sub	a4,a0,a5
    543e:	d361                	beqz	a4,53fe <_malloc_r+0x62>
    5440:	943a                	add	s0,s0,a4
    5442:	8f89                	sub	a5,a5,a0
    5444:	c01c                	sw	a5,0(s0)
    5446:	bf65                	j	53fe <_malloc_r+0x62>
    5448:	c35c                	sw	a5,4(a4)
    544a:	b7cd                	j	542c <_malloc_r+0x90>
    544c:	8722                	mv	a4,s0
    544e:	4040                	lw	s0,4(s0)
    5450:	bfa5                	j	53c8 <_malloc_r+0x2c>
    5452:	00350413          	addi	s0,a0,3
    5456:	9871                	andi	s0,s0,-4
    5458:	fc8503e3          	beq	a0,s0,541e <_malloc_r+0x82>
    545c:	40a405b3          	sub	a1,s0,a0
    5460:	854a                	mv	a0,s2
    5462:	2099                	jal	54a8 <_sbrk_r>
    5464:	fb351de3          	bne	a0,s3,541e <_malloc_r+0x82>
    5468:	b741                	j	53e8 <_malloc_r+0x4c>

0000546a <iprintf>:
    546a:	7139                	addi	sp,sp,-64
    546c:	da3e                	sw	a5,52(sp)
    546e:	d22e                	sw	a1,36(sp)
    5470:	d432                	sw	a2,40(sp)
    5472:	d636                	sw	a3,44(sp)
    5474:	d83a                	sw	a4,48(sp)
    5476:	dc42                	sw	a6,56(sp)
    5478:	de46                	sw	a7,60(sp)
    547a:	80c18793          	addi	a5,gp,-2036 # 200001cc <_impure_ptr>
    547e:	cc22                	sw	s0,24(sp)
    5480:	4380                	lw	s0,0(a5)
    5482:	ca26                	sw	s1,20(sp)
    5484:	ce06                	sw	ra,28(sp)
    5486:	84aa                	mv	s1,a0
    5488:	c409                	beqz	s0,5492 <iprintf+0x28>
    548a:	4c1c                	lw	a5,24(s0)
    548c:	e399                	bnez	a5,5492 <iprintf+0x28>
    548e:	8522                	mv	a0,s0
    5490:	2291                	jal	55d4 <__sinit>
    5492:	440c                	lw	a1,8(s0)
    5494:	1054                	addi	a3,sp,36
    5496:	8626                	mv	a2,s1
    5498:	8522                	mv	a0,s0
    549a:	c636                	sw	a3,12(sp)
    549c:	2605                	jal	57bc <_vfiprintf_r>
    549e:	40f2                	lw	ra,28(sp)
    54a0:	4462                	lw	s0,24(sp)
    54a2:	44d2                	lw	s1,20(sp)
    54a4:	6121                	addi	sp,sp,64
    54a6:	8082                	ret

000054a8 <_sbrk_r>:
    54a8:	1141                	addi	sp,sp,-16
    54aa:	c422                	sw	s0,8(sp)
    54ac:	842a                	mv	s0,a0
    54ae:	852e                	mv	a0,a1
    54b0:	1fffc797          	auipc	a5,0x1fffc
    54b4:	2c07a223          	sw	zero,708(a5) # 20001774 <errno>
    54b8:	c606                	sw	ra,12(sp)
    54ba:	85cfb0ef          	jal	ra,516 <_sbrk>
    54be:	57fd                	li	a5,-1
    54c0:	00f51963          	bne	a0,a5,54d2 <_sbrk_r+0x2a>
    54c4:	1fffc797          	auipc	a5,0x1fffc
    54c8:	2b078793          	addi	a5,a5,688 # 20001774 <errno>
    54cc:	439c                	lw	a5,0(a5)
    54ce:	c391                	beqz	a5,54d2 <_sbrk_r+0x2a>
    54d0:	c01c                	sw	a5,0(s0)
    54d2:	40b2                	lw	ra,12(sp)
    54d4:	4422                	lw	s0,8(sp)
    54d6:	0141                	addi	sp,sp,16
    54d8:	8082                	ret

000054da <strlen>:
    54da:	87aa                	mv	a5,a0
    54dc:	0785                	addi	a5,a5,1
    54de:	fff7c703          	lbu	a4,-1(a5)
    54e2:	ff6d                	bnez	a4,54dc <strlen+0x2>
    54e4:	40a78533          	sub	a0,a5,a0
    54e8:	157d                	addi	a0,a0,-1
    54ea:	8082                	ret

000054ec <strncmp>:
    54ec:	c605                	beqz	a2,5514 <strncmp+0x28>
    54ee:	167d                	addi	a2,a2,-1
    54f0:	4701                	li	a4,0
    54f2:	00e507b3          	add	a5,a0,a4
    54f6:	00e586b3          	add	a3,a1,a4
    54fa:	0007c783          	lbu	a5,0(a5)
    54fe:	0006c683          	lbu	a3,0(a3)
    5502:	00d79663          	bne	a5,a3,550e <strncmp+0x22>
    5506:	00c70463          	beq	a4,a2,550e <strncmp+0x22>
    550a:	0705                	addi	a4,a4,1
    550c:	f3fd                	bnez	a5,54f2 <strncmp+0x6>
    550e:	40d78533          	sub	a0,a5,a3
    5512:	8082                	ret
    5514:	4501                	li	a0,0
    5516:	8082                	ret

00005518 <std>:
    5518:	1141                	addi	sp,sp,-16
    551a:	c422                	sw	s0,8(sp)
    551c:	c606                	sw	ra,12(sp)
    551e:	842a                	mv	s0,a0
    5520:	00b51623          	sh	a1,12(a0)
    5524:	00c51723          	sh	a2,14(a0)
    5528:	00052023          	sw	zero,0(a0)
    552c:	00052223          	sw	zero,4(a0)
    5530:	00052423          	sw	zero,8(a0)
    5534:	06052223          	sw	zero,100(a0)
    5538:	00052823          	sw	zero,16(a0)
    553c:	00052a23          	sw	zero,20(a0)
    5540:	00052c23          	sw	zero,24(a0)
    5544:	4621                	li	a2,8
    5546:	4581                	li	a1,0
    5548:	05c50513          	addi	a0,a0,92
    554c:	e27fa0ef          	jal	ra,372 <memset>
    5550:	00001797          	auipc	a5,0x1
    5554:	8c478793          	addi	a5,a5,-1852 # 5e14 <__sread>
    5558:	d05c                	sw	a5,36(s0)
    555a:	00001797          	auipc	a5,0x1
    555e:	8ea78793          	addi	a5,a5,-1814 # 5e44 <__swrite>
    5562:	d41c                	sw	a5,40(s0)
    5564:	00001797          	auipc	a5,0x1
    5568:	92e78793          	addi	a5,a5,-1746 # 5e92 <__sseek>
    556c:	d45c                	sw	a5,44(s0)
    556e:	00001797          	auipc	a5,0x1
    5572:	95a78793          	addi	a5,a5,-1702 # 5ec8 <__sclose>
    5576:	d000                	sw	s0,32(s0)
    5578:	d81c                	sw	a5,48(s0)
    557a:	40b2                	lw	ra,12(sp)
    557c:	4422                	lw	s0,8(sp)
    557e:	0141                	addi	sp,sp,16
    5580:	8082                	ret

00005582 <_cleanup_r>:
    5582:	00001597          	auipc	a1,0x1
    5586:	cc258593          	addi	a1,a1,-830 # 6244 <_fflush_r>
    558a:	aa99                	j	56e0 <_fwalk_reent>

0000558c <__sfmoreglue>:
    558c:	1141                	addi	sp,sp,-16
    558e:	c226                	sw	s1,4(sp)
    5590:	06800613          	li	a2,104
    5594:	fff58493          	addi	s1,a1,-1
    5598:	02c484b3          	mul	s1,s1,a2
    559c:	c04a                	sw	s2,0(sp)
    559e:	892e                	mv	s2,a1
    55a0:	c422                	sw	s0,8(sp)
    55a2:	c606                	sw	ra,12(sp)
    55a4:	07448593          	addi	a1,s1,116
    55a8:	df5ff0ef          	jal	ra,539c <_malloc_r>
    55ac:	842a                	mv	s0,a0
    55ae:	cd01                	beqz	a0,55c6 <__sfmoreglue+0x3a>
    55b0:	00052023          	sw	zero,0(a0)
    55b4:	01252223          	sw	s2,4(a0)
    55b8:	0531                	addi	a0,a0,12
    55ba:	c408                	sw	a0,8(s0)
    55bc:	06848613          	addi	a2,s1,104
    55c0:	4581                	li	a1,0
    55c2:	db1fa0ef          	jal	ra,372 <memset>
    55c6:	8522                	mv	a0,s0
    55c8:	40b2                	lw	ra,12(sp)
    55ca:	4422                	lw	s0,8(sp)
    55cc:	4492                	lw	s1,4(sp)
    55ce:	4902                	lw	s2,0(sp)
    55d0:	0141                	addi	sp,sp,16
    55d2:	8082                	ret

000055d4 <__sinit>:
    55d4:	4d1c                	lw	a5,24(a0)
    55d6:	e7a5                	bnez	a5,563e <__sinit+0x6a>
    55d8:	1141                	addi	sp,sp,-16
    55da:	c606                	sw	ra,12(sp)
    55dc:	c422                	sw	s0,8(sp)
    55de:	00000797          	auipc	a5,0x0
    55e2:	fa478793          	addi	a5,a5,-92 # 5582 <_cleanup_r>
    55e6:	d51c                	sw	a5,40(a0)
    55e8:	81018793          	addi	a5,gp,-2032 # 200001d0 <_global_impure_ptr>
    55ec:	439c                	lw	a5,0(a5)
    55ee:	04052423          	sw	zero,72(a0)
    55f2:	04052623          	sw	zero,76(a0)
    55f6:	04052823          	sw	zero,80(a0)
    55fa:	00f51463          	bne	a0,a5,5602 <__sinit+0x2e>
    55fe:	4785                	li	a5,1
    5600:	cd1c                	sw	a5,24(a0)
    5602:	842a                	mv	s0,a0
    5604:	2835                	jal	5640 <__sfp>
    5606:	c048                	sw	a0,4(s0)
    5608:	8522                	mv	a0,s0
    560a:	281d                	jal	5640 <__sfp>
    560c:	c408                	sw	a0,8(s0)
    560e:	8522                	mv	a0,s0
    5610:	2805                	jal	5640 <__sfp>
    5612:	c448                	sw	a0,12(s0)
    5614:	4048                	lw	a0,4(s0)
    5616:	4601                	li	a2,0
    5618:	4591                	li	a1,4
    561a:	effff0ef          	jal	ra,5518 <std>
    561e:	4408                	lw	a0,8(s0)
    5620:	4605                	li	a2,1
    5622:	45a5                	li	a1,9
    5624:	ef5ff0ef          	jal	ra,5518 <std>
    5628:	4448                	lw	a0,12(s0)
    562a:	4609                	li	a2,2
    562c:	45c9                	li	a1,18
    562e:	eebff0ef          	jal	ra,5518 <std>
    5632:	4785                	li	a5,1
    5634:	cc1c                	sw	a5,24(s0)
    5636:	40b2                	lw	ra,12(sp)
    5638:	4422                	lw	s0,8(sp)
    563a:	0141                	addi	sp,sp,16
    563c:	8082                	ret
    563e:	8082                	ret

00005640 <__sfp>:
    5640:	1141                	addi	sp,sp,-16
    5642:	81018793          	addi	a5,gp,-2032 # 200001d0 <_global_impure_ptr>
    5646:	c226                	sw	s1,4(sp)
    5648:	4384                	lw	s1,0(a5)
    564a:	c04a                	sw	s2,0(sp)
    564c:	c606                	sw	ra,12(sp)
    564e:	4c9c                	lw	a5,24(s1)
    5650:	c422                	sw	s0,8(sp)
    5652:	892a                	mv	s2,a0
    5654:	e781                	bnez	a5,565c <__sfp+0x1c>
    5656:	8526                	mv	a0,s1
    5658:	f7dff0ef          	jal	ra,55d4 <__sinit>
    565c:	04848493          	addi	s1,s1,72
    5660:	4480                	lw	s0,8(s1)
    5662:	40dc                	lw	a5,4(s1)
    5664:	17fd                	addi	a5,a5,-1
    5666:	0007d663          	bgez	a5,5672 <__sfp+0x32>
    566a:	409c                	lw	a5,0(s1)
    566c:	cfb9                	beqz	a5,56ca <__sfp+0x8a>
    566e:	4084                	lw	s1,0(s1)
    5670:	bfc5                	j	5660 <__sfp+0x20>
    5672:	00c41703          	lh	a4,12(s0)
    5676:	e739                	bnez	a4,56c4 <__sfp+0x84>
    5678:	77c1                	lui	a5,0xffff0
    567a:	0785                	addi	a5,a5,1
    567c:	06042223          	sw	zero,100(s0)
    5680:	00042023          	sw	zero,0(s0)
    5684:	00042223          	sw	zero,4(s0)
    5688:	00042423          	sw	zero,8(s0)
    568c:	c45c                	sw	a5,12(s0)
    568e:	00042823          	sw	zero,16(s0)
    5692:	00042a23          	sw	zero,20(s0)
    5696:	00042c23          	sw	zero,24(s0)
    569a:	4621                	li	a2,8
    569c:	4581                	li	a1,0
    569e:	05c40513          	addi	a0,s0,92
    56a2:	cd1fa0ef          	jal	ra,372 <memset>
    56a6:	02042a23          	sw	zero,52(s0)
    56aa:	02042c23          	sw	zero,56(s0)
    56ae:	04042423          	sw	zero,72(s0)
    56b2:	04042623          	sw	zero,76(s0)
    56b6:	8522                	mv	a0,s0
    56b8:	40b2                	lw	ra,12(sp)
    56ba:	4422                	lw	s0,8(sp)
    56bc:	4492                	lw	s1,4(sp)
    56be:	4902                	lw	s2,0(sp)
    56c0:	0141                	addi	sp,sp,16
    56c2:	8082                	ret
    56c4:	06840413          	addi	s0,s0,104
    56c8:	bf71                	j	5664 <__sfp+0x24>
    56ca:	4591                	li	a1,4
    56cc:	854a                	mv	a0,s2
    56ce:	ebfff0ef          	jal	ra,558c <__sfmoreglue>
    56d2:	c088                	sw	a0,0(s1)
    56d4:	fd49                	bnez	a0,566e <__sfp+0x2e>
    56d6:	47b1                	li	a5,12
    56d8:	00f92023          	sw	a5,0(s2)
    56dc:	4401                	li	s0,0
    56de:	bfe1                	j	56b6 <__sfp+0x76>

000056e0 <_fwalk_reent>:
    56e0:	7179                	addi	sp,sp,-48
    56e2:	d422                	sw	s0,40(sp)
    56e4:	d04a                	sw	s2,32(sp)
    56e6:	cc52                	sw	s4,24(sp)
    56e8:	ca56                	sw	s5,20(sp)
    56ea:	c85a                	sw	s6,16(sp)
    56ec:	c65e                	sw	s7,12(sp)
    56ee:	d606                	sw	ra,44(sp)
    56f0:	d226                	sw	s1,36(sp)
    56f2:	ce4e                	sw	s3,28(sp)
    56f4:	8a2a                	mv	s4,a0
    56f6:	8aae                	mv	s5,a1
    56f8:	04850413          	addi	s0,a0,72
    56fc:	4901                	li	s2,0
    56fe:	4b05                	li	s6,1
    5700:	5bfd                	li	s7,-1
    5702:	ec09                	bnez	s0,571c <_fwalk_reent+0x3c>
    5704:	50b2                	lw	ra,44(sp)
    5706:	5422                	lw	s0,40(sp)
    5708:	854a                	mv	a0,s2
    570a:	5492                	lw	s1,36(sp)
    570c:	5902                	lw	s2,32(sp)
    570e:	49f2                	lw	s3,28(sp)
    5710:	4a62                	lw	s4,24(sp)
    5712:	4ad2                	lw	s5,20(sp)
    5714:	4b42                	lw	s6,16(sp)
    5716:	4bb2                	lw	s7,12(sp)
    5718:	6145                	addi	sp,sp,48
    571a:	8082                	ret
    571c:	4404                	lw	s1,8(s0)
    571e:	00442983          	lw	s3,4(s0)
    5722:	19fd                	addi	s3,s3,-1
    5724:	0009d463          	bgez	s3,572c <_fwalk_reent+0x4c>
    5728:	4000                	lw	s0,0(s0)
    572a:	bfe1                	j	5702 <_fwalk_reent+0x22>
    572c:	00c4d783          	lhu	a5,12(s1)
    5730:	00fb7b63          	bgeu	s6,a5,5746 <_fwalk_reent+0x66>
    5734:	00e49783          	lh	a5,14(s1)
    5738:	01778763          	beq	a5,s7,5746 <_fwalk_reent+0x66>
    573c:	85a6                	mv	a1,s1
    573e:	8552                	mv	a0,s4
    5740:	9a82                	jalr	s5
    5742:	00a96933          	or	s2,s2,a0
    5746:	06848493          	addi	s1,s1,104
    574a:	bfe1                	j	5722 <_fwalk_reent+0x42>

0000574c <__malloc_lock>:
    574c:	8082                	ret

0000574e <__malloc_unlock>:
    574e:	8082                	ret

00005750 <__sfputc_r>:
    5750:	461c                	lw	a5,8(a2)
    5752:	17fd                	addi	a5,a5,-1
    5754:	c61c                	sw	a5,8(a2)
    5756:	0007d963          	bgez	a5,5768 <__sfputc_r+0x18>
    575a:	4e18                	lw	a4,24(a2)
    575c:	00e7c563          	blt	a5,a4,5766 <__sfputc_r+0x16>
    5760:	47a9                	li	a5,10
    5762:	00f59363          	bne	a1,a5,5768 <__sfputc_r+0x18>
    5766:	a7a5                	j	5ece <__swbuf_r>
    5768:	421c                	lw	a5,0(a2)
    576a:	852e                	mv	a0,a1
    576c:	00178713          	addi	a4,a5,1 # ffff0001 <_eusrstack+0xdffe0001>
    5770:	c218                	sw	a4,0(a2)
    5772:	00b78023          	sb	a1,0(a5)
    5776:	8082                	ret

00005778 <__sfputs_r>:
    5778:	1101                	addi	sp,sp,-32
    577a:	cc22                	sw	s0,24(sp)
    577c:	ca26                	sw	s1,20(sp)
    577e:	c84a                	sw	s2,16(sp)
    5780:	c64e                	sw	s3,12(sp)
    5782:	c452                	sw	s4,8(sp)
    5784:	ce06                	sw	ra,28(sp)
    5786:	892a                	mv	s2,a0
    5788:	89ae                	mv	s3,a1
    578a:	8432                	mv	s0,a2
    578c:	00d604b3          	add	s1,a2,a3
    5790:	5a7d                	li	s4,-1
    5792:	00941463          	bne	s0,s1,579a <__sfputs_r+0x22>
    5796:	4501                	li	a0,0
    5798:	a811                	j	57ac <__sfputs_r+0x34>
    579a:	00044583          	lbu	a1,0(s0)
    579e:	864e                	mv	a2,s3
    57a0:	854a                	mv	a0,s2
    57a2:	fafff0ef          	jal	ra,5750 <__sfputc_r>
    57a6:	0405                	addi	s0,s0,1
    57a8:	ff4515e3          	bne	a0,s4,5792 <__sfputs_r+0x1a>
    57ac:	40f2                	lw	ra,28(sp)
    57ae:	4462                	lw	s0,24(sp)
    57b0:	44d2                	lw	s1,20(sp)
    57b2:	4942                	lw	s2,16(sp)
    57b4:	49b2                	lw	s3,12(sp)
    57b6:	4a22                	lw	s4,8(sp)
    57b8:	6105                	addi	sp,sp,32
    57ba:	8082                	ret

000057bc <_vfiprintf_r>:
    57bc:	7135                	addi	sp,sp,-160
    57be:	cd22                	sw	s0,152(sp)
    57c0:	cb26                	sw	s1,148(sp)
    57c2:	c94a                	sw	s2,144(sp)
    57c4:	c74e                	sw	s3,140(sp)
    57c6:	cf06                	sw	ra,156(sp)
    57c8:	c552                	sw	s4,136(sp)
    57ca:	c356                	sw	s5,132(sp)
    57cc:	c15a                	sw	s6,128(sp)
    57ce:	dede                	sw	s7,124(sp)
    57d0:	dce2                	sw	s8,120(sp)
    57d2:	dae6                	sw	s9,116(sp)
    57d4:	89aa                	mv	s3,a0
    57d6:	84ae                	mv	s1,a1
    57d8:	8932                	mv	s2,a2
    57da:	8436                	mv	s0,a3
    57dc:	c509                	beqz	a0,57e6 <_vfiprintf_r+0x2a>
    57de:	4d1c                	lw	a5,24(a0)
    57e0:	e399                	bnez	a5,57e6 <_vfiprintf_r+0x2a>
    57e2:	df3ff0ef          	jal	ra,55d4 <__sinit>
    57e6:	00002797          	auipc	a5,0x2
    57ea:	3d278793          	addi	a5,a5,978 # 7bb8 <__sf_fake_stdin>
    57ee:	0cf49d63          	bne	s1,a5,58c8 <_vfiprintf_r+0x10c>
    57f2:	0049a483          	lw	s1,4(s3)
    57f6:	00c4d783          	lhu	a5,12(s1)
    57fa:	8ba1                	andi	a5,a5,8
    57fc:	cbe5                	beqz	a5,58ec <_vfiprintf_r+0x130>
    57fe:	489c                	lw	a5,16(s1)
    5800:	c7f5                	beqz	a5,58ec <_vfiprintf_r+0x130>
    5802:	02000793          	li	a5,32
    5806:	02f104a3          	sb	a5,41(sp)
    580a:	03000793          	li	a5,48
    580e:	d202                	sw	zero,36(sp)
    5810:	02f10523          	sb	a5,42(sp)
    5814:	c622                	sw	s0,12(sp)
    5816:	02500b93          	li	s7,37
    581a:	00002a97          	auipc	s5,0x2
    581e:	3dea8a93          	addi	s5,s5,990 # 7bf8 <__sf_fake_stdout+0x20>
    5822:	4c05                	li	s8,1
    5824:	4b29                	li	s6,10
    5826:	844a                	mv	s0,s2
    5828:	00044783          	lbu	a5,0(s0)
    582c:	c399                	beqz	a5,5832 <_vfiprintf_r+0x76>
    582e:	0f779163          	bne	a5,s7,5910 <_vfiprintf_r+0x154>
    5832:	41240cb3          	sub	s9,s0,s2
    5836:	000c8e63          	beqz	s9,5852 <_vfiprintf_r+0x96>
    583a:	86e6                	mv	a3,s9
    583c:	864a                	mv	a2,s2
    583e:	85a6                	mv	a1,s1
    5840:	854e                	mv	a0,s3
    5842:	f37ff0ef          	jal	ra,5778 <__sfputs_r>
    5846:	57fd                	li	a5,-1
    5848:	1ef50863          	beq	a0,a5,5a38 <_vfiprintf_r+0x27c>
    584c:	5692                	lw	a3,36(sp)
    584e:	96e6                	add	a3,a3,s9
    5850:	d236                	sw	a3,36(sp)
    5852:	00044783          	lbu	a5,0(s0)
    5856:	1e078163          	beqz	a5,5a38 <_vfiprintf_r+0x27c>
    585a:	57fd                	li	a5,-1
    585c:	00140913          	addi	s2,s0,1
    5860:	c802                	sw	zero,16(sp)
    5862:	ce02                	sw	zero,28(sp)
    5864:	ca3e                	sw	a5,20(sp)
    5866:	cc02                	sw	zero,24(sp)
    5868:	040109a3          	sb	zero,83(sp)
    586c:	d482                	sw	zero,104(sp)
    586e:	00094583          	lbu	a1,0(s2)
    5872:	4615                	li	a2,5
    5874:	8556                	mv	a0,s5
    5876:	363000ef          	jal	ra,63d8 <memchr>
    587a:	00190413          	addi	s0,s2,1
    587e:	47c2                	lw	a5,16(sp)
    5880:	e951                	bnez	a0,5914 <_vfiprintf_r+0x158>
    5882:	0107f713          	andi	a4,a5,16
    5886:	c709                	beqz	a4,5890 <_vfiprintf_r+0xd4>
    5888:	02000713          	li	a4,32
    588c:	04e109a3          	sb	a4,83(sp)
    5890:	0087f713          	andi	a4,a5,8
    5894:	c709                	beqz	a4,589e <_vfiprintf_r+0xe2>
    5896:	02b00713          	li	a4,43
    589a:	04e109a3          	sb	a4,83(sp)
    589e:	00094683          	lbu	a3,0(s2)
    58a2:	02a00713          	li	a4,42
    58a6:	06e68f63          	beq	a3,a4,5924 <_vfiprintf_r+0x168>
    58aa:	47f2                	lw	a5,28(sp)
    58ac:	844a                	mv	s0,s2
    58ae:	4681                	li	a3,0
    58b0:	4625                	li	a2,9
    58b2:	00044703          	lbu	a4,0(s0)
    58b6:	00140593          	addi	a1,s0,1
    58ba:	fd070713          	addi	a4,a4,-48
    58be:	0ae67863          	bgeu	a2,a4,596e <_vfiprintf_r+0x1b2>
    58c2:	caad                	beqz	a3,5934 <_vfiprintf_r+0x178>
    58c4:	ce3e                	sw	a5,28(sp)
    58c6:	a0bd                	j	5934 <_vfiprintf_r+0x178>
    58c8:	00002797          	auipc	a5,0x2
    58cc:	31078793          	addi	a5,a5,784 # 7bd8 <__sf_fake_stdout>
    58d0:	00f49563          	bne	s1,a5,58da <_vfiprintf_r+0x11e>
    58d4:	0089a483          	lw	s1,8(s3)
    58d8:	bf39                	j	57f6 <_vfiprintf_r+0x3a>
    58da:	00002797          	auipc	a5,0x2
    58de:	2be78793          	addi	a5,a5,702 # 7b98 <__sf_fake_stderr>
    58e2:	f0f49ae3          	bne	s1,a5,57f6 <_vfiprintf_r+0x3a>
    58e6:	00c9a483          	lw	s1,12(s3)
    58ea:	b731                	j	57f6 <_vfiprintf_r+0x3a>
    58ec:	85a6                	mv	a1,s1
    58ee:	854e                	mv	a0,s3
    58f0:	2dd9                	jal	5fc6 <__swsetup_r>
    58f2:	d901                	beqz	a0,5802 <_vfiprintf_r+0x46>
    58f4:	557d                	li	a0,-1
    58f6:	40fa                	lw	ra,156(sp)
    58f8:	446a                	lw	s0,152(sp)
    58fa:	44da                	lw	s1,148(sp)
    58fc:	494a                	lw	s2,144(sp)
    58fe:	49ba                	lw	s3,140(sp)
    5900:	4a2a                	lw	s4,136(sp)
    5902:	4a9a                	lw	s5,132(sp)
    5904:	4b0a                	lw	s6,128(sp)
    5906:	5bf6                	lw	s7,124(sp)
    5908:	5c66                	lw	s8,120(sp)
    590a:	5cd6                	lw	s9,116(sp)
    590c:	610d                	addi	sp,sp,160
    590e:	8082                	ret
    5910:	0405                	addi	s0,s0,1
    5912:	bf19                	j	5828 <_vfiprintf_r+0x6c>
    5914:	41550533          	sub	a0,a0,s5
    5918:	00ac1533          	sll	a0,s8,a0
    591c:	8fc9                	or	a5,a5,a0
    591e:	c83e                	sw	a5,16(sp)
    5920:	8922                	mv	s2,s0
    5922:	b7b1                	j	586e <_vfiprintf_r+0xb2>
    5924:	4732                	lw	a4,12(sp)
    5926:	00470693          	addi	a3,a4,4
    592a:	4318                	lw	a4,0(a4)
    592c:	c636                	sw	a3,12(sp)
    592e:	02074963          	bltz	a4,5960 <_vfiprintf_r+0x1a4>
    5932:	ce3a                	sw	a4,28(sp)
    5934:	00044703          	lbu	a4,0(s0)
    5938:	02e00793          	li	a5,46
    593c:	04f71f63          	bne	a4,a5,599a <_vfiprintf_r+0x1de>
    5940:	00144703          	lbu	a4,1(s0)
    5944:	02a00793          	li	a5,42
    5948:	02f71b63          	bne	a4,a5,597e <_vfiprintf_r+0x1c2>
    594c:	47b2                	lw	a5,12(sp)
    594e:	0409                	addi	s0,s0,2
    5950:	00478713          	addi	a4,a5,4
    5954:	439c                	lw	a5,0(a5)
    5956:	c63a                	sw	a4,12(sp)
    5958:	0207c163          	bltz	a5,597a <_vfiprintf_r+0x1be>
    595c:	ca3e                	sw	a5,20(sp)
    595e:	a835                	j	599a <_vfiprintf_r+0x1de>
    5960:	40e00733          	neg	a4,a4
    5964:	0027e793          	ori	a5,a5,2
    5968:	ce3a                	sw	a4,28(sp)
    596a:	c83e                	sw	a5,16(sp)
    596c:	b7e1                	j	5934 <_vfiprintf_r+0x178>
    596e:	036787b3          	mul	a5,a5,s6
    5972:	4685                	li	a3,1
    5974:	842e                	mv	s0,a1
    5976:	97ba                	add	a5,a5,a4
    5978:	bf2d                	j	58b2 <_vfiprintf_r+0xf6>
    597a:	57fd                	li	a5,-1
    597c:	b7c5                	j	595c <_vfiprintf_r+0x1a0>
    597e:	0405                	addi	s0,s0,1
    5980:	ca02                	sw	zero,20(sp)
    5982:	4681                	li	a3,0
    5984:	4781                	li	a5,0
    5986:	4625                	li	a2,9
    5988:	00044703          	lbu	a4,0(s0)
    598c:	00140593          	addi	a1,s0,1
    5990:	fd070713          	addi	a4,a4,-48
    5994:	06e67863          	bgeu	a2,a4,5a04 <_vfiprintf_r+0x248>
    5998:	f2f1                	bnez	a3,595c <_vfiprintf_r+0x1a0>
    599a:	00044583          	lbu	a1,0(s0)
    599e:	460d                	li	a2,3
    59a0:	00002517          	auipc	a0,0x2
    59a4:	26050513          	addi	a0,a0,608 # 7c00 <__sf_fake_stdout+0x28>
    59a8:	231000ef          	jal	ra,63d8 <memchr>
    59ac:	cd11                	beqz	a0,59c8 <_vfiprintf_r+0x20c>
    59ae:	00002797          	auipc	a5,0x2
    59b2:	25278793          	addi	a5,a5,594 # 7c00 <__sf_fake_stdout+0x28>
    59b6:	8d1d                	sub	a0,a0,a5
    59b8:	04000793          	li	a5,64
    59bc:	00a797b3          	sll	a5,a5,a0
    59c0:	4542                	lw	a0,16(sp)
    59c2:	0405                	addi	s0,s0,1
    59c4:	8d5d                	or	a0,a0,a5
    59c6:	c82a                	sw	a0,16(sp)
    59c8:	00044583          	lbu	a1,0(s0)
    59cc:	4619                	li	a2,6
    59ce:	00002517          	auipc	a0,0x2
    59d2:	23650513          	addi	a0,a0,566 # 7c04 <__sf_fake_stdout+0x2c>
    59d6:	00140913          	addi	s2,s0,1
    59da:	02b10423          	sb	a1,40(sp)
    59de:	1fb000ef          	jal	ra,63d8 <memchr>
    59e2:	c13d                	beqz	a0,5a48 <_vfiprintf_r+0x28c>
    59e4:	ffffa797          	auipc	a5,0xffffa
    59e8:	61c78793          	addi	a5,a5,1564 # 0 <_sinit>
    59ec:	e795                	bnez	a5,5a18 <_vfiprintf_r+0x25c>
    59ee:	4742                	lw	a4,16(sp)
    59f0:	47b2                	lw	a5,12(sp)
    59f2:	10077713          	andi	a4,a4,256
    59f6:	cf09                	beqz	a4,5a10 <_vfiprintf_r+0x254>
    59f8:	0791                	addi	a5,a5,4
    59fa:	c63e                	sw	a5,12(sp)
    59fc:	5792                	lw	a5,36(sp)
    59fe:	97d2                	add	a5,a5,s4
    5a00:	d23e                	sw	a5,36(sp)
    5a02:	b515                	j	5826 <_vfiprintf_r+0x6a>
    5a04:	036787b3          	mul	a5,a5,s6
    5a08:	4685                	li	a3,1
    5a0a:	842e                	mv	s0,a1
    5a0c:	97ba                	add	a5,a5,a4
    5a0e:	bfad                	j	5988 <_vfiprintf_r+0x1cc>
    5a10:	079d                	addi	a5,a5,7
    5a12:	9be1                	andi	a5,a5,-8
    5a14:	07a1                	addi	a5,a5,8
    5a16:	b7d5                	j	59fa <_vfiprintf_r+0x23e>
    5a18:	0078                	addi	a4,sp,12
    5a1a:	00000697          	auipc	a3,0x0
    5a1e:	d5e68693          	addi	a3,a3,-674 # 5778 <__sfputs_r>
    5a22:	8626                	mv	a2,s1
    5a24:	080c                	addi	a1,sp,16
    5a26:	854e                	mv	a0,s3
    5a28:	00000097          	auipc	ra,0x0
    5a2c:	000000e7          	jalr	zero # 0 <_sinit>
    5a30:	57fd                	li	a5,-1
    5a32:	8a2a                	mv	s4,a0
    5a34:	fcf514e3          	bne	a0,a5,59fc <_vfiprintf_r+0x240>
    5a38:	00c4d783          	lhu	a5,12(s1)
    5a3c:	0407f793          	andi	a5,a5,64
    5a40:	ea079ae3          	bnez	a5,58f4 <_vfiprintf_r+0x138>
    5a44:	5512                	lw	a0,36(sp)
    5a46:	bd45                	j	58f6 <_vfiprintf_r+0x13a>
    5a48:	0078                	addi	a4,sp,12
    5a4a:	00000697          	auipc	a3,0x0
    5a4e:	d2e68693          	addi	a3,a3,-722 # 5778 <__sfputs_r>
    5a52:	8626                	mv	a2,s1
    5a54:	080c                	addi	a1,sp,16
    5a56:	854e                	mv	a0,s3
    5a58:	2a01                	jal	5b68 <_printf_i>
    5a5a:	bfd9                	j	5a30 <_vfiprintf_r+0x274>

00005a5c <_printf_common>:
    5a5c:	7179                	addi	sp,sp,-48
    5a5e:	ca56                	sw	s5,20(sp)
    5a60:	499c                	lw	a5,16(a1)
    5a62:	8aba                	mv	s5,a4
    5a64:	4598                	lw	a4,8(a1)
    5a66:	d422                	sw	s0,40(sp)
    5a68:	d226                	sw	s1,36(sp)
    5a6a:	ce4e                	sw	s3,28(sp)
    5a6c:	cc52                	sw	s4,24(sp)
    5a6e:	d606                	sw	ra,44(sp)
    5a70:	d04a                	sw	s2,32(sp)
    5a72:	c85a                	sw	s6,16(sp)
    5a74:	c65e                	sw	s7,12(sp)
    5a76:	89aa                	mv	s3,a0
    5a78:	842e                	mv	s0,a1
    5a7a:	84b2                	mv	s1,a2
    5a7c:	8a36                	mv	s4,a3
    5a7e:	00e7d363          	bge	a5,a4,5a84 <_printf_common+0x28>
    5a82:	87ba                	mv	a5,a4
    5a84:	c09c                	sw	a5,0(s1)
    5a86:	04344703          	lbu	a4,67(s0)
    5a8a:	c319                	beqz	a4,5a90 <_printf_common+0x34>
    5a8c:	0785                	addi	a5,a5,1
    5a8e:	c09c                	sw	a5,0(s1)
    5a90:	401c                	lw	a5,0(s0)
    5a92:	0207f793          	andi	a5,a5,32
    5a96:	c781                	beqz	a5,5a9e <_printf_common+0x42>
    5a98:	409c                	lw	a5,0(s1)
    5a9a:	0789                	addi	a5,a5,2
    5a9c:	c09c                	sw	a5,0(s1)
    5a9e:	00042903          	lw	s2,0(s0)
    5aa2:	00697913          	andi	s2,s2,6
    5aa6:	00091a63          	bnez	s2,5aba <_printf_common+0x5e>
    5aaa:	01940b13          	addi	s6,s0,25
    5aae:	5bfd                	li	s7,-1
    5ab0:	445c                	lw	a5,12(s0)
    5ab2:	4098                	lw	a4,0(s1)
    5ab4:	8f99                	sub	a5,a5,a4
    5ab6:	04f94c63          	blt	s2,a5,5b0e <_printf_common+0xb2>
    5aba:	401c                	lw	a5,0(s0)
    5abc:	04344683          	lbu	a3,67(s0)
    5ac0:	0207f793          	andi	a5,a5,32
    5ac4:	00d036b3          	snez	a3,a3
    5ac8:	eba5                	bnez	a5,5b38 <_printf_common+0xdc>
    5aca:	04340613          	addi	a2,s0,67
    5ace:	85d2                	mv	a1,s4
    5ad0:	854e                	mv	a0,s3
    5ad2:	9a82                	jalr	s5
    5ad4:	57fd                	li	a5,-1
    5ad6:	04f50363          	beq	a0,a5,5b1c <_printf_common+0xc0>
    5ada:	401c                	lw	a5,0(s0)
    5adc:	4611                	li	a2,4
    5ade:	4098                	lw	a4,0(s1)
    5ae0:	8b99                	andi	a5,a5,6
    5ae2:	4454                	lw	a3,12(s0)
    5ae4:	4481                	li	s1,0
    5ae6:	00c79763          	bne	a5,a2,5af4 <_printf_common+0x98>
    5aea:	40e684b3          	sub	s1,a3,a4
    5aee:	0004d363          	bgez	s1,5af4 <_printf_common+0x98>
    5af2:	4481                	li	s1,0
    5af4:	441c                	lw	a5,8(s0)
    5af6:	4818                	lw	a4,16(s0)
    5af8:	00f75463          	bge	a4,a5,5b00 <_printf_common+0xa4>
    5afc:	8f99                	sub	a5,a5,a4
    5afe:	94be                	add	s1,s1,a5
    5b00:	4901                	li	s2,0
    5b02:	0469                	addi	s0,s0,26
    5b04:	5b7d                	li	s6,-1
    5b06:	05249863          	bne	s1,s2,5b56 <_printf_common+0xfa>
    5b0a:	4501                	li	a0,0
    5b0c:	a809                	j	5b1e <_printf_common+0xc2>
    5b0e:	4685                	li	a3,1
    5b10:	865a                	mv	a2,s6
    5b12:	85d2                	mv	a1,s4
    5b14:	854e                	mv	a0,s3
    5b16:	9a82                	jalr	s5
    5b18:	01751e63          	bne	a0,s7,5b34 <_printf_common+0xd8>
    5b1c:	557d                	li	a0,-1
    5b1e:	50b2                	lw	ra,44(sp)
    5b20:	5422                	lw	s0,40(sp)
    5b22:	5492                	lw	s1,36(sp)
    5b24:	5902                	lw	s2,32(sp)
    5b26:	49f2                	lw	s3,28(sp)
    5b28:	4a62                	lw	s4,24(sp)
    5b2a:	4ad2                	lw	s5,20(sp)
    5b2c:	4b42                	lw	s6,16(sp)
    5b2e:	4bb2                	lw	s7,12(sp)
    5b30:	6145                	addi	sp,sp,48
    5b32:	8082                	ret
    5b34:	0905                	addi	s2,s2,1
    5b36:	bfad                	j	5ab0 <_printf_common+0x54>
    5b38:	00d40733          	add	a4,s0,a3
    5b3c:	03000613          	li	a2,48
    5b40:	04c701a3          	sb	a2,67(a4)
    5b44:	04544703          	lbu	a4,69(s0)
    5b48:	00168793          	addi	a5,a3,1
    5b4c:	97a2                	add	a5,a5,s0
    5b4e:	0689                	addi	a3,a3,2
    5b50:	04e781a3          	sb	a4,67(a5)
    5b54:	bf9d                	j	5aca <_printf_common+0x6e>
    5b56:	4685                	li	a3,1
    5b58:	8622                	mv	a2,s0
    5b5a:	85d2                	mv	a1,s4
    5b5c:	854e                	mv	a0,s3
    5b5e:	9a82                	jalr	s5
    5b60:	fb650ee3          	beq	a0,s6,5b1c <_printf_common+0xc0>
    5b64:	0905                	addi	s2,s2,1
    5b66:	b745                	j	5b06 <_printf_common+0xaa>

00005b68 <_printf_i>:
    5b68:	7179                	addi	sp,sp,-48
    5b6a:	d422                	sw	s0,40(sp)
    5b6c:	d226                	sw	s1,36(sp)
    5b6e:	d04a                	sw	s2,32(sp)
    5b70:	ce4e                	sw	s3,28(sp)
    5b72:	d606                	sw	ra,44(sp)
    5b74:	cc52                	sw	s4,24(sp)
    5b76:	ca56                	sw	s5,20(sp)
    5b78:	c85a                	sw	s6,16(sp)
    5b7a:	89b6                	mv	s3,a3
    5b7c:	0185c683          	lbu	a3,24(a1)
    5b80:	06900793          	li	a5,105
    5b84:	8932                	mv	s2,a2
    5b86:	84aa                	mv	s1,a0
    5b88:	842e                	mv	s0,a1
    5b8a:	04358613          	addi	a2,a1,67
    5b8e:	02f68d63          	beq	a3,a5,5bc8 <_printf_i+0x60>
    5b92:	06d7e263          	bltu	a5,a3,5bf6 <_printf_i+0x8e>
    5b96:	05800793          	li	a5,88
    5b9a:	18f68963          	beq	a3,a5,5d2c <_printf_i+0x1c4>
    5b9e:	00d7ed63          	bltu	a5,a3,5bb8 <_printf_i+0x50>
    5ba2:	22068263          	beqz	a3,5dc6 <_printf_i+0x25e>
    5ba6:	04300793          	li	a5,67
    5baa:	0af68f63          	beq	a3,a5,5c68 <_printf_i+0x100>
    5bae:	04240a93          	addi	s5,s0,66
    5bb2:	04d40123          	sb	a3,66(s0)
    5bb6:	a0d1                	j	5c7a <_printf_i+0x112>
    5bb8:	06300793          	li	a5,99
    5bbc:	0af68663          	beq	a3,a5,5c68 <_printf_i+0x100>
    5bc0:	06400793          	li	a5,100
    5bc4:	fef695e3          	bne	a3,a5,5bae <_printf_i+0x46>
    5bc8:	401c                	lw	a5,0(s0)
    5bca:	4308                	lw	a0,0(a4)
    5bcc:	0807f693          	andi	a3,a5,128
    5bd0:	00450593          	addi	a1,a0,4
    5bd4:	c6cd                	beqz	a3,5c7e <_printf_i+0x116>
    5bd6:	411c                	lw	a5,0(a0)
    5bd8:	c30c                	sw	a1,0(a4)
    5bda:	0007d863          	bgez	a5,5bea <_printf_i+0x82>
    5bde:	02d00713          	li	a4,45
    5be2:	40f007b3          	neg	a5,a5
    5be6:	04e401a3          	sb	a4,67(s0)
    5bea:	00002697          	auipc	a3,0x2
    5bee:	02268693          	addi	a3,a3,34 # 7c0c <__sf_fake_stdout+0x34>
    5bf2:	4729                	li	a4,10
    5bf4:	a875                	j	5cb0 <_printf_i+0x148>
    5bf6:	07000793          	li	a5,112
    5bfa:	16f68563          	beq	a3,a5,5d64 <_printf_i+0x1fc>
    5bfe:	02d7e563          	bltu	a5,a3,5c28 <_printf_i+0xc0>
    5c02:	06e00793          	li	a5,110
    5c06:	18f68c63          	beq	a3,a5,5d9e <_printf_i+0x236>
    5c0a:	06f00793          	li	a5,111
    5c0e:	faf690e3          	bne	a3,a5,5bae <_printf_i+0x46>
    5c12:	400c                	lw	a1,0(s0)
    5c14:	431c                	lw	a5,0(a4)
    5c16:	0805f813          	andi	a6,a1,128
    5c1a:	00478513          	addi	a0,a5,4
    5c1e:	06080863          	beqz	a6,5c8e <_printf_i+0x126>
    5c22:	c308                	sw	a0,0(a4)
    5c24:	439c                	lw	a5,0(a5)
    5c26:	a895                	j	5c9a <_printf_i+0x132>
    5c28:	07500793          	li	a5,117
    5c2c:	fef683e3          	beq	a3,a5,5c12 <_printf_i+0xaa>
    5c30:	07800793          	li	a5,120
    5c34:	12f68c63          	beq	a3,a5,5d6c <_printf_i+0x204>
    5c38:	07300793          	li	a5,115
    5c3c:	f6f699e3          	bne	a3,a5,5bae <_printf_i+0x46>
    5c40:	431c                	lw	a5,0(a4)
    5c42:	41d0                	lw	a2,4(a1)
    5c44:	4581                	li	a1,0
    5c46:	00478693          	addi	a3,a5,4
    5c4a:	c314                	sw	a3,0(a4)
    5c4c:	0007aa83          	lw	s5,0(a5)
    5c50:	8556                	mv	a0,s5
    5c52:	786000ef          	jal	ra,63d8 <memchr>
    5c56:	c501                	beqz	a0,5c5e <_printf_i+0xf6>
    5c58:	41550533          	sub	a0,a0,s5
    5c5c:	c048                	sw	a0,4(s0)
    5c5e:	405c                	lw	a5,4(s0)
    5c60:	c81c                	sw	a5,16(s0)
    5c62:	040401a3          	sb	zero,67(s0)
    5c66:	a871                	j	5d02 <_printf_i+0x19a>
    5c68:	431c                	lw	a5,0(a4)
    5c6a:	04240a93          	addi	s5,s0,66
    5c6e:	00478693          	addi	a3,a5,4
    5c72:	439c                	lw	a5,0(a5)
    5c74:	c314                	sw	a3,0(a4)
    5c76:	04f40123          	sb	a5,66(s0)
    5c7a:	4785                	li	a5,1
    5c7c:	b7d5                	j	5c60 <_printf_i+0xf8>
    5c7e:	0407f693          	andi	a3,a5,64
    5c82:	411c                	lw	a5,0(a0)
    5c84:	c30c                	sw	a1,0(a4)
    5c86:	dab1                	beqz	a3,5bda <_printf_i+0x72>
    5c88:	07c2                	slli	a5,a5,0x10
    5c8a:	87c1                	srai	a5,a5,0x10
    5c8c:	b7b9                	j	5bda <_printf_i+0x72>
    5c8e:	0405f593          	andi	a1,a1,64
    5c92:	c308                	sw	a0,0(a4)
    5c94:	d9c1                	beqz	a1,5c24 <_printf_i+0xbc>
    5c96:	0007d783          	lhu	a5,0(a5)
    5c9a:	06f00713          	li	a4,111
    5c9e:	0ee68863          	beq	a3,a4,5d8e <_printf_i+0x226>
    5ca2:	00002697          	auipc	a3,0x2
    5ca6:	f6a68693          	addi	a3,a3,-150 # 7c0c <__sf_fake_stdout+0x34>
    5caa:	4729                	li	a4,10
    5cac:	040401a3          	sb	zero,67(s0)
    5cb0:	404c                	lw	a1,4(s0)
    5cb2:	c40c                	sw	a1,8(s0)
    5cb4:	0005c563          	bltz	a1,5cbe <_printf_i+0x156>
    5cb8:	4008                	lw	a0,0(s0)
    5cba:	996d                	andi	a0,a0,-5
    5cbc:	c008                	sw	a0,0(s0)
    5cbe:	e399                	bnez	a5,5cc4 <_printf_i+0x15c>
    5cc0:	8ab2                	mv	s5,a2
    5cc2:	cd91                	beqz	a1,5cde <_printf_i+0x176>
    5cc4:	8ab2                	mv	s5,a2
    5cc6:	02e7f5b3          	remu	a1,a5,a4
    5cca:	1afd                	addi	s5,s5,-1
    5ccc:	95b6                	add	a1,a1,a3
    5cce:	0005c583          	lbu	a1,0(a1)
    5cd2:	00ba8023          	sb	a1,0(s5)
    5cd6:	02e7d5b3          	divu	a1,a5,a4
    5cda:	0ce7f063          	bgeu	a5,a4,5d9a <_printf_i+0x232>
    5cde:	47a1                	li	a5,8
    5ce0:	00f71e63          	bne	a4,a5,5cfc <_printf_i+0x194>
    5ce4:	401c                	lw	a5,0(s0)
    5ce6:	8b85                	andi	a5,a5,1
    5ce8:	cb91                	beqz	a5,5cfc <_printf_i+0x194>
    5cea:	4058                	lw	a4,4(s0)
    5cec:	481c                	lw	a5,16(s0)
    5cee:	00e7c763          	blt	a5,a4,5cfc <_printf_i+0x194>
    5cf2:	03000793          	li	a5,48
    5cf6:	fefa8fa3          	sb	a5,-1(s5)
    5cfa:	1afd                	addi	s5,s5,-1
    5cfc:	41560633          	sub	a2,a2,s5
    5d00:	c810                	sw	a2,16(s0)
    5d02:	874e                	mv	a4,s3
    5d04:	86ca                	mv	a3,s2
    5d06:	0070                	addi	a2,sp,12
    5d08:	85a2                	mv	a1,s0
    5d0a:	8526                	mv	a0,s1
    5d0c:	d51ff0ef          	jal	ra,5a5c <_printf_common>
    5d10:	5a7d                	li	s4,-1
    5d12:	0b451e63          	bne	a0,s4,5dce <_printf_i+0x266>
    5d16:	557d                	li	a0,-1
    5d18:	50b2                	lw	ra,44(sp)
    5d1a:	5422                	lw	s0,40(sp)
    5d1c:	5492                	lw	s1,36(sp)
    5d1e:	5902                	lw	s2,32(sp)
    5d20:	49f2                	lw	s3,28(sp)
    5d22:	4a62                	lw	s4,24(sp)
    5d24:	4ad2                	lw	s5,20(sp)
    5d26:	4b42                	lw	s6,16(sp)
    5d28:	6145                	addi	sp,sp,48
    5d2a:	8082                	ret
    5d2c:	04d582a3          	sb	a3,69(a1)
    5d30:	00002697          	auipc	a3,0x2
    5d34:	edc68693          	addi	a3,a3,-292 # 7c0c <__sf_fake_stdout+0x34>
    5d38:	400c                	lw	a1,0(s0)
    5d3a:	4308                	lw	a0,0(a4)
    5d3c:	0805f813          	andi	a6,a1,128
    5d40:	411c                	lw	a5,0(a0)
    5d42:	0511                	addi	a0,a0,4
    5d44:	02080d63          	beqz	a6,5d7e <_printf_i+0x216>
    5d48:	c308                	sw	a0,0(a4)
    5d4a:	0015f713          	andi	a4,a1,1
    5d4e:	c701                	beqz	a4,5d56 <_printf_i+0x1ee>
    5d50:	0205e593          	ori	a1,a1,32
    5d54:	c00c                	sw	a1,0(s0)
    5d56:	4741                	li	a4,16
    5d58:	fbb1                	bnez	a5,5cac <_printf_i+0x144>
    5d5a:	400c                	lw	a1,0(s0)
    5d5c:	fdf5f593          	andi	a1,a1,-33
    5d60:	c00c                	sw	a1,0(s0)
    5d62:	b7a9                	j	5cac <_printf_i+0x144>
    5d64:	419c                	lw	a5,0(a1)
    5d66:	0207e793          	ori	a5,a5,32
    5d6a:	c19c                	sw	a5,0(a1)
    5d6c:	07800793          	li	a5,120
    5d70:	04f402a3          	sb	a5,69(s0)
    5d74:	00002697          	auipc	a3,0x2
    5d78:	eac68693          	addi	a3,a3,-340 # 7c20 <__sf_fake_stdout+0x48>
    5d7c:	bf75                	j	5d38 <_printf_i+0x1d0>
    5d7e:	0405f813          	andi	a6,a1,64
    5d82:	c308                	sw	a0,0(a4)
    5d84:	fc0803e3          	beqz	a6,5d4a <_printf_i+0x1e2>
    5d88:	07c2                	slli	a5,a5,0x10
    5d8a:	83c1                	srli	a5,a5,0x10
    5d8c:	bf7d                	j	5d4a <_printf_i+0x1e2>
    5d8e:	00002697          	auipc	a3,0x2
    5d92:	e7e68693          	addi	a3,a3,-386 # 7c0c <__sf_fake_stdout+0x34>
    5d96:	4721                	li	a4,8
    5d98:	bf11                	j	5cac <_printf_i+0x144>
    5d9a:	87ae                	mv	a5,a1
    5d9c:	b72d                	j	5cc6 <_printf_i+0x15e>
    5d9e:	4194                	lw	a3,0(a1)
    5da0:	431c                	lw	a5,0(a4)
    5da2:	49cc                	lw	a1,20(a1)
    5da4:	0806f813          	andi	a6,a3,128
    5da8:	00478513          	addi	a0,a5,4
    5dac:	00080663          	beqz	a6,5db8 <_printf_i+0x250>
    5db0:	c308                	sw	a0,0(a4)
    5db2:	439c                	lw	a5,0(a5)
    5db4:	c38c                	sw	a1,0(a5)
    5db6:	a801                	j	5dc6 <_printf_i+0x25e>
    5db8:	c308                	sw	a0,0(a4)
    5dba:	0406f693          	andi	a3,a3,64
    5dbe:	439c                	lw	a5,0(a5)
    5dc0:	daf5                	beqz	a3,5db4 <_printf_i+0x24c>
    5dc2:	00b79023          	sh	a1,0(a5)
    5dc6:	00042823          	sw	zero,16(s0)
    5dca:	8ab2                	mv	s5,a2
    5dcc:	bf1d                	j	5d02 <_printf_i+0x19a>
    5dce:	4814                	lw	a3,16(s0)
    5dd0:	8656                	mv	a2,s5
    5dd2:	85ca                	mv	a1,s2
    5dd4:	8526                	mv	a0,s1
    5dd6:	9982                	jalr	s3
    5dd8:	f3450fe3          	beq	a0,s4,5d16 <_printf_i+0x1ae>
    5ddc:	401c                	lw	a5,0(s0)
    5dde:	8b89                	andi	a5,a5,2
    5de0:	e78d                	bnez	a5,5e0a <_printf_i+0x2a2>
    5de2:	47b2                	lw	a5,12(sp)
    5de4:	4448                	lw	a0,12(s0)
    5de6:	f2f559e3          	bge	a0,a5,5d18 <_printf_i+0x1b0>
    5dea:	853e                	mv	a0,a5
    5dec:	b735                	j	5d18 <_printf_i+0x1b0>
    5dee:	4685                	li	a3,1
    5df0:	8656                	mv	a2,s5
    5df2:	85ca                	mv	a1,s2
    5df4:	8526                	mv	a0,s1
    5df6:	9982                	jalr	s3
    5df8:	f1650fe3          	beq	a0,s6,5d16 <_printf_i+0x1ae>
    5dfc:	0a05                	addi	s4,s4,1
    5dfe:	445c                	lw	a5,12(s0)
    5e00:	4732                	lw	a4,12(sp)
    5e02:	8f99                	sub	a5,a5,a4
    5e04:	fefa45e3          	blt	s4,a5,5dee <_printf_i+0x286>
    5e08:	bfe9                	j	5de2 <_printf_i+0x27a>
    5e0a:	4a01                	li	s4,0
    5e0c:	01940a93          	addi	s5,s0,25
    5e10:	5b7d                	li	s6,-1
    5e12:	b7f5                	j	5dfe <_printf_i+0x296>

00005e14 <__sread>:
    5e14:	1141                	addi	sp,sp,-16
    5e16:	c422                	sw	s0,8(sp)
    5e18:	842e                	mv	s0,a1
    5e1a:	00e59583          	lh	a1,14(a1)
    5e1e:	c606                	sw	ra,12(sp)
    5e20:	2bc9                	jal	63f2 <_read_r>
    5e22:	00054963          	bltz	a0,5e34 <__sread+0x20>
    5e26:	487c                	lw	a5,84(s0)
    5e28:	97aa                	add	a5,a5,a0
    5e2a:	c87c                	sw	a5,84(s0)
    5e2c:	40b2                	lw	ra,12(sp)
    5e2e:	4422                	lw	s0,8(sp)
    5e30:	0141                	addi	sp,sp,16
    5e32:	8082                	ret
    5e34:	00c45783          	lhu	a5,12(s0)
    5e38:	777d                	lui	a4,0xfffff
    5e3a:	177d                	addi	a4,a4,-1
    5e3c:	8ff9                	and	a5,a5,a4
    5e3e:	00f41623          	sh	a5,12(s0)
    5e42:	b7ed                	j	5e2c <__sread+0x18>

00005e44 <__swrite>:
    5e44:	00c5d783          	lhu	a5,12(a1)
    5e48:	1101                	addi	sp,sp,-32
    5e4a:	cc22                	sw	s0,24(sp)
    5e4c:	ca26                	sw	s1,20(sp)
    5e4e:	c84a                	sw	s2,16(sp)
    5e50:	c64e                	sw	s3,12(sp)
    5e52:	ce06                	sw	ra,28(sp)
    5e54:	1007f793          	andi	a5,a5,256
    5e58:	84aa                	mv	s1,a0
    5e5a:	842e                	mv	s0,a1
    5e5c:	8932                	mv	s2,a2
    5e5e:	89b6                	mv	s3,a3
    5e60:	c791                	beqz	a5,5e6c <__swrite+0x28>
    5e62:	00e59583          	lh	a1,14(a1)
    5e66:	4689                	li	a3,2
    5e68:	4601                	li	a2,0
    5e6a:	2189                	jal	62ac <_lseek_r>
    5e6c:	00c45783          	lhu	a5,12(s0)
    5e70:	777d                	lui	a4,0xfffff
    5e72:	177d                	addi	a4,a4,-1
    5e74:	8ff9                	and	a5,a5,a4
    5e76:	00f41623          	sh	a5,12(s0)
    5e7a:	00e41583          	lh	a1,14(s0)
    5e7e:	4462                	lw	s0,24(sp)
    5e80:	40f2                	lw	ra,28(sp)
    5e82:	86ce                	mv	a3,s3
    5e84:	864a                	mv	a2,s2
    5e86:	49b2                	lw	s3,12(sp)
    5e88:	4942                	lw	s2,16(sp)
    5e8a:	8526                	mv	a0,s1
    5e8c:	44d2                	lw	s1,20(sp)
    5e8e:	6105                	addi	sp,sp,32
    5e90:	a201                	j	5f90 <_write_r>

00005e92 <__sseek>:
    5e92:	1141                	addi	sp,sp,-16
    5e94:	c422                	sw	s0,8(sp)
    5e96:	842e                	mv	s0,a1
    5e98:	00e59583          	lh	a1,14(a1)
    5e9c:	c606                	sw	ra,12(sp)
    5e9e:	2139                	jal	62ac <_lseek_r>
    5ea0:	57fd                	li	a5,-1
    5ea2:	00c45703          	lhu	a4,12(s0)
    5ea6:	00f51b63          	bne	a0,a5,5ebc <__sseek+0x2a>
    5eaa:	77fd                	lui	a5,0xfffff
    5eac:	17fd                	addi	a5,a5,-1
    5eae:	8ff9                	and	a5,a5,a4
    5eb0:	00f41623          	sh	a5,12(s0)
    5eb4:	40b2                	lw	ra,12(sp)
    5eb6:	4422                	lw	s0,8(sp)
    5eb8:	0141                	addi	sp,sp,16
    5eba:	8082                	ret
    5ebc:	6785                	lui	a5,0x1
    5ebe:	8fd9                	or	a5,a5,a4
    5ec0:	00f41623          	sh	a5,12(s0)
    5ec4:	c868                	sw	a0,84(s0)
    5ec6:	b7fd                	j	5eb4 <__sseek+0x22>

00005ec8 <__sclose>:
    5ec8:	00e59583          	lh	a1,14(a1)
    5ecc:	a429                	j	60d6 <_close_r>

00005ece <__swbuf_r>:
    5ece:	1101                	addi	sp,sp,-32
    5ed0:	cc22                	sw	s0,24(sp)
    5ed2:	ca26                	sw	s1,20(sp)
    5ed4:	c84a                	sw	s2,16(sp)
    5ed6:	ce06                	sw	ra,28(sp)
    5ed8:	c64e                	sw	s3,12(sp)
    5eda:	84aa                	mv	s1,a0
    5edc:	892e                	mv	s2,a1
    5ede:	8432                	mv	s0,a2
    5ee0:	c509                	beqz	a0,5eea <__swbuf_r+0x1c>
    5ee2:	4d1c                	lw	a5,24(a0)
    5ee4:	e399                	bnez	a5,5eea <__swbuf_r+0x1c>
    5ee6:	eeeff0ef          	jal	ra,55d4 <__sinit>
    5eea:	00002797          	auipc	a5,0x2
    5eee:	cce78793          	addi	a5,a5,-818 # 7bb8 <__sf_fake_stdin>
    5ef2:	06f41963          	bne	s0,a5,5f64 <__swbuf_r+0x96>
    5ef6:	40c0                	lw	s0,4(s1)
    5ef8:	4c1c                	lw	a5,24(s0)
    5efa:	c41c                	sw	a5,8(s0)
    5efc:	00c45783          	lhu	a5,12(s0)
    5f00:	8ba1                	andi	a5,a5,8
    5f02:	c3c9                	beqz	a5,5f84 <__swbuf_r+0xb6>
    5f04:	481c                	lw	a5,16(s0)
    5f06:	cfbd                	beqz	a5,5f84 <__swbuf_r+0xb6>
    5f08:	481c                	lw	a5,16(s0)
    5f0a:	4008                	lw	a0,0(s0)
    5f0c:	0ff97993          	andi	s3,s2,255
    5f10:	0ff97913          	andi	s2,s2,255
    5f14:	8d1d                	sub	a0,a0,a5
    5f16:	485c                	lw	a5,20(s0)
    5f18:	00f54663          	blt	a0,a5,5f24 <__swbuf_r+0x56>
    5f1c:	85a2                	mv	a1,s0
    5f1e:	8526                	mv	a0,s1
    5f20:	2615                	jal	6244 <_fflush_r>
    5f22:	e52d                	bnez	a0,5f8c <__swbuf_r+0xbe>
    5f24:	441c                	lw	a5,8(s0)
    5f26:	0505                	addi	a0,a0,1
    5f28:	17fd                	addi	a5,a5,-1
    5f2a:	c41c                	sw	a5,8(s0)
    5f2c:	401c                	lw	a5,0(s0)
    5f2e:	00178713          	addi	a4,a5,1
    5f32:	c018                	sw	a4,0(s0)
    5f34:	01378023          	sb	s3,0(a5)
    5f38:	485c                	lw	a5,20(s0)
    5f3a:	00a78963          	beq	a5,a0,5f4c <__swbuf_r+0x7e>
    5f3e:	00c45783          	lhu	a5,12(s0)
    5f42:	8b85                	andi	a5,a5,1
    5f44:	cb81                	beqz	a5,5f54 <__swbuf_r+0x86>
    5f46:	47a9                	li	a5,10
    5f48:	00f91663          	bne	s2,a5,5f54 <__swbuf_r+0x86>
    5f4c:	85a2                	mv	a1,s0
    5f4e:	8526                	mv	a0,s1
    5f50:	2cd5                	jal	6244 <_fflush_r>
    5f52:	ed0d                	bnez	a0,5f8c <__swbuf_r+0xbe>
    5f54:	40f2                	lw	ra,28(sp)
    5f56:	4462                	lw	s0,24(sp)
    5f58:	854a                	mv	a0,s2
    5f5a:	44d2                	lw	s1,20(sp)
    5f5c:	4942                	lw	s2,16(sp)
    5f5e:	49b2                	lw	s3,12(sp)
    5f60:	6105                	addi	sp,sp,32
    5f62:	8082                	ret
    5f64:	00002797          	auipc	a5,0x2
    5f68:	c7478793          	addi	a5,a5,-908 # 7bd8 <__sf_fake_stdout>
    5f6c:	00f41463          	bne	s0,a5,5f74 <__swbuf_r+0xa6>
    5f70:	4480                	lw	s0,8(s1)
    5f72:	b759                	j	5ef8 <__swbuf_r+0x2a>
    5f74:	00002797          	auipc	a5,0x2
    5f78:	c2478793          	addi	a5,a5,-988 # 7b98 <__sf_fake_stderr>
    5f7c:	f6f41ee3          	bne	s0,a5,5ef8 <__swbuf_r+0x2a>
    5f80:	44c0                	lw	s0,12(s1)
    5f82:	bf9d                	j	5ef8 <__swbuf_r+0x2a>
    5f84:	85a2                	mv	a1,s0
    5f86:	8526                	mv	a0,s1
    5f88:	283d                	jal	5fc6 <__swsetup_r>
    5f8a:	dd3d                	beqz	a0,5f08 <__swbuf_r+0x3a>
    5f8c:	597d                	li	s2,-1
    5f8e:	b7d9                	j	5f54 <__swbuf_r+0x86>

00005f90 <_write_r>:
    5f90:	1141                	addi	sp,sp,-16
    5f92:	c422                	sw	s0,8(sp)
    5f94:	842a                	mv	s0,a0
    5f96:	852e                	mv	a0,a1
    5f98:	85b2                	mv	a1,a2
    5f9a:	8636                	mv	a2,a3
    5f9c:	1fffb797          	auipc	a5,0x1fffb
    5fa0:	7c07ac23          	sw	zero,2008(a5) # 20001774 <errno>
    5fa4:	c606                	sw	ra,12(sp)
    5fa6:	d24fa0ef          	jal	ra,4ca <_write>
    5faa:	57fd                	li	a5,-1
    5fac:	00f51963          	bne	a0,a5,5fbe <_write_r+0x2e>
    5fb0:	1fffb797          	auipc	a5,0x1fffb
    5fb4:	7c478793          	addi	a5,a5,1988 # 20001774 <errno>
    5fb8:	439c                	lw	a5,0(a5)
    5fba:	c391                	beqz	a5,5fbe <_write_r+0x2e>
    5fbc:	c01c                	sw	a5,0(s0)
    5fbe:	40b2                	lw	ra,12(sp)
    5fc0:	4422                	lw	s0,8(sp)
    5fc2:	0141                	addi	sp,sp,16
    5fc4:	8082                	ret

00005fc6 <__swsetup_r>:
    5fc6:	1141                	addi	sp,sp,-16
    5fc8:	80c18793          	addi	a5,gp,-2036 # 200001cc <_impure_ptr>
    5fcc:	c226                	sw	s1,4(sp)
    5fce:	4384                	lw	s1,0(a5)
    5fd0:	c422                	sw	s0,8(sp)
    5fd2:	c04a                	sw	s2,0(sp)
    5fd4:	c606                	sw	ra,12(sp)
    5fd6:	892a                	mv	s2,a0
    5fd8:	842e                	mv	s0,a1
    5fda:	c491                	beqz	s1,5fe6 <__swsetup_r+0x20>
    5fdc:	4c9c                	lw	a5,24(s1)
    5fde:	e781                	bnez	a5,5fe6 <__swsetup_r+0x20>
    5fe0:	8526                	mv	a0,s1
    5fe2:	df2ff0ef          	jal	ra,55d4 <__sinit>
    5fe6:	00002797          	auipc	a5,0x2
    5fea:	bd278793          	addi	a5,a5,-1070 # 7bb8 <__sf_fake_stdin>
    5fee:	02f41c63          	bne	s0,a5,6026 <__swsetup_r+0x60>
    5ff2:	40c0                	lw	s0,4(s1)
    5ff4:	00c41703          	lh	a4,12(s0)
    5ff8:	01071793          	slli	a5,a4,0x10
    5ffc:	83c1                	srli	a5,a5,0x10
    5ffe:	0087f693          	andi	a3,a5,8
    6002:	eebd                	bnez	a3,6080 <__swsetup_r+0xba>
    6004:	0107f693          	andi	a3,a5,16
    6008:	ee9d                	bnez	a3,6046 <__swsetup_r+0x80>
    600a:	47a5                	li	a5,9
    600c:	00f92023          	sw	a5,0(s2)
    6010:	04076713          	ori	a4,a4,64
    6014:	00e41623          	sh	a4,12(s0)
    6018:	557d                	li	a0,-1
    601a:	40b2                	lw	ra,12(sp)
    601c:	4422                	lw	s0,8(sp)
    601e:	4492                	lw	s1,4(sp)
    6020:	4902                	lw	s2,0(sp)
    6022:	0141                	addi	sp,sp,16
    6024:	8082                	ret
    6026:	00002797          	auipc	a5,0x2
    602a:	bb278793          	addi	a5,a5,-1102 # 7bd8 <__sf_fake_stdout>
    602e:	00f41463          	bne	s0,a5,6036 <__swsetup_r+0x70>
    6032:	4480                	lw	s0,8(s1)
    6034:	b7c1                	j	5ff4 <__swsetup_r+0x2e>
    6036:	00002797          	auipc	a5,0x2
    603a:	b6278793          	addi	a5,a5,-1182 # 7b98 <__sf_fake_stderr>
    603e:	faf41be3          	bne	s0,a5,5ff4 <__swsetup_r+0x2e>
    6042:	44c0                	lw	s0,12(s1)
    6044:	bf45                	j	5ff4 <__swsetup_r+0x2e>
    6046:	8b91                	andi	a5,a5,4
    6048:	c795                	beqz	a5,6074 <__swsetup_r+0xae>
    604a:	584c                	lw	a1,52(s0)
    604c:	c991                	beqz	a1,6060 <__swsetup_r+0x9a>
    604e:	04440793          	addi	a5,s0,68
    6052:	00f58563          	beq	a1,a5,605c <__swsetup_r+0x96>
    6056:	854a                	mv	a0,s2
    6058:	aa0ff0ef          	jal	ra,52f8 <_free_r>
    605c:	02042a23          	sw	zero,52(s0)
    6060:	00c45783          	lhu	a5,12(s0)
    6064:	00042223          	sw	zero,4(s0)
    6068:	fdb7f793          	andi	a5,a5,-37
    606c:	00f41623          	sh	a5,12(s0)
    6070:	481c                	lw	a5,16(s0)
    6072:	c01c                	sw	a5,0(s0)
    6074:	00c45783          	lhu	a5,12(s0)
    6078:	0087e793          	ori	a5,a5,8
    607c:	00f41623          	sh	a5,12(s0)
    6080:	481c                	lw	a5,16(s0)
    6082:	ef81                	bnez	a5,609a <__swsetup_r+0xd4>
    6084:	00c45783          	lhu	a5,12(s0)
    6088:	20000713          	li	a4,512
    608c:	2807f793          	andi	a5,a5,640
    6090:	00e78563          	beq	a5,a4,609a <__swsetup_r+0xd4>
    6094:	85a2                	mv	a1,s0
    6096:	854a                	mv	a0,s2
    6098:	2445                	jal	6338 <__smakebuf_r>
    609a:	00c45783          	lhu	a5,12(s0)
    609e:	0017f713          	andi	a4,a5,1
    60a2:	c705                	beqz	a4,60ca <__swsetup_r+0x104>
    60a4:	485c                	lw	a5,20(s0)
    60a6:	00042423          	sw	zero,8(s0)
    60aa:	40f007b3          	neg	a5,a5
    60ae:	cc1c                	sw	a5,24(s0)
    60b0:	481c                	lw	a5,16(s0)
    60b2:	4501                	li	a0,0
    60b4:	f3bd                	bnez	a5,601a <__swsetup_r+0x54>
    60b6:	00c41783          	lh	a5,12(s0)
    60ba:	0807f713          	andi	a4,a5,128
    60be:	df31                	beqz	a4,601a <__swsetup_r+0x54>
    60c0:	0407e793          	ori	a5,a5,64
    60c4:	00f41623          	sh	a5,12(s0)
    60c8:	bf81                	j	6018 <__swsetup_r+0x52>
    60ca:	8b89                	andi	a5,a5,2
    60cc:	4701                	li	a4,0
    60ce:	e391                	bnez	a5,60d2 <__swsetup_r+0x10c>
    60d0:	4858                	lw	a4,20(s0)
    60d2:	c418                	sw	a4,8(s0)
    60d4:	bff1                	j	60b0 <__swsetup_r+0xea>

000060d6 <_close_r>:
    60d6:	1141                	addi	sp,sp,-16
    60d8:	c422                	sw	s0,8(sp)
    60da:	842a                	mv	s0,a0
    60dc:	852e                	mv	a0,a1
    60de:	1fffb797          	auipc	a5,0x1fffb
    60e2:	6807ab23          	sw	zero,1686(a5) # 20001774 <errno>
    60e6:	c606                	sw	ra,12(sp)
    60e8:	2645                	jal	6488 <_close>
    60ea:	57fd                	li	a5,-1
    60ec:	00f51963          	bne	a0,a5,60fe <_close_r+0x28>
    60f0:	1fffb797          	auipc	a5,0x1fffb
    60f4:	68478793          	addi	a5,a5,1668 # 20001774 <errno>
    60f8:	439c                	lw	a5,0(a5)
    60fa:	c391                	beqz	a5,60fe <_close_r+0x28>
    60fc:	c01c                	sw	a5,0(s0)
    60fe:	40b2                	lw	ra,12(sp)
    6100:	4422                	lw	s0,8(sp)
    6102:	0141                	addi	sp,sp,16
    6104:	8082                	ret

00006106 <__sflush_r>:
    6106:	00c5d783          	lhu	a5,12(a1)
    610a:	1101                	addi	sp,sp,-32
    610c:	cc22                	sw	s0,24(sp)
    610e:	ca26                	sw	s1,20(sp)
    6110:	ce06                	sw	ra,28(sp)
    6112:	c84a                	sw	s2,16(sp)
    6114:	c64e                	sw	s3,12(sp)
    6116:	0087f713          	andi	a4,a5,8
    611a:	84aa                	mv	s1,a0
    611c:	842e                	mv	s0,a1
    611e:	ef79                	bnez	a4,61fc <__sflush_r+0xf6>
    6120:	41d8                	lw	a4,4(a1)
    6122:	00e04d63          	bgtz	a4,613c <__sflush_r+0x36>
    6126:	41b8                	lw	a4,64(a1)
    6128:	00e04a63          	bgtz	a4,613c <__sflush_r+0x36>
    612c:	4501                	li	a0,0
    612e:	40f2                	lw	ra,28(sp)
    6130:	4462                	lw	s0,24(sp)
    6132:	44d2                	lw	s1,20(sp)
    6134:	4942                	lw	s2,16(sp)
    6136:	49b2                	lw	s3,12(sp)
    6138:	6105                	addi	sp,sp,32
    613a:	8082                	ret
    613c:	5458                	lw	a4,44(s0)
    613e:	d77d                	beqz	a4,612c <__sflush_r+0x26>
    6140:	0004a903          	lw	s2,0(s1)
    6144:	01379693          	slli	a3,a5,0x13
    6148:	0004a023          	sw	zero,0(s1)
    614c:	0606de63          	bgez	a3,61c8 <__sflush_r+0xc2>
    6150:	4870                	lw	a2,84(s0)
    6152:	00c45783          	lhu	a5,12(s0)
    6156:	8b91                	andi	a5,a5,4
    6158:	c799                	beqz	a5,6166 <__sflush_r+0x60>
    615a:	405c                	lw	a5,4(s0)
    615c:	8e1d                	sub	a2,a2,a5
    615e:	585c                	lw	a5,52(s0)
    6160:	c399                	beqz	a5,6166 <__sflush_r+0x60>
    6162:	403c                	lw	a5,64(s0)
    6164:	8e1d                	sub	a2,a2,a5
    6166:	545c                	lw	a5,44(s0)
    6168:	500c                	lw	a1,32(s0)
    616a:	4681                	li	a3,0
    616c:	8526                	mv	a0,s1
    616e:	9782                	jalr	a5
    6170:	57fd                	li	a5,-1
    6172:	00c45703          	lhu	a4,12(s0)
    6176:	00f51d63          	bne	a0,a5,6190 <__sflush_r+0x8a>
    617a:	4094                	lw	a3,0(s1)
    617c:	47f5                	li	a5,29
    617e:	06d7e963          	bltu	a5,a3,61f0 <__sflush_r+0xea>
    6182:	204007b7          	lui	a5,0x20400
    6186:	0785                	addi	a5,a5,1
    6188:	00d7d7b3          	srl	a5,a5,a3
    618c:	8b85                	andi	a5,a5,1
    618e:	c3ad                	beqz	a5,61f0 <__sflush_r+0xea>
    6190:	481c                	lw	a5,16(s0)
    6192:	00042223          	sw	zero,4(s0)
    6196:	c01c                	sw	a5,0(s0)
    6198:	01371793          	slli	a5,a4,0x13
    619c:	0007d863          	bgez	a5,61ac <__sflush_r+0xa6>
    61a0:	57fd                	li	a5,-1
    61a2:	00f51463          	bne	a0,a5,61aa <__sflush_r+0xa4>
    61a6:	409c                	lw	a5,0(s1)
    61a8:	e391                	bnez	a5,61ac <__sflush_r+0xa6>
    61aa:	c868                	sw	a0,84(s0)
    61ac:	584c                	lw	a1,52(s0)
    61ae:	0124a023          	sw	s2,0(s1)
    61b2:	ddad                	beqz	a1,612c <__sflush_r+0x26>
    61b4:	04440793          	addi	a5,s0,68
    61b8:	00f58563          	beq	a1,a5,61c2 <__sflush_r+0xbc>
    61bc:	8526                	mv	a0,s1
    61be:	93aff0ef          	jal	ra,52f8 <_free_r>
    61c2:	02042a23          	sw	zero,52(s0)
    61c6:	b79d                	j	612c <__sflush_r+0x26>
    61c8:	500c                	lw	a1,32(s0)
    61ca:	4601                	li	a2,0
    61cc:	4685                	li	a3,1
    61ce:	8526                	mv	a0,s1
    61d0:	9702                	jalr	a4
    61d2:	57fd                	li	a5,-1
    61d4:	862a                	mv	a2,a0
    61d6:	f6f51ee3          	bne	a0,a5,6152 <__sflush_r+0x4c>
    61da:	409c                	lw	a5,0(s1)
    61dc:	dbbd                	beqz	a5,6152 <__sflush_r+0x4c>
    61de:	4775                	li	a4,29
    61e0:	00e78563          	beq	a5,a4,61ea <__sflush_r+0xe4>
    61e4:	4759                	li	a4,22
    61e6:	04e79463          	bne	a5,a4,622e <__sflush_r+0x128>
    61ea:	0124a023          	sw	s2,0(s1)
    61ee:	bf3d                	j	612c <__sflush_r+0x26>
    61f0:	04076713          	ori	a4,a4,64
    61f4:	00e41623          	sh	a4,12(s0)
    61f8:	557d                	li	a0,-1
    61fa:	bf15                	j	612e <__sflush_r+0x28>
    61fc:	0105a983          	lw	s3,16(a1)
    6200:	f20986e3          	beqz	s3,612c <__sflush_r+0x26>
    6204:	0005a903          	lw	s2,0(a1)
    6208:	8b8d                	andi	a5,a5,3
    620a:	0135a023          	sw	s3,0(a1)
    620e:	41390933          	sub	s2,s2,s3
    6212:	4701                	li	a4,0
    6214:	e391                	bnez	a5,6218 <__sflush_r+0x112>
    6216:	49d8                	lw	a4,20(a1)
    6218:	c418                	sw	a4,8(s0)
    621a:	f12059e3          	blez	s2,612c <__sflush_r+0x26>
    621e:	541c                	lw	a5,40(s0)
    6220:	500c                	lw	a1,32(s0)
    6222:	86ca                	mv	a3,s2
    6224:	864e                	mv	a2,s3
    6226:	8526                	mv	a0,s1
    6228:	9782                	jalr	a5
    622a:	00a04963          	bgtz	a0,623c <__sflush_r+0x136>
    622e:	00c45783          	lhu	a5,12(s0)
    6232:	0407e793          	ori	a5,a5,64
    6236:	00f41623          	sh	a5,12(s0)
    623a:	bf7d                	j	61f8 <__sflush_r+0xf2>
    623c:	99aa                	add	s3,s3,a0
    623e:	40a90933          	sub	s2,s2,a0
    6242:	bfe1                	j	621a <__sflush_r+0x114>

00006244 <_fflush_r>:
    6244:	499c                	lw	a5,16(a1)
    6246:	c3ad                	beqz	a5,62a8 <_fflush_r+0x64>
    6248:	1101                	addi	sp,sp,-32
    624a:	cc22                	sw	s0,24(sp)
    624c:	ce06                	sw	ra,28(sp)
    624e:	842a                	mv	s0,a0
    6250:	c519                	beqz	a0,625e <_fflush_r+0x1a>
    6252:	4d1c                	lw	a5,24(a0)
    6254:	e789                	bnez	a5,625e <_fflush_r+0x1a>
    6256:	c62e                	sw	a1,12(sp)
    6258:	b7cff0ef          	jal	ra,55d4 <__sinit>
    625c:	45b2                	lw	a1,12(sp)
    625e:	00002797          	auipc	a5,0x2
    6262:	95a78793          	addi	a5,a5,-1702 # 7bb8 <__sf_fake_stdin>
    6266:	00f59c63          	bne	a1,a5,627e <_fflush_r+0x3a>
    626a:	404c                	lw	a1,4(s0)
    626c:	00c59783          	lh	a5,12(a1)
    6270:	c79d                	beqz	a5,629e <_fflush_r+0x5a>
    6272:	8522                	mv	a0,s0
    6274:	4462                	lw	s0,24(sp)
    6276:	40f2                	lw	ra,28(sp)
    6278:	6105                	addi	sp,sp,32
    627a:	e8dff06f          	j	6106 <__sflush_r>
    627e:	00002797          	auipc	a5,0x2
    6282:	95a78793          	addi	a5,a5,-1702 # 7bd8 <__sf_fake_stdout>
    6286:	00f59463          	bne	a1,a5,628e <_fflush_r+0x4a>
    628a:	440c                	lw	a1,8(s0)
    628c:	b7c5                	j	626c <_fflush_r+0x28>
    628e:	00002797          	auipc	a5,0x2
    6292:	90a78793          	addi	a5,a5,-1782 # 7b98 <__sf_fake_stderr>
    6296:	fcf59be3          	bne	a1,a5,626c <_fflush_r+0x28>
    629a:	444c                	lw	a1,12(s0)
    629c:	bfc1                	j	626c <_fflush_r+0x28>
    629e:	40f2                	lw	ra,28(sp)
    62a0:	4462                	lw	s0,24(sp)
    62a2:	4501                	li	a0,0
    62a4:	6105                	addi	sp,sp,32
    62a6:	8082                	ret
    62a8:	4501                	li	a0,0
    62aa:	8082                	ret

000062ac <_lseek_r>:
    62ac:	1141                	addi	sp,sp,-16
    62ae:	c422                	sw	s0,8(sp)
    62b0:	842a                	mv	s0,a0
    62b2:	852e                	mv	a0,a1
    62b4:	85b2                	mv	a1,a2
    62b6:	8636                	mv	a2,a3
    62b8:	1fffb797          	auipc	a5,0x1fffb
    62bc:	4a07ae23          	sw	zero,1212(a5) # 20001774 <errno>
    62c0:	c606                	sw	ra,12(sp)
    62c2:	2add                	jal	64b8 <_lseek>
    62c4:	57fd                	li	a5,-1
    62c6:	00f51963          	bne	a0,a5,62d8 <_lseek_r+0x2c>
    62ca:	1fffb797          	auipc	a5,0x1fffb
    62ce:	4aa78793          	addi	a5,a5,1194 # 20001774 <errno>
    62d2:	439c                	lw	a5,0(a5)
    62d4:	c391                	beqz	a5,62d8 <_lseek_r+0x2c>
    62d6:	c01c                	sw	a5,0(s0)
    62d8:	40b2                	lw	ra,12(sp)
    62da:	4422                	lw	s0,8(sp)
    62dc:	0141                	addi	sp,sp,16
    62de:	8082                	ret

000062e0 <__swhatbuf_r>:
    62e0:	7119                	addi	sp,sp,-128
    62e2:	daa6                	sw	s1,116(sp)
    62e4:	84ae                	mv	s1,a1
    62e6:	00e59583          	lh	a1,14(a1)
    62ea:	dca2                	sw	s0,120(sp)
    62ec:	de86                	sw	ra,124(sp)
    62ee:	8432                	mv	s0,a2
    62f0:	0005dc63          	bgez	a1,6308 <__swhatbuf_r+0x28>
    62f4:	00c4d783          	lhu	a5,12(s1)
    62f8:	0006a023          	sw	zero,0(a3)
    62fc:	0807f793          	andi	a5,a5,128
    6300:	e39d                	bnez	a5,6326 <__swhatbuf_r+0x46>
    6302:	40000793          	li	a5,1024
    6306:	a015                	j	632a <__swhatbuf_r+0x4a>
    6308:	0830                	addi	a2,sp,24
    630a:	c636                	sw	a3,12(sp)
    630c:	2a29                	jal	6426 <_fstat_r>
    630e:	46b2                	lw	a3,12(sp)
    6310:	fe0542e3          	bltz	a0,62f4 <__swhatbuf_r+0x14>
    6314:	4772                	lw	a4,28(sp)
    6316:	67bd                	lui	a5,0xf
    6318:	8ff9                	and	a5,a5,a4
    631a:	7779                	lui	a4,0xffffe
    631c:	97ba                	add	a5,a5,a4
    631e:	0017b793          	seqz	a5,a5
    6322:	c29c                	sw	a5,0(a3)
    6324:	bff9                	j	6302 <__swhatbuf_r+0x22>
    6326:	04000793          	li	a5,64
    632a:	c01c                	sw	a5,0(s0)
    632c:	50f6                	lw	ra,124(sp)
    632e:	5466                	lw	s0,120(sp)
    6330:	54d6                	lw	s1,116(sp)
    6332:	4501                	li	a0,0
    6334:	6109                	addi	sp,sp,128
    6336:	8082                	ret

00006338 <__smakebuf_r>:
    6338:	00c5d783          	lhu	a5,12(a1)
    633c:	1101                	addi	sp,sp,-32
    633e:	cc22                	sw	s0,24(sp)
    6340:	ce06                	sw	ra,28(sp)
    6342:	ca26                	sw	s1,20(sp)
    6344:	c84a                	sw	s2,16(sp)
    6346:	8b89                	andi	a5,a5,2
    6348:	842e                	mv	s0,a1
    634a:	cf89                	beqz	a5,6364 <__smakebuf_r+0x2c>
    634c:	04740793          	addi	a5,s0,71
    6350:	c01c                	sw	a5,0(s0)
    6352:	c81c                	sw	a5,16(s0)
    6354:	4785                	li	a5,1
    6356:	c85c                	sw	a5,20(s0)
    6358:	40f2                	lw	ra,28(sp)
    635a:	4462                	lw	s0,24(sp)
    635c:	44d2                	lw	s1,20(sp)
    635e:	4942                	lw	s2,16(sp)
    6360:	6105                	addi	sp,sp,32
    6362:	8082                	ret
    6364:	0074                	addi	a3,sp,12
    6366:	0030                	addi	a2,sp,8
    6368:	84aa                	mv	s1,a0
    636a:	f77ff0ef          	jal	ra,62e0 <__swhatbuf_r>
    636e:	45a2                	lw	a1,8(sp)
    6370:	892a                	mv	s2,a0
    6372:	8526                	mv	a0,s1
    6374:	828ff0ef          	jal	ra,539c <_malloc_r>
    6378:	ed01                	bnez	a0,6390 <__smakebuf_r+0x58>
    637a:	00c41783          	lh	a5,12(s0)
    637e:	2007f713          	andi	a4,a5,512
    6382:	fb79                	bnez	a4,6358 <__smakebuf_r+0x20>
    6384:	9bf1                	andi	a5,a5,-4
    6386:	0027e793          	ori	a5,a5,2
    638a:	00f41623          	sh	a5,12(s0)
    638e:	bf7d                	j	634c <__smakebuf_r+0x14>
    6390:	fffff797          	auipc	a5,0xfffff
    6394:	1f278793          	addi	a5,a5,498 # 5582 <_cleanup_r>
    6398:	d49c                	sw	a5,40(s1)
    639a:	00c45783          	lhu	a5,12(s0)
    639e:	c008                	sw	a0,0(s0)
    63a0:	c808                	sw	a0,16(s0)
    63a2:	0807e793          	ori	a5,a5,128
    63a6:	00f41623          	sh	a5,12(s0)
    63aa:	47a2                	lw	a5,8(sp)
    63ac:	c85c                	sw	a5,20(s0)
    63ae:	47b2                	lw	a5,12(sp)
    63b0:	cf89                	beqz	a5,63ca <__smakebuf_r+0x92>
    63b2:	00e41583          	lh	a1,14(s0)
    63b6:	8526                	mv	a0,s1
    63b8:	2045                	jal	6458 <_isatty_r>
    63ba:	c901                	beqz	a0,63ca <__smakebuf_r+0x92>
    63bc:	00c45783          	lhu	a5,12(s0)
    63c0:	9bf1                	andi	a5,a5,-4
    63c2:	0017e793          	ori	a5,a5,1
    63c6:	00f41623          	sh	a5,12(s0)
    63ca:	00c45783          	lhu	a5,12(s0)
    63ce:	00f96933          	or	s2,s2,a5
    63d2:	01241623          	sh	s2,12(s0)
    63d6:	b749                	j	6358 <__smakebuf_r+0x20>

000063d8 <memchr>:
    63d8:	0ff5f593          	andi	a1,a1,255
    63dc:	962a                	add	a2,a2,a0
    63de:	00c51463          	bne	a0,a2,63e6 <memchr+0xe>
    63e2:	4501                	li	a0,0
    63e4:	8082                	ret
    63e6:	00054783          	lbu	a5,0(a0)
    63ea:	feb78de3          	beq	a5,a1,63e4 <memchr+0xc>
    63ee:	0505                	addi	a0,a0,1
    63f0:	b7fd                	j	63de <memchr+0x6>

000063f2 <_read_r>:
    63f2:	1141                	addi	sp,sp,-16
    63f4:	c422                	sw	s0,8(sp)
    63f6:	842a                	mv	s0,a0
    63f8:	852e                	mv	a0,a1
    63fa:	85b2                	mv	a1,a2
    63fc:	8636                	mv	a2,a3
    63fe:	1fffb797          	auipc	a5,0x1fffb
    6402:	3607ab23          	sw	zero,886(a5) # 20001774 <errno>
    6406:	c606                	sw	ra,12(sp)
    6408:	20c1                	jal	64c8 <_read>
    640a:	57fd                	li	a5,-1
    640c:	00f51963          	bne	a0,a5,641e <_read_r+0x2c>
    6410:	1fffb797          	auipc	a5,0x1fffb
    6414:	36478793          	addi	a5,a5,868 # 20001774 <errno>
    6418:	439c                	lw	a5,0(a5)
    641a:	c391                	beqz	a5,641e <_read_r+0x2c>
    641c:	c01c                	sw	a5,0(s0)
    641e:	40b2                	lw	ra,12(sp)
    6420:	4422                	lw	s0,8(sp)
    6422:	0141                	addi	sp,sp,16
    6424:	8082                	ret

00006426 <_fstat_r>:
    6426:	1141                	addi	sp,sp,-16
    6428:	c422                	sw	s0,8(sp)
    642a:	842a                	mv	s0,a0
    642c:	852e                	mv	a0,a1
    642e:	85b2                	mv	a1,a2
    6430:	1fffb797          	auipc	a5,0x1fffb
    6434:	3407a223          	sw	zero,836(a5) # 20001774 <errno>
    6438:	c606                	sw	ra,12(sp)
    643a:	28b9                	jal	6498 <_fstat>
    643c:	57fd                	li	a5,-1
    643e:	00f51963          	bne	a0,a5,6450 <_fstat_r+0x2a>
    6442:	1fffb797          	auipc	a5,0x1fffb
    6446:	33278793          	addi	a5,a5,818 # 20001774 <errno>
    644a:	439c                	lw	a5,0(a5)
    644c:	c391                	beqz	a5,6450 <_fstat_r+0x2a>
    644e:	c01c                	sw	a5,0(s0)
    6450:	40b2                	lw	ra,12(sp)
    6452:	4422                	lw	s0,8(sp)
    6454:	0141                	addi	sp,sp,16
    6456:	8082                	ret

00006458 <_isatty_r>:
    6458:	1141                	addi	sp,sp,-16
    645a:	c422                	sw	s0,8(sp)
    645c:	842a                	mv	s0,a0
    645e:	852e                	mv	a0,a1
    6460:	1fffb797          	auipc	a5,0x1fffb
    6464:	3007aa23          	sw	zero,788(a5) # 20001774 <errno>
    6468:	c606                	sw	ra,12(sp)
    646a:	283d                	jal	64a8 <_isatty>
    646c:	57fd                	li	a5,-1
    646e:	00f51963          	bne	a0,a5,6480 <_isatty_r+0x28>
    6472:	1fffb797          	auipc	a5,0x1fffb
    6476:	30278793          	addi	a5,a5,770 # 20001774 <errno>
    647a:	439c                	lw	a5,0(a5)
    647c:	c391                	beqz	a5,6480 <_isatty_r+0x28>
    647e:	c01c                	sw	a5,0(s0)
    6480:	40b2                	lw	ra,12(sp)
    6482:	4422                	lw	s0,8(sp)
    6484:	0141                	addi	sp,sp,16
    6486:	8082                	ret

00006488 <_close>:
    6488:	05800793          	li	a5,88
    648c:	1fffb717          	auipc	a4,0x1fffb
    6490:	2ef72423          	sw	a5,744(a4) # 20001774 <errno>
    6494:	557d                	li	a0,-1
    6496:	8082                	ret

00006498 <_fstat>:
    6498:	05800793          	li	a5,88
    649c:	1fffb717          	auipc	a4,0x1fffb
    64a0:	2cf72c23          	sw	a5,728(a4) # 20001774 <errno>
    64a4:	557d                	li	a0,-1
    64a6:	8082                	ret

000064a8 <_isatty>:
    64a8:	05800793          	li	a5,88
    64ac:	1fffb717          	auipc	a4,0x1fffb
    64b0:	2cf72423          	sw	a5,712(a4) # 20001774 <errno>
    64b4:	4501                	li	a0,0
    64b6:	8082                	ret

000064b8 <_lseek>:
    64b8:	05800793          	li	a5,88
    64bc:	1fffb717          	auipc	a4,0x1fffb
    64c0:	2af72c23          	sw	a5,696(a4) # 20001774 <errno>
    64c4:	557d                	li	a0,-1
    64c6:	8082                	ret

000064c8 <_read>:
    64c8:	05800793          	li	a5,88
    64cc:	1fffb717          	auipc	a4,0x1fffb
    64d0:	2af72423          	sw	a5,680(a4) # 20001774 <errno>
    64d4:	557d                	li	a0,-1
    64d6:	8082                	ret
    64d8:	74dc                	flw	fa5,44(s1)
    64da:	0000                	unimp
    64dc:	74f0                	flw	fa2,108(s1)
    64de:	0000                	unimp
    64e0:	7500                	flw	fs0,40(a0)
    64e2:	0000                	unimp
    64e4:	7514                	flw	fa3,40(a0)
    64e6:	0000                	unimp
    64e8:	7520                	flw	fs0,104(a0)
    64ea:	0000                	unimp
    64ec:	752c                	flw	fa1,104(a0)
    64ee:	0000                	unimp
    64f0:	7530                	flw	fa2,104(a0)
    64f2:	0000                	unimp
    64f4:	7540                	flw	fs0,44(a0)
    64f6:	0000                	unimp
    64f8:	7550                	flw	fa2,44(a0)
    64fa:	0000                	unimp
    64fc:	7558                	flw	fa4,44(a0)
    64fe:	0000                	unimp
    6500:	756c                	flw	fa1,108(a0)
    6502:	0000                	unimp
    6504:	757c                	flw	fa5,108(a0)
    6506:	0000                	unimp
    6508:	7584                	flw	fs1,40(a1)
    650a:	0000                	unimp
    650c:	7590                	flw	fa2,40(a1)
    650e:	0000                	unimp
    6510:	759c                	flw	fa5,40(a1)
    6512:	0000                	unimp
    6514:	75b0                	flw	fa2,104(a1)
    6516:	0000                	unimp
    6518:	75b8                	flw	fa4,104(a1)
    651a:	0000                	unimp
    651c:	75c8                	flw	fa0,44(a1)
    651e:	0000                	unimp
    6520:	75d8                	flw	fa4,44(a1)
    6522:	0000                	unimp
    6524:	74d4                	flw	fa3,44(s1)
    6526:	0000                	unimp
    6528:	656c                	flw	fa1,76(a0)
    652a:	5f64                	lw	s1,124(a4)
    652c:	253a5053          	0x253a5053
    6530:	3830                	fld	fa2,112(s0)
    6532:	786c                	flw	fa1,116(s0)
    6534:	0a0d                	addi	s4,s4,3
    6536:	0000                	unimp
    6538:	656c                	flw	fa1,76(a0)
    653a:	2064                	fld	fs1,192(s0)
    653c:	202c6e6f          	jal	t3,cc73e <__rt_init_end+0xc4992>
    6540:	6e756f63          	bltu	a0,t2,6c3e <pins+0x5be>
    6544:	2074                	fld	fa3,192(s0)
    6546:	203a                	fld	ft0,392(sp)
    6548:	6425                	lui	s0,0x9
    654a:	0a0d                	addi	s4,s4,3
    654c:	0000                	unimp
    654e:	0000                	unimp
    6550:	656c                	flw	fa1,76(a0)
    6552:	2064                	fld	fs1,192(s0)
    6554:	0d66666f          	jal	a2,6c62a <__rt_init_end+0x6487e>
    6558:	000a                	c.slli	zero,0x2
	...

0000655c <__fsym___cmd_led_desc>:
    655c:	656c 2064 6173 706d 656c 6220 2079 7375     led sample by us
    656c:	6e69 2067 2f49 204f 7264 7669 7265 0073     ing I/O drivers.

0000657c <__fsym___cmd_led_name>:
    657c:	5f5f 6d63 5f64 656c 0064 0000 6820 7261     __cmd_led... har
    658c:	6664 6c75 0d74 000a 4e20 494d 4820 6e61     dfult... NMI Han
    659c:	6c64 7265 0a0d 0000 0a0d 4d20 5543 203a     dler...... MCU: 
    65ac:	4843 3233 3356 3730 0a0d 0000 5320 7379     CH32V307.... Sys
    65bc:	6c43 3a6b 2520 4864 0d7a 000a 4320 6968     Clk: %dHz... Chi
    65cc:	4970 3a44 2520 3830 0d78 000a 7720 7777     pID: %08x... www
    65dc:	772e 6863 632e 0d6e 000a 0000               .wch.cn.....

000065e8 <_ch32_pin_ops>:
    65e8:	0ef0 0000 0e84 0000 0eb4 0000 0fae 0000     ................
    65f8:	10ac 0000 1140 0000                         ....@...

00006600 <pin_irq_map>:
    6600:	0001 0000 0016 0000 0002 0000 0017 0000     ................
    6610:	0004 0000 0018 0000 0008 0000 0019 0000     ................
    6620:	0010 0000 001a 0000 0020 0000 0027 0000     ........ ...'...
    6630:	0040 0000 0027 0000 0080 0000 0027 0000     @...'.......'...
    6640:	0100 0000 0027 0000 0200 0000 0027 0000     ....'.......'...
    6650:	0400 0000 0038 0000 0800 0000 0038 0000     ....8.......8...
    6660:	1000 0000 0038 0000 2000 0000 0038 0000     ....8.... ..8...
    6670:	4000 0000 0038 0000 8000 0000 0038 0000     .@..8.......8...

00006680 <pins>:
    6680:	ffff ffff 0000 0000 0000 0000 0000 0000     ................
    6690:	0001 0000 0e7c 0000 1800 4001 0004 0000     ....|......@....
    66a0:	0002 0000 0e7c 0000 1800 4001 0008 0000     ....|......@....
    66b0:	0003 0000 0e7c 0000 1800 4001 0010 0000     ....|......@....
    66c0:	0004 0000 0e7c 0000 1800 4001 0020 0000     ....|......@ ...
    66d0:	0005 0000 0e7c 0000 1800 4001 0040 0000     ....|......@@...
    66e0:	ffff ffff 0000 0000 0000 0000 0000 0000     ................
    66f0:	0007 0000 0e76 0000 1000 4001 2000 0000     ....v......@. ..
    6700:	0008 0000 0e76 0000 1000 4001 4000 0000     ....v......@.@..
    6710:	0009 0000 0e76 0000 1000 4001 8000 0000     ....v......@....
    6720:	ffff ffff 0000 0000 0000 0000 0000 0000     ................
    6730:	ffff ffff 0000 0000 0000 0000 0000 0000     ................
    6740:	ffff ffff 0000 0000 0000 0000 0000 0000     ................
    6750:	ffff ffff 0000 0000 0000 0000 0000 0000     ................
    6760:	ffff ffff 0000 0000 0000 0000 0000 0000     ................
    6770:	000f 0000 0e76 0000 1000 4001 0001 0000     ....v......@....
    6780:	0010 0000 0e76 0000 1000 4001 0002 0000     ....v......@....
    6790:	0011 0000 0e76 0000 1000 4001 0004 0000     ....v......@....
    67a0:	0012 0000 0e76 0000 1000 4001 0008 0000     ....v......@....
    67b0:	ffff ffff 0000 0000 0000 0000 0000 0000     ................
    67c0:	ffff ffff 0000 0000 0000 0000 0000 0000     ................
    67d0:	ffff ffff 0000 0000 0000 0000 0000 0000     ................
    67e0:	ffff ffff 0000 0000 0000 0000 0000 0000     ................
    67f0:	0017 0000 0e70 0000 0800 4001 0001 0000     ....p......@....
    6800:	0018 0000 0e70 0000 0800 4001 0002 0000     ....p......@....
    6810:	0019 0000 0e70 0000 0800 4001 0004 0000     ....p......@....
    6820:	001a 0000 0e70 0000 0800 4001 0008 0000     ....p......@....
    6830:	ffff ffff 0000 0000 0000 0000 0000 0000     ................
    6840:	ffff ffff 0000 0000 0000 0000 0000 0000     ................
    6850:	001d 0000 0e70 0000 0800 4001 0010 0000     ....p......@....
    6860:	001e 0000 0e70 0000 0800 4001 0020 0000     ....p......@ ...
    6870:	001f 0000 0e70 0000 0800 4001 0040 0000     ....p......@@...
    6880:	0020 0000 0e70 0000 0800 4001 0080 0000      ...p......@....
    6890:	0021 0000 0e76 0000 1000 4001 0010 0000     !...v......@....
    68a0:	0022 0000 0e76 0000 1000 4001 0020 0000     "...v......@ ...
    68b0:	0023 0000 0e6a 0000 0c00 4001 0001 0000     #...j......@....
    68c0:	0024 0000 0e6a 0000 0c00 4001 0002 0000     $...j......@....
    68d0:	0025 0000 0e6a 0000 0c00 4001 0004 0000     %...j......@....
    68e0:	0026 0000 0e7c 0000 1800 4001 0080 0000     &...|......@....
    68f0:	0027 0000 0e7c 0000 1800 4001 0100 0000     '...|......@....
    6900:	0028 0000 0e7c 0000 1800 4001 0200 0000     (...|......@....
    6910:	0029 0000 0e7c 0000 1800 4001 0400 0000     )...|......@....
    6920:	002a 0000 0e7c 0000 1800 4001 0800 0000     *...|......@....
    6930:	002b 0000 0e7c 0000 1800 4001 1000 0000     +...|......@....
    6940:	002c 0000 0e7c 0000 1800 4001 2000 0000     ,...|......@. ..
    6950:	002d 0000 0e7c 0000 1800 4001 4000 0000     -...|......@.@..
    6960:	002e 0000 0e7c 0000 1800 4001 8000 0000     ....|......@....
    6970:	002f 0000 0e6a 0000 0c00 4001 0400 0000     /...j......@....
    6980:	0030 0000 0e6a 0000 0c00 4001 0800 0000     0...j......@....
    6990:	ffff ffff 0000 0000 0000 0000 0000 0000     ................
    69a0:	ffff ffff 0000 0000 0000 0000 0000 0000     ................
    69b0:	0033 0000 0e6a 0000 0c00 4001 1000 0000     3...j......@....
    69c0:	0034 0000 0e6a 0000 0c00 4001 2000 0000     4...j......@. ..
    69d0:	0035 0000 0e6a 0000 0c00 4001 4000 0000     5...j......@.@..
    69e0:	0036 0000 0e6a 0000 0c00 4001 8000 0000     6...j......@....
    69f0:	0037 0000 0e62 0000 1400 4001 0100 0000     7...b......@....
    6a00:	0038 0000 0e62 0000 1400 4001 0200 0000     8...b......@....
    6a10:	0039 0000 0e62 0000 1400 4001 0400 0000     9...b......@....
    6a20:	003a 0000 0e62 0000 1400 4001 0800 0000     :...b......@....
    6a30:	003b 0000 0e62 0000 1400 4001 1000 0000     ;...b......@....
    6a40:	003c 0000 0e62 0000 1400 4001 2000 0000     <...b......@. ..
    6a50:	003d 0000 0e62 0000 1400 4001 4000 0000     =...b......@.@..
    6a60:	003e 0000 0e62 0000 1400 4001 8000 0000     >...b......@....
    6a70:	003f 0000 0e76 0000 1000 4001 0040 0000     ?...v......@@...
    6a80:	0040 0000 0e76 0000 1000 4001 0080 0000     @...v......@....
    6a90:	0041 0000 0e76 0000 1000 4001 0100 0000     A...v......@....
    6aa0:	0042 0000 0e76 0000 1000 4001 0200 0000     B...v......@....
    6ab0:	0043 0000 0e70 0000 0800 4001 0100 0000     C...p......@....
    6ac0:	0044 0000 0e70 0000 0800 4001 0200 0000     D...p......@....
    6ad0:	0045 0000 0e70 0000 0800 4001 0400 0000     E...p......@....
    6ae0:	0046 0000 0e70 0000 0800 4001 0800 0000     F...p......@....
    6af0:	0047 0000 0e70 0000 0800 4001 1000 0000     G...p......@....
    6b00:	0048 0000 0e70 0000 0800 4001 2000 0000     H...p......@. ..
    6b10:	ffff ffff 0000 0000 0000 0000 0000 0000     ................
    6b20:	ffff ffff 0000 0000 0000 0000 0000 0000     ................
    6b30:	ffff ffff 0000 0000 0000 0000 0000 0000     ................
    6b40:	004c 0000 0e70 0000 0800 4001 4000 0000     L...p......@.@..
    6b50:	004d 0000 0e70 0000 0800 4001 8000 0000     M...p......@....
    6b60:	004e 0000 0e76 0000 1000 4001 0400 0000     N...v......@....
    6b70:	004f 0000 0e76 0000 1000 4001 0800 0000     O...v......@....
    6b80:	0050 0000 0e76 0000 1000 4001 1000 0000     P...v......@....
    6b90:	0051 0000 0e62 0000 1400 4001 0001 0000     Q...b......@....
    6ba0:	0052 0000 0e62 0000 1400 4001 0002 0000     R...b......@....
    6bb0:	0053 0000 0e62 0000 1400 4001 0004 0000     S...b......@....
    6bc0:	0054 0000 0e62 0000 1400 4001 0008 0000     T...b......@....
    6bd0:	0055 0000 0e62 0000 1400 4001 0010 0000     U...b......@....
    6be0:	0056 0000 0e62 0000 1400 4001 0020 0000     V...b......@ ...
    6bf0:	0057 0000 0e62 0000 1400 4001 0040 0000     W...b......@@...
    6c00:	0058 0000 0e62 0000 1400 4001 0080 0000     X...b......@....
    6c10:	0059 0000 0e6a 0000 0c00 4001 0008 0000     Y...j......@....
    6c20:	005a 0000 0e6a 0000 0c00 4001 0010 0000     Z...j......@....
    6c30:	005b 0000 0e6a 0000 0c00 4001 0020 0000     [...j......@ ...
    6c40:	005c 0000 0e6a 0000 0c00 4001 0040 0000     \...j......@@...
    6c50:	005d 0000 0e6a 0000 0c00 4001 0080 0000     ]...j......@....
    6c60:	ffff ffff 0000 0000 0000 0000 0000 0000     ................
    6c70:	005f 0000 0e6a 0000 0c00 4001 0100 0000     _...j......@....
    6c80:	0060 0000 0e6a 0000 0c00 4001 0200 0000     `...j......@....
    6c90:	0061 0000 0e7c 0000 1800 4001 0001 0000     a...|......@....
    6ca0:	0062 0000 0e7c 0000 1800 4001 0002 0000     b...|......@....
    6cb0:	ffff ffff 0000 0000 0000 0000 0000 0000     ................
    6cc0:	ffff ffff 0000 0000 0000 0000 0000 0000     ................
    6cd0:	6970 006e                                   pin.

00006cd4 <ch32_uart_ops>:
    6cd4:	1794 0000 19be 0000 1990 0000 1966 0000     ............f...
    6ce4:	1790 0000 6175 7472 0031 0000               ....uart1...

00006cf0 <__fsym_pinRead_desc>:
    6cf0:	6572 6461 7320 6174 7574 2073 7266 6d6f     read status from
    6d00:	6820 7261 7764 7261 2065 6970 006e 0000      hardware pin...

00006d10 <__fsym_pinRead_name>:
    6d10:	6970 526e 6165 0064                         pinRead.

00006d18 <__fsym_pinWrite_desc>:
    6d18:	7277 7469 2065 6176 756c 2065 6f74 6820     write value to h
    6d28:	7261 7764 7261 2065 6970 006e               ardware pin.

00006d34 <__fsym_pinWrite_name>:
    6d34:	6970 576e 6972 6574 0000 0000               pinWrite....

00006d40 <__fsym_pinMode_desc>:
    6d40:	6573 2074 6168 6472 6177 6572 7020 6e69     set hardware pin
    6d50:	6d20 646f 0065 0000                          mode...

00006d58 <__fsym_pinMode_name>:
    6d58:	6970 4d6e 646f 0065 5b1b 4a32 5b1b 0048     pinMode..[2J.[H.
    6d68:	2d2d 7546 636e 6974 6e6f 4c20 7369 3a74     --Function List:
    6d78:	000a 0000 5f5f 0000 2d25 3631 2073 2d2d     ....__..%-16s --
    6d88:	2520 0a73 0000 0000 6564 6976 6563 0000      %s.....device..
    6d98:	2d25 2e2a 2073 2020 2020 2020 2020 7974     %-*.s         ty
    6da8:	6570 2020 2020 2020 2020 7220 6665 6320     pe         ref c
    6db8:	756f 746e 000a 0000 2d20 2d2d 2d2d 2d2d     ount.... -------
    6dc8:	2d2d 2d2d 2d2d 2d2d 2d2d 2d2d 202d 2d2d     ------------- --
    6dd8:	2d2d 2d2d 2d2d 2d2d 000a 0000 2d25 2e2a     --------....%-*.
    6de8:	732a 2520 322d 7330 2520 382d 0a64 0000     *s %-20s %-8d...
    6df8:	7665 6e65 0074 0000 2d25 2e2a 2073 2020     event...%-*.s   
    6e08:	2020 7320 7465 2020 2020 7573 7073 6e65        set    suspen
    6e18:	2064 6874 6572 6461 000a 0000 2020 2d2d     d thread....  --
    6e28:	2d2d 2d2d 2d2d 2d2d 2d20 2d2d 2d2d 2d2d     -------- -------
    6e38:	2d2d 2d2d 2d2d 0a2d 0000 0000 2d25 2e2a     -------.....%-*.
    6e48:	732a 2020 7830 3025 7838 2520 3330 3a64     *s  0x%08x %03d:
    6e58:	0000 0000 2d25 2e2a 732a 2020 7830 3025     ....%-*.*s  0x%0
    6e68:	7838 3020 000a 0000 616d 6c69 6f62 0078     8x 0....mailbox.
    6e78:	2d25 2e2a 2073 6e65 7274 2079 6973 657a     %-*.s entry size
    6e88:	7320 7375 6570 646e 7420 7268 6165 0a64      suspend thread.
    6e98:	0000 0000 2d20 2d2d 202d 2d20 2d2d 202d     .... ----  ---- 
    6ea8:	2d2d 2d2d 2d2d 2d2d 2d2d 2d2d 2d2d 000a     --------------..
    6eb8:	2d25 2e2a 732a 2520 3430 2064 2520 3430     %-*.*s %04d  %04
    6ec8:	2064 6425 003a 0000 2d25 2e2a 732a 2520     d %d:...%-*.*s %
    6ed8:	3430 2064 2520 3430 2064 6425 000a 0000     04d  %04d %d....
    6ee8:	736d 7167 6575 6575 0000 0000 2d25 2e2a     msgqueue....%-*.
    6ef8:	2073 6e65 7274 2079 7573 7073 6e65 2064     s entry suspend 
    6f08:	6874 6572 6461 000a 2d20 2d2d 202d 2d20     thread.. ----  -
    6f18:	2d2d 2d2d 2d2d 2d2d 2d2d 2d2d 0a2d 0000     -------------...
    6f28:	2d25 2e2a 732a 2520 3430 2064 2520 3a64     %-*.*s %04d  %d:
    6f38:	0000 0000 2d25 2e2a 732a 2520 3430 2064     ....%-*.*s %04d 
    6f48:	2520 0a64 0000 0000 756d 6574 0078 0000      %d.....mutex...
    6f58:	2d25 2e2a 2073 2020 776f 656e 2072 6820     %-*.s   owner  h
    6f68:	6c6f 2064 7573 7073 6e65 2064 6874 6572     old suspend thre
    6f78:	6461 000a 2d20 2d2d 2d2d 2d2d 202d 2d2d     ad.. -------- --
    6f88:	2d2d 2d20 2d2d 2d2d 2d2d 2d2d 2d2d 2d2d     -- -------------
    6f98:	0a2d 0000 2d25 2e2a 732a 2520 382d 2a2e     -...%-*.*s %-8.*
    6fa8:	2073 3025 6434 2520 0a64 0000 6573 616d     s %04d %d...sema
    6fb8:	6870 726f 0065 0000 2d25 2e2a 2073 2076     phore...%-*.s v 
    6fc8:	2020 7573 7073 6e65 2064 6874 6572 6461       suspend thread
    6fd8:	000a 0000 2d20 2d2d 2d20 2d2d 2d2d 2d2d     .... --- -------
    6fe8:	2d2d 2d2d 2d2d 0a2d 0000 0000 2d25 2e2a     -------.....%-*.
    6ff8:	732a 2520 3330 2064 6425 003a 2d25 2e2a     *s %03d %d:.%-*.
    7008:	732a 2520 3330 2064 6425 000a 6874 6572     *s %03d %d..thre
    7018:	6461 0000 2d25 2e2a 2073 7270 2069 7320     ad..%-*.s pri  s
    7028:	6174 7574 2073 2020 2020 7320 2070 2020     tatus      sp   
    7038:	2020 7473 6361 206b 6973 657a 6d20 7861       stack size max
    7048:	7520 6573 2064 656c 7466 7420 6369 206b      used left tick 
    7058:	6520 7272 726f 000a 2d20 2d2d 2020 2d2d      error.. ---  --
    7068:	2d2d 2d2d 202d 2d2d 2d2d 2d2d 2d2d 2d2d     ----- ----------
    7078:	2d20 2d2d 2d2d 2d2d 2d2d 202d 2d20 2d2d      ----------  ---
    7088:	2d2d 202d 2d20 2d2d 2d2d 2d2d 2d2d 202d     ---  ---------- 
    7098:	2d2d 0a2d 0000 0000 002d 0000 2d25 2e2a     ---.....-...%-*.
    70a8:	732a 2520 6433 0020 7220 6165 7964 2020     *s %3d . ready  
    70b8:	0000 0000 7320 7375 6570 646e 0000 0000     .... suspend....
    70c8:	6920 696e 2074 2020 0000 0000 6320 6f6c      init   .... clo
    70d8:	6573 2020 0000 0000 3020 2578 3830 2078     se  .... 0x%08x 
    70e8:	7830 3025 7838 2020 2020 3025 6432 2525     0x%08x    %02d%%
    70f8:	2020 3020 2578 3830 2078 3025 6433 000a        0x%08x %03d..
    7108:	6974 656d 0072 0000 2d25 2e2a 2073 7020     timer...%-*.s  p
    7118:	7265 6f69 6964 2063 2020 6974 656d 756f     eriodic   timeou
    7128:	2074 2020 2020 2020 6c66 6761 000a 0000     t       flag....
    7138:	2d20 2d2d 2d2d 2d2d 2d2d 202d 2d2d 2d2d      ---------- ----
    7148:	2d2d 2d2d 2d2d 2d20 2d2d 2d2d 2d2d 2d2d     ------ ---------
    7158:	2d2d 000a 2d25 2e2a 732a 3020 2578 3830     --..%-*.*s 0x%08
    7168:	2078 7830 3025 7838 0020 0000 6361 6974     x 0x%08x ...acti
    7178:	6176 6574 0a64 0000 6564 6361 6974 6176     vated...deactiva
    7188:	6574 0a64 0000 0000 7563 7272 6e65 2074     ted.....current 
    7198:	6974 6b63 303a 2578 3830 0a78 0000 0000     tick:0x%08x.....

000071a8 <__fsym_list_desc>:
    71a8:	696c 7473 6120 6c6c 7320 6d79 6f62 206c     list all symbol 
    71b8:	6e69 7320 7379 6574 006d 0000               in system...

000071c4 <__fsym_list_name>:
    71c4:	696c 7473 0000 0000                         list....

000071cc <__fsym___cmd_list_device_desc>:
    71cc:	696c 7473 6420 7665 6369 2065 6e69 7320     list device in s
    71dc:	7379 6574 006d 0000                         ystem...

000071e4 <__fsym___cmd_list_device_name>:
    71e4:	5f5f 6d63 5f64 696c 7473 645f 7665 6369     __cmd_list_devic
    71f4:	0065 0000                                   e...

000071f8 <__fsym_list_device_desc>:
    71f8:	696c 7473 6420 7665 6369 2065 6e69 7320     list device in s
    7208:	7379 6574 006d 0000                         ystem...

00007210 <__fsym_list_device_name>:
    7210:	696c 7473 645f 7665 6369 0065               list_device.

0000721c <__fsym___cmd_list_timer_desc>:
    721c:	696c 7473 7420 6d69 7265 6920 206e 7973     list timer in sy
    722c:	7473 6d65 0000 0000                         stem....

00007234 <__fsym___cmd_list_timer_name>:
    7234:	5f5f 6d63 5f64 696c 7473 745f 6d69 7265     __cmd_list_timer
    7244:	0000 0000                                   ....

00007248 <__fsym_list_timer_desc>:
    7248:	696c 7473 7420 6d69 7265 6920 206e 7973     list timer in sy
    7258:	7473 6d65 0000 0000                         stem....

00007260 <__fsym_list_timer_name>:
    7260:	696c 7473 745f 6d69 7265 0000               list_timer..

0000726c <__fsym___cmd_list_msgqueue_desc>:
    726c:	696c 7473 6d20 7365 6173 6567 7120 6575     list message que
    727c:	6575 6920 206e 7973 7473 6d65 0000 0000     ue in system....

0000728c <__fsym___cmd_list_msgqueue_name>:
    728c:	5f5f 6d63 5f64 696c 7473 6d5f 6773 7571     __cmd_list_msgqu
    729c:	7565 0065                                   eue.

000072a0 <__fsym_list_msgqueue_desc>:
    72a0:	696c 7473 6d20 7365 6173 6567 7120 6575     list message que
    72b0:	6575 6920 206e 7973 7473 6d65 0000 0000     ue in system....

000072c0 <__fsym_list_msgqueue_name>:
    72c0:	696c 7473 6d5f 6773 7571 7565 0065 0000     list_msgqueue...

000072d0 <__fsym___cmd_list_mailbox_desc>:
    72d0:	696c 7473 6d20 6961 206c 6f62 2078 6e69     list mail box in
    72e0:	7320 7379 6574 006d                          system.

000072e8 <__fsym___cmd_list_mailbox_name>:
    72e8:	5f5f 6d63 5f64 696c 7473 6d5f 6961 626c     __cmd_list_mailb
    72f8:	786f 0000                                   ox..

000072fc <__fsym_list_mailbox_desc>:
    72fc:	696c 7473 6d20 6961 206c 6f62 2078 6e69     list mail box in
    730c:	7320 7379 6574 006d                          system.

00007314 <__fsym_list_mailbox_name>:
    7314:	696c 7473 6d5f 6961 626c 786f 0000 0000     list_mailbox....

00007324 <__fsym___cmd_list_mutex_desc>:
    7324:	696c 7473 6d20 7475 7865 6920 206e 7973     list mutex in sy
    7334:	7473 6d65 0000 0000                         stem....

0000733c <__fsym___cmd_list_mutex_name>:
    733c:	5f5f 6d63 5f64 696c 7473 6d5f 7475 7865     __cmd_list_mutex
    734c:	0000 0000                                   ....

00007350 <__fsym_list_mutex_desc>:
    7350:	696c 7473 6d20 7475 7865 6920 206e 7973     list mutex in sy
    7360:	7473 6d65 0000 0000                         stem....

00007368 <__fsym_list_mutex_name>:
    7368:	696c 7473 6d5f 7475 7865 0000               list_mutex..

00007374 <__fsym___cmd_list_event_desc>:
    7374:	696c 7473 6520 6576 746e 6920 206e 7973     list event in sy
    7384:	7473 6d65 0000 0000                         stem....

0000738c <__fsym___cmd_list_event_name>:
    738c:	5f5f 6d63 5f64 696c 7473 655f 6576 746e     __cmd_list_event
    739c:	0000 0000                                   ....

000073a0 <__fsym_list_event_desc>:
    73a0:	696c 7473 6520 6576 746e 6920 206e 7973     list event in sy
    73b0:	7473 6d65 0000 0000                         stem....

000073b8 <__fsym_list_event_name>:
    73b8:	696c 7473 655f 6576 746e 0000               list_event..

000073c4 <__fsym___cmd_list_sem_desc>:
    73c4:	696c 7473 7320 6d65 7061 6f68 6572 6920     list semaphore i
    73d4:	206e 7973 7473 6d65 0000 0000               n system....

000073e0 <__fsym___cmd_list_sem_name>:
    73e0:	5f5f 6d63 5f64 696c 7473 735f 6d65 0000     __cmd_list_sem..

000073f0 <__fsym_list_sem_desc>:
    73f0:	696c 7473 7320 6d65 7061 6f68 656e 6920     list semaphone i
    7400:	206e 7973 7473 6d65 0000 0000               n system....

0000740c <__fsym_list_sem_name>:
    740c:	696c 7473 735f 6d65 0000 0000               list_sem....

00007418 <__fsym___cmd_list_thread_desc>:
    7418:	696c 7473 7420 7268 6165 0064               list thread.

00007424 <__fsym___cmd_list_thread_name>:
    7424:	5f5f 6d63 5f64 696c 7473 745f 7268 6165     __cmd_list_threa
    7434:	0064 0000                                   d...

00007438 <__fsym_list_thread_desc>:
    7438:	696c 7473 7420 7268 6165 0064               list thread.

00007444 <__fsym_list_thread_name>:
    7444:	696c 7473 745f 7268 6165 0064               list_thread.

00007450 <__fsym___cmd_clear_desc>:
    7450:	6874 2065 6574 6d72 6e69 6c61 7320 7263     the terminal scr
    7460:	6565 006e                                   een.

00007464 <__fsym___cmd_clear_name>:
    7464:	5f5f 6d63 5f64 6c63 6165 0072               __cmd_clear.

00007470 <__fsym_clear_desc>:
    7470:	6874 2065 6574 6d72 6e69 6c61 7320 7263     the terminal scr
    7480:	6565 006e                                   een.

00007484 <__fsym_clear_name>:
    7484:	6c63 6165 0072 0000                         clear...

0000748c <__fsym___cmd_reboot_desc>:
    748c:	6572 6f62 746f 7420 6568 6220 616f 6472     reboot the board
    749c:	0000 0000                                   ....

000074a0 <__fsym___cmd_reboot_name>:
    74a0:	5f5f 6d63 5f64 6572 6f62 746f 0000 0000     __cmd_reboot....

000074b0 <__fsym_reboot_desc>:
    74b0:	6572 6f62 746f 7420 6568 6220 616f 6472     reboot the board
    74c0:	0000 0000                                   ....

000074c4 <__fsym_reboot_name>:
    74c4:	6572 6f62 746f 0000 7325 0000 002f 0000     reboot..%s../...
    74d4:	6e55 6e6b 776f 006e 6843 7261 6361 6574     Unknown.Characte
    74e4:	2072 6544 6976 6563 0000 0000 6c42 636f     r Device....Bloc
    74f4:	206b 6544 6976 6563 0000 0000 654e 7774     k Device....Netw
    7504:	726f 206b 6e49 6574 6672 6361 0065 0000     ork Interface...
    7514:	544d 2044 6544 6976 6563 0000 4143 204e     MTD Device..CAN 
    7524:	6544 6976 6563 0000 5452 0043 6f53 6e75     Device..RTC.Soun
    7534:	2064 6544 6976 6563 0000 0000 7247 7061     d Device....Grap
    7544:	6968 2063 6544 6976 6563 0000 3249 2043     hic Device..I2C 
    7554:	7542 0073 5355 2042 6c53 7661 2065 6544     Bus.USB Slave De
    7564:	6976 6563 0000 0000 5355 2042 6f48 7473     vice....USB Host
    7574:	4220 7375 0000 0000 5053 2049 7542 0073      Bus....SPI Bus.
    7584:	5053 2049 6544 6976 6563 0000 4453 4f49     SPI Device..SDIO
    7594:	4220 7375 0000 0000 4d50 5020 6573 6475      Bus....PM Pseud
    75a4:	206f 6544 6976 6563 0000 0000 6950 6570     o Device....Pipe
    75b4:	0000 0000 6f50 7472 6c61 4420 7665 6369     ....Portal Devic
    75c4:	0065 0000 6954 656d 2072 6544 6976 6563     e...Timer Device
    75d4:	0000 0000 694d 6373 6c65 616c 656e 756f     ....Miscellaneou
    75e4:	2073 6544 6976 6563 0000 0000 6f54 206f     s Device....Too 
    75f4:	616d 796e 6120 6772 2073 2021 6557 6f20     many args ! We o
    7604:	6c6e 2079 7355 3a65 000a 0000 7325 0020     nly Use:....%s .
    7614:	7325 203a 6f63 6d6d 6e61 2064 6f6e 2074     %s: command not 
    7624:	6f66 6e75 2e64 000a 5452 542d 7268 6165     found...RT-Threa
    7634:	2064 6873 6c65 206c 6f63 6d6d 6e61 7364     d shell commands
    7644:	0a3a 0000 5f5f 6d63 5f64 0000 2d25 3631     :...__cmd_..%-16
    7654:	2073 202d 7325 000a                         s - %s..

0000765c <__fsym___cmd_help_desc>:
    765c:	5452 542d 7268 6165 2064 6873 6c65 206c     RT-Thread shell 
    766c:	6568 706c 0000 0000                         help....

00007674 <__fsym___cmd_help_name>:
    7674:	5f5f 6d63 5f64 6568 706c 0000               __cmd_help..

00007680 <__fsym___cmd_free_desc>:
    7680:	6853 776f 7420 6568 6d20 6d65 726f 2079     Show the memory 
    7690:	7375 6761 2065 6e69 7420 6568 7320 7379     usage in the sys
    76a0:	6574 006d                                   tem.

000076a4 <__fsym___cmd_free_name>:
    76a4:	5f5f 6d63 5f64 7266 6565 0000               __cmd_free..

000076b0 <__fsym___cmd_ps_desc>:
    76b0:	694c 7473 7420 7268 6165 7364 6920 206e     List threads in 
    76c0:	6874 2065 7973 7473 6d65 0000               the system..

000076cc <__fsym___cmd_ps_name>:
    76cc:	5f5f 6d63 5f64 7370 0000 0000 6966 736e     __cmd_ps....fins
    76dc:	3a68 6320 6e61 6e20 746f 6620 6e69 2064     h: can not find 
    76ec:	6564 6976 6563 203a 7325 000a 6f6e 6d20     device: %s..no m
    76fc:	6d65 726f 2079 6f66 2072 6873 6c65 0a6c     emory for shell.
    770c:	0000 0000 7374 6568 6c6c 0000 6873 7872     ....tshell..shrx
    771c:	0000 0000 0008 0000 6325 0000 2508 2073     ........%c...%s 
    772c:	0820 0000 2008 0008 5b1b 4b32 000d 0000      .... ...[2K....
    773c:	7325 7325 0000 0000 616d 6e69 0000 0000     %s%s....main....
    774c:	6f54 6920 696e 6974 6c61 7a69 2065 6564     To initialize de
    775c:	6976 6563 253a 2073 6166 6c69 6465 202e     vice:%s failed. 
    776c:	6854 2065 7265 6f72 2072 6f63 6564 6920     The error code i
    777c:	2073 6425 000a 0000 6974 6c64 0065 0000     s %d....tidle...
    778c:	ca64 ffff ca7c ffff ca7c ffff ca7c ffff     d...|...|...|...
    779c:	ca7c ffff ca7c ffff ca7c ffff ca7c ffff     |...|...|...|...
    77ac:	ca7c ffff ca7c ffff ca7c ffff ca7c ffff     |...|...|...|...
    77bc:	ca7c ffff ca7c ffff ca7c ffff ca7c ffff     |...|...|...|...
    77cc:	ca7c ffff ca7c ffff ca7c ffff ca7c ffff     |...|...|...|...
    77dc:	ca7c ffff ca7c ffff ca7c ffff ca7c ffff     |...|...|...|...
    77ec:	ca7c ffff ca7c ffff ca7c ffff ca7c ffff     |...|...|...|...
    77fc:	ca7c ffff ca7c ffff ca7c ffff ca7c ffff     |...|...|...|...
    780c:	ca7c ffff ca7c ffff ca7c ffff ca7c ffff     |...|...|...|...
    781c:	ca7c ffff ca7c ffff ca7c ffff ca7c ffff     |...|...|...|...
    782c:	ca7c ffff ca7c ffff ca7c ffff ca7c ffff     |...|...|...|...
    783c:	ca7c ffff ca7c ffff ca7c ffff ca7c ffff     |...|...|...|...
    784c:	ca7c ffff ca7c ffff ca7c ffff c90e ffff     |...|...|.......
    785c:	ca7c ffff ca7c ffff ca7c ffff ca7c ffff     |...|...|...|...
    786c:	ca7c ffff ca7c ffff ca7c ffff ca7c ffff     |...|...|...|...
    787c:	ca7c ffff ca7c ffff ca12 ffff c958 ffff     |...|.......X...
    788c:	ca7c ffff ca7c ffff ca7c ffff ca7c ffff     |...|...|...|...
    789c:	c958 ffff ca7c ffff ca7c ffff ca7c ffff     X...|...|...|...
    78ac:	ca7c ffff ca7c ffff c954 ffff c9ec ffff     |...|...T.......
    78bc:	ca7c ffff ca7c ffff c964 ffff ca7c ffff     |...|...d...|...
    78cc:	c960 ffff ca7c ffff ca7c ffff c912 ffff     `...|...|.......

000078dc <__lowest_bit_bitmap>:
    78dc:	0000 0001 0002 0001 0003 0001 0002 0001     ................
    78ec:	0004 0001 0002 0001 0003 0001 0002 0001     ................
    78fc:	0005 0001 0002 0001 0003 0001 0002 0001     ................
    790c:	0004 0001 0002 0001 0003 0001 0002 0001     ................
    791c:	0006 0001 0002 0001 0003 0001 0002 0001     ................
    792c:	0004 0001 0002 0001 0003 0001 0002 0001     ................
    793c:	0005 0001 0002 0001 0003 0001 0002 0001     ................
    794c:	0004 0001 0002 0001 0003 0001 0002 0001     ................
    795c:	0007 0001 0002 0001 0003 0001 0002 0001     ................
    796c:	0004 0001 0002 0001 0003 0001 0002 0001     ................
    797c:	0005 0001 0002 0001 0003 0001 0002 0001     ................
    798c:	0004 0001 0002 0001 0003 0001 0002 0001     ................
    799c:	0006 0001 0002 0001 0003 0001 0002 0001     ................
    79ac:	0004 0001 0002 0001 0003 0001 0002 0001     ................
    79bc:	0005 0001 0002 0001 0003 0001 0002 0001     ................
    79cc:	0004 0001 0002 0001 0003 0001 0002 0001     ................

000079dc <large_digits.2585>:
    79dc:	3130 3332 3534 3736 3938 4241 4443 4645     0123456789ABCDEF
    79ec:	0000 0000 200a 205c 207c 0a2f 0000 0000     ..... \ | /.....
    79fc:	202d 5452 2d20 2020 2020 5420 7268 6165     - RT -     Threa
    7a0c:	2064 704f 7265 7461 6e69 2067 7953 7473     d Operating Syst
    7a1c:	6d65 000a 6f4e 2076 3832 3220 3230 0034     em..Nov 28 2024.
    7a2c:	2f20 7c20 5c20 2020 2020 2520 2e64 6425      / | \     %d.%d
    7a3c:	252e 2064 7562 6c69 2064 7325 000a 0000     .%d build %s....
    7a4c:	3220 3030 2036 202d 3032 3931 4320 706f      2006 - 2019 Cop
    7a5c:	7279 6769 7468 6220 2079 7472 742d 7268     yright by rt-thr
    7a6c:	6165 2064 6574 6d61 000a 0000 4e28 4c55     ead team....(NUL
    7a7c:	294c 0000                                   L)..

00007a80 <small_digits.2584>:
    7a80:	3130 3332 3534 3736 3938 6261 6463 6665     0123456789abcdef
    7a90:	0000 0000 6f74 6174 206c 656d 6f6d 7972     ....total memory
    7aa0:	203a 6425 000a 0000 7375 6465 6d20 6d65     : %d....used mem
    7ab0:	726f 2079 203a 6425 000a 0000 616d 6978     ory : %d....maxi
    7ac0:	756d 206d 6c61 6f6c 6163 6574 2064 656d     mum allocated me
    7ad0:	6f6d 7972 203a 6425 000a 0000               mory: %d....

00007adc <__fsym_list_mem_desc>:
    7adc:	696c 7473 6d20 6d65 726f 2079 7375 6761     list memory usag
    7aec:	2065 6e69 6f66 6d72 7461 6f69 006e 0000     e information...

00007afc <__fsym_list_mem_name>:
    7afc:	696c 7473 6d5f 6d65 0000 0000 6f74 6620     list_mem....to f
    7b0c:	6572 2065 2061 6162 2064 6164 6174 6220     ree a bad data b
    7b1c:	6f6c 6b63 0a3a 0000 656d 3a6d 3020 2578     lock:...mem: 0x%
    7b2c:	3830 2c78 7520 6573 2064 6c66 6761 203a     08x, used flag: 
    7b3c:	6425 202c 616d 6967 2063 6f63 6564 203a     %d, magic code: 
    7b4c:	7830 3025 7834 000a 6568 7061 0000 0000     0x%04x..heap....
    7b5c:	656d 206d 6e69 7469 202c 7265 6f72 2072     mem init, error 
    7b6c:	6562 6967 206e 6461 7264 7365 2073 7830     begin address 0x
    7b7c:	7825 202c 6e61 2064 6e65 2064 6461 7264     %x, and end addr
    7b8c:	7365 2073 7830 7825 000a 0000               ess 0x%x....

00007b98 <__sf_fake_stderr>:
	...

00007bb8 <__sf_fake_stdin>:
	...

00007bd8 <__sf_fake_stdout>:
	...
    7bf8:	2d23 2b30 0020 0000 6c68 004c 6665 4567     #-0+ ...hlL.efgE
    7c08:	4746 0000 3130 3332 3534 3736 3938 4241     FG..0123456789AB
    7c18:	4443 4645 0000 0000 3130 3332 3534 3736     CDEF....01234567
    7c28:	3938 6261 6463 6665 0000 0000               89abcdef....

00007c34 <__fsym___cmd_led>:
    7c34:	657c 0000 655c 0000 041a 0000               |e..\e......

00007c40 <__fsym_pinRead>:
    7c40:	6d10 0000 6cf0 0000 1c0a 0000               .m...l......

00007c4c <__fsym_pinWrite>:
    7c4c:	6d34 0000 6d18 0000 1bf4 0000               4m...m......

00007c58 <__fsym_pinMode>:
    7c58:	6d58 0000 6d40 0000 1bde 0000               Xm..@m......

00007c64 <__fsym_list>:
    7c64:	71c4 0000 71a8 0000 295e 0000               .q...q..^)..

00007c70 <__fsym___cmd_list_device>:
    7c70:	71e4 0000 71cc 0000 2792 0000               .q...q...'..

00007c7c <__fsym_list_device>:
    7c7c:	7210 0000 71f8 0000 2792 0000               .r...q...'..

00007c88 <__fsym___cmd_list_timer>:
    7c88:	7234 0000 721c 0000 2886 0000               4r...r...(..

00007c94 <__fsym_list_timer>:
    7c94:	7260 0000 7248 0000 2886 0000               `r..Hr...(..

00007ca0 <__fsym___cmd_list_msgqueue>:
    7ca0:	728c 0000 726c 0000 26ac 0000               .r..lr...&..

00007cac <__fsym_list_msgqueue>:
    7cac:	72c0 0000 72a0 0000 26ac 0000               .r...r...&..

00007cb8 <__fsym___cmd_list_mailbox>:
    7cb8:	72e8 0000 72d0 0000 25c4 0000               .r...r...%..

00007cc4 <__fsym_list_mailbox>:
    7cc4:	7314 0000 72fc 0000 25c4 0000               .s...r...%..

00007cd0 <__fsym___cmd_list_mutex>:
    7cd0:	733c 0000 7324 0000 2508 0000               <s..$s...%..

00007cdc <__fsym_list_mutex>:
    7cdc:	7368 0000 7350 0000 2508 0000               hs..Ps...%..

00007ce8 <__fsym___cmd_list_event>:
    7ce8:	738c 0000 7374 0000 2428 0000               .s..ts..($..

00007cf4 <__fsym_list_event>:
    7cf4:	73b8 0000 73a0 0000 2428 0000               .s...s..($..

00007d00 <__fsym___cmd_list_sem>:
    7d00:	73e0 0000 73c4 0000 2346 0000               .s...s..F#..

00007d0c <__fsym_list_sem>:
    7d0c:	740c 0000 73f0 0000 2346 0000               .t...s..F#..

00007d18 <__fsym___cmd_list_thread>:
    7d18:	7424 0000 7418 0000 21d8 0000               $t...t...!..

00007d24 <__fsym_list_thread>:
    7d24:	7444 0000 7438 0000 21d8 0000               Dt..8t...!..

00007d30 <__fsym___cmd_clear>:
    7d30:	7464 0000 7450 0000 2114 0000               dt..Pt...!..

00007d3c <__fsym_clear>:
    7d3c:	7484 0000 7470 0000 2114 0000               .t..pt...!..

00007d48 <__fsym___cmd_reboot>:
    7d48:	74a0 0000 748c 0000 2102 0000               .t...t...!..

00007d54 <__fsym_reboot>:
    7d54:	74c4 0000 74b0 0000 2102 0000               .t...t...!..

00007d60 <__fsym___cmd_help>:
    7d60:	7674 0000 765c 0000 29ce 0000               tv..\v...)..

00007d6c <__fsym___cmd_free>:
    7d6c:	76a4 0000 7680 0000 2db6 0000               .v...v...-..

00007d78 <__fsym___cmd_ps>:
    7d78:	76cc 0000 76b0 0000 2da6 0000               .v...v...-..

00007d84 <__fsym_list_mem>:
    7d84:	7afc 0000 7adc 0000 450c 0000               .z...z...E..

00007d90 <__rt_init_rti_start>:
    7d90:	3572 0000                                   r5..

00007d94 <__rt_init_rti_board_start>:
    7d94:	35c6 0000                                   .5..

00007d98 <__rt_init_rt_hw_pin_init>:
    7d98:	1306 0000                                   ....

00007d9c <__rt_init_rt_hw_usart_init>:
    7d9c:	189e 0000                                   ....

00007da0 <__rt_init_rti_board_end>:
    7da0:	35ca 0000                                   .5..

00007da4 <__rt_init_finsh_system_init>:
    7da4:	2ddc 0000                                   .-..

00007da8 <__rt_init_rti_end>:
    7da8:	35c2 0000                                   .5..
